
STM32F4HUB.elf:     file format elf32-littlearm

Sections:
Idx Name          Size      VMA       LMA       File off  Algn
  0 .isr_vector   00000188  08000000  08000000  00010000  2**0
                  CONTENTS, ALLOC, LOAD, READONLY, DATA
  1 .text         00006cb8  08000190  08000190  00010190  2**4
                  CONTENTS, ALLOC, LOAD, READONLY, CODE
  2 .init_array   00000004  08006e48  08006e48  00016e48  2**2
                  CONTENTS, ALLOC, LOAD, DATA
  3 .fini_array   00000004  08006e4c  08006e4c  00016e4c  2**2
                  CONTENTS, ALLOC, LOAD, DATA
  4 .data         000000c4  20000000  08006e50  00020000  2**2
                  CONTENTS, ALLOC, LOAD, DATA
  5 .bss          00001498  200000c8  08006f18  000200c4  2**3
                  ALLOC
  6 ._user_heap_stack 00000400  20001560  080083b0  000200c4  2**0
                  ALLOC
  7 .ARM.attributes 00000030  00000000  00000000  000200c4  2**0
                  CONTENTS, READONLY
  8 .comment      00000050  00000000  00000000  000200f4  2**0
                  CONTENTS, READONLY
  9 .debug_frame  000004b0  00000000  00000000  00020144  2**2
                  CONTENTS, READONLY, DEBUGGING, OCTETS

Disassembly of section .text:

08000190 <__do_global_dtors_aux>:
 8000190:	b510      	push	{r4, lr}
 8000192:	4c05      	ldr	r4, [pc, #20]	; (80001a8 <__do_global_dtors_aux+0x18>)
 8000194:	7823      	ldrb	r3, [r4, #0]
 8000196:	b933      	cbnz	r3, 80001a6 <__do_global_dtors_aux+0x16>
 8000198:	4b04      	ldr	r3, [pc, #16]	; (80001ac <__do_global_dtors_aux+0x1c>)
 800019a:	b113      	cbz	r3, 80001a2 <__do_global_dtors_aux+0x12>
 800019c:	4804      	ldr	r0, [pc, #16]	; (80001b0 <__do_global_dtors_aux+0x20>)
 800019e:	f3af 8000 	nop.w
 80001a2:	2301      	movs	r3, #1
 80001a4:	7023      	strb	r3, [r4, #0]
 80001a6:	bd10      	pop	{r4, pc}
 80001a8:	200000c8 	.word	0x200000c8
 80001ac:	00000000 	.word	0x00000000
 80001b0:	08006e30 	.word	0x08006e30

080001b4 <frame_dummy>:
 80001b4:	b508      	push	{r3, lr}
 80001b6:	4b03      	ldr	r3, [pc, #12]	; (80001c4 <frame_dummy+0x10>)
 80001b8:	b11b      	cbz	r3, 80001c2 <frame_dummy+0xe>
 80001ba:	4903      	ldr	r1, [pc, #12]	; (80001c8 <frame_dummy+0x14>)
 80001bc:	4803      	ldr	r0, [pc, #12]	; (80001cc <frame_dummy+0x18>)
 80001be:	f3af 8000 	nop.w
 80001c2:	bd08      	pop	{r3, pc}
 80001c4:	00000000 	.word	0x00000000
 80001c8:	200000cc 	.word	0x200000cc
 80001cc:	08006e30 	.word	0x08006e30

080001d0 <strlen>:
 80001d0:	4603      	mov	r3, r0
 80001d2:	f813 2b01 	ldrb.w	r2, [r3], #1
 80001d6:	2a00      	cmp	r2, #0
 80001d8:	d1fb      	bne.n	80001d2 <strlen+0x2>
 80001da:	1a18      	subs	r0, r3, r0
 80001dc:	3801      	subs	r0, #1
 80001de:	4770      	bx	lr

080001e0 <memchr>:
 80001e0:	f001 01ff 	and.w	r1, r1, #255	; 0xff
 80001e4:	2a10      	cmp	r2, #16
 80001e6:	db2b      	blt.n	8000240 <memchr+0x60>
 80001e8:	f010 0f07 	tst.w	r0, #7
 80001ec:	d008      	beq.n	8000200 <memchr+0x20>
 80001ee:	f810 3b01 	ldrb.w	r3, [r0], #1
 80001f2:	3a01      	subs	r2, #1
 80001f4:	428b      	cmp	r3, r1
 80001f6:	d02d      	beq.n	8000254 <memchr+0x74>
 80001f8:	f010 0f07 	tst.w	r0, #7
 80001fc:	b342      	cbz	r2, 8000250 <memchr+0x70>
 80001fe:	d1f6      	bne.n	80001ee <memchr+0xe>
 8000200:	b4f0      	push	{r4, r5, r6, r7}
 8000202:	ea41 2101 	orr.w	r1, r1, r1, lsl #8
 8000206:	ea41 4101 	orr.w	r1, r1, r1, lsl #16
 800020a:	f022 0407 	bic.w	r4, r2, #7
 800020e:	f07f 0700 	mvns.w	r7, #0
 8000212:	2300      	movs	r3, #0
 8000214:	e8f0 5602 	ldrd	r5, r6, [r0], #8
 8000218:	3c08      	subs	r4, #8
 800021a:	ea85 0501 	eor.w	r5, r5, r1
 800021e:	ea86 0601 	eor.w	r6, r6, r1
 8000222:	fa85 f547 	uadd8	r5, r5, r7
 8000226:	faa3 f587 	sel	r5, r3, r7
 800022a:	fa86 f647 	uadd8	r6, r6, r7
 800022e:	faa5 f687 	sel	r6, r5, r7
 8000232:	b98e      	cbnz	r6, 8000258 <memchr+0x78>
 8000234:	d1ee      	bne.n	8000214 <memchr+0x34>
 8000236:	bcf0      	pop	{r4, r5, r6, r7}
 8000238:	f001 01ff 	and.w	r1, r1, #255	; 0xff
 800023c:	f002 0207 	and.w	r2, r2, #7
 8000240:	b132      	cbz	r2, 8000250 <memchr+0x70>
 8000242:	f810 3b01 	ldrb.w	r3, [r0], #1
 8000246:	3a01      	subs	r2, #1
 8000248:	ea83 0301 	eor.w	r3, r3, r1
 800024c:	b113      	cbz	r3, 8000254 <memchr+0x74>
 800024e:	d1f8      	bne.n	8000242 <memchr+0x62>
 8000250:	2000      	movs	r0, #0
 8000252:	4770      	bx	lr
 8000254:	3801      	subs	r0, #1
 8000256:	4770      	bx	lr
 8000258:	2d00      	cmp	r5, #0
 800025a:	bf06      	itte	eq
 800025c:	4635      	moveq	r5, r6
 800025e:	3803      	subeq	r0, #3
 8000260:	3807      	subne	r0, #7
 8000262:	f015 0f01 	tst.w	r5, #1
 8000266:	d107      	bne.n	8000278 <memchr+0x98>
 8000268:	3001      	adds	r0, #1
 800026a:	f415 7f80 	tst.w	r5, #256	; 0x100
 800026e:	bf02      	ittt	eq
 8000270:	3001      	addeq	r0, #1
 8000272:	f415 3fc0 	tsteq.w	r5, #98304	; 0x18000
 8000276:	3001      	addeq	r0, #1
 8000278:	bcf0      	pop	{r4, r5, r6, r7}
 800027a:	3801      	subs	r0, #1
 800027c:	4770      	bx	lr
 800027e:	bf00      	nop

08000280 <HAL_MspInit>:
 8000280:	4770      	bx	lr
 8000282:	bf00      	nop

08000284 <HAL_InitTick>:
 8000284:	b500      	push	{lr}
 8000286:	b083      	sub	sp, #12
 8000288:	9001      	str	r0, [sp, #4]
 800028a:	f001 fa0b 	bl	80016a4 <HAL_RCC_GetHCLKFreq>
 800028e:	4a08      	ldr	r2, [pc, #32]	; (80002b0 <HAL_InitTick+0x2c>)
 8000290:	fba2 2300 	umull	r2, r3, r2, r0
 8000294:	0998      	lsrs	r0, r3, #6
 8000296:	f000 f89b 	bl	80003d0 <HAL_SYSTICK_Config>
 800029a:	9901      	ldr	r1, [sp, #4]
 800029c:	f04f 30ff 	mov.w	r0, #4294967295	; 0xffffffff
 80002a0:	2200      	movs	r2, #0
 80002a2:	f000 f84b 	bl	800033c <HAL_NVIC_SetPriority>
 80002a6:	2000      	movs	r0, #0
 80002a8:	b003      	add	sp, #12
 80002aa:	f85d fb04 	ldr.w	pc, [sp], #4
 80002ae:	bf00      	nop
 80002b0:	10624dd3 	.word	0x10624dd3

080002b4 <HAL_Init>:
 80002b4:	b508      	push	{r3, lr}
 80002b6:	4b09      	ldr	r3, [pc, #36]	; (80002dc <HAL_Init+0x28>)
 80002b8:	681a      	ldr	r2, [r3, #0]
 80002ba:	f442 7200 	orr.w	r2, r2, #512	; 0x200
 80002be:	601a      	str	r2, [r3, #0]
 80002c0:	681a      	ldr	r2, [r3, #0]
 80002c2:	f442 6280 	orr.w	r2, r2, #1024	; 0x400
 80002c6:	601a      	str	r2, [r3, #0]
 80002c8:	2003      	movs	r0, #3
 80002ca:	f000 f825 	bl	8000318 <HAL_NVIC_SetPriorityGrouping>
 80002ce:	200f      	movs	r0, #15
 80002d0:	f7ff ffd8 	bl	8000284 <HAL_InitTick>
 80002d4:	f7ff ffd4 	bl	8000280 <HAL_MspInit>
 80002d8:	2000      	movs	r0, #0
 80002da:	bd08      	pop	{r3, pc}
 80002dc:	40023c00 	.word	0x40023c00

080002e0 <HAL_IncTick>:
 80002e0:	4a02      	ldr	r2, [pc, #8]	; (80002ec <HAL_IncTick+0xc>)
 80002e2:	6813      	ldr	r3, [r2, #0]
 80002e4:	3301      	adds	r3, #1
 80002e6:	6013      	str	r3, [r2, #0]
 80002e8:	4770      	bx	lr
 80002ea:	bf00      	nop
 80002ec:	200000e4 	.word	0x200000e4

080002f0 <HAL_GetTick>:
 80002f0:	4b01      	ldr	r3, [pc, #4]	; (80002f8 <HAL_GetTick+0x8>)
 80002f2:	6818      	ldr	r0, [r3, #0]
 80002f4:	4770      	bx	lr
 80002f6:	bf00      	nop
 80002f8:	200000e4 	.word	0x200000e4

080002fc <HAL_Delay>:
 80002fc:	b510      	push	{r4, lr}
 80002fe:	b082      	sub	sp, #8
 8000300:	9001      	str	r0, [sp, #4]
 8000302:	f7ff fff5 	bl	80002f0 <HAL_GetTick>
 8000306:	4604      	mov	r4, r0
 8000308:	f7ff fff2 	bl	80002f0 <HAL_GetTick>
 800030c:	9b01      	ldr	r3, [sp, #4]
 800030e:	1b00      	subs	r0, r0, r4
 8000310:	4298      	cmp	r0, r3
 8000312:	d3f9      	bcc.n	8000308 <HAL_Delay+0xc>
 8000314:	b002      	add	sp, #8
 8000316:	bd10      	pop	{r4, pc}

08000318 <HAL_NVIC_SetPriorityGrouping>:
 8000318:	4907      	ldr	r1, [pc, #28]	; (8000338 <HAL_NVIC_SetPriorityGrouping+0x20>)
 800031a:	68ca      	ldr	r2, [r1, #12]
 800031c:	0203      	lsls	r3, r0, #8
 800031e:	f64f 00ff 	movw	r0, #63743	; 0xf8ff
 8000322:	f403 63e0 	and.w	r3, r3, #1792	; 0x700
 8000326:	4002      	ands	r2, r0
 8000328:	4313      	orrs	r3, r2
 800032a:	f043 63bf 	orr.w	r3, r3, #100139008	; 0x5f80000
 800032e:	f443 3300 	orr.w	r3, r3, #131072	; 0x20000
 8000332:	60cb      	str	r3, [r1, #12]
 8000334:	4770      	bx	lr
 8000336:	bf00      	nop
 8000338:	e000ed00 	.word	0xe000ed00

0800033c <HAL_NVIC_SetPriority>:
 800033c:	4b1c      	ldr	r3, [pc, #112]	; (80003b0 <HAL_NVIC_SetPriority+0x74>)
 800033e:	68db      	ldr	r3, [r3, #12]
 8000340:	f3c3 2302 	ubfx	r3, r3, #8, #3
 8000344:	b500      	push	{lr}
 8000346:	f1c3 0e07 	rsb	lr, r3, #7
 800034a:	f1be 0f04 	cmp.w	lr, #4
 800034e:	f103 0c04 	add.w	ip, r3, #4
 8000352:	bf28      	it	cs
 8000354:	f04f 0e04 	movcs.w	lr, #4
 8000358:	f1bc 0f06 	cmp.w	ip, #6
 800035c:	d91b      	bls.n	8000396 <HAL_NVIC_SetPriority+0x5a>
 800035e:	3b03      	subs	r3, #3
 8000360:	f04f 3cff 	mov.w	ip, #4294967295	; 0xffffffff
 8000364:	fa0c fc03 	lsl.w	ip, ip, r3
 8000368:	ea22 020c 	bic.w	r2, r2, ip
 800036c:	f04f 3cff 	mov.w	ip, #4294967295	; 0xffffffff
 8000370:	fa0c fc0e 	lsl.w	ip, ip, lr
 8000374:	ea21 010c 	bic.w	r1, r1, ip
 8000378:	4099      	lsls	r1, r3
 800037a:	2800      	cmp	r0, #0
 800037c:	ea41 0102 	orr.w	r1, r1, r2
 8000380:	db0c      	blt.n	800039c <HAL_NVIC_SetPriority+0x60>
 8000382:	f100 4060 	add.w	r0, r0, #3758096384	; 0xe0000000
 8000386:	0109      	lsls	r1, r1, #4
 8000388:	f500 4061 	add.w	r0, r0, #57600	; 0xe100
 800038c:	b2c9      	uxtb	r1, r1
 800038e:	f880 1300 	strb.w	r1, [r0, #768]	; 0x300
 8000392:	f85d fb04 	ldr.w	pc, [sp], #4
 8000396:	2200      	movs	r2, #0
 8000398:	4613      	mov	r3, r2
 800039a:	e7e7      	b.n	800036c <HAL_NVIC_SetPriority+0x30>
 800039c:	4b05      	ldr	r3, [pc, #20]	; (80003b4 <HAL_NVIC_SetPriority+0x78>)
 800039e:	f000 000f 	and.w	r0, r0, #15
 80003a2:	0109      	lsls	r1, r1, #4
 80003a4:	4403      	add	r3, r0
 80003a6:	b2c9      	uxtb	r1, r1
 80003a8:	7619      	strb	r1, [r3, #24]
 80003aa:	f85d fb04 	ldr.w	pc, [sp], #4
 80003ae:	bf00      	nop
 80003b0:	e000ed00 	.word	0xe000ed00
 80003b4:	e000ecfc 	.word	0xe000ecfc

080003b8 <HAL_NVIC_EnableIRQ>:
 80003b8:	0941      	lsrs	r1, r0, #5
 80003ba:	4a04      	ldr	r2, [pc, #16]	; (80003cc <HAL_NVIC_EnableIRQ+0x14>)
 80003bc:	f000 001f 	and.w	r0, r0, #31
 80003c0:	2301      	movs	r3, #1
 80003c2:	fa03 f000 	lsl.w	r0, r3, r0
 80003c6:	f842 0021 	str.w	r0, [r2, r1, lsl #2]
 80003ca:	4770      	bx	lr
 80003cc:	e000e100 	.word	0xe000e100

080003d0 <HAL_SYSTICK_Config>:
 80003d0:	3801      	subs	r0, #1
 80003d2:	f1b0 7f80 	cmp.w	r0, #16777216	; 0x1000000
 80003d6:	d210      	bcs.n	80003fa <HAL_SYSTICK_Config+0x2a>
 80003d8:	b410      	push	{r4}
 80003da:	f04f 23e0 	mov.w	r3, #3758153728	; 0xe000e000
 80003de:	4c08      	ldr	r4, [pc, #32]	; (8000400 <HAL_SYSTICK_Config+0x30>)
 80003e0:	6158      	str	r0, [r3, #20]
 80003e2:	f04f 0cf0 	mov.w	ip, #240	; 0xf0
 80003e6:	f884 c023 	strb.w	ip, [r4, #35]	; 0x23
 80003ea:	2200      	movs	r2, #0
 80003ec:	2107      	movs	r1, #7
 80003ee:	4610      	mov	r0, r2
 80003f0:	619a      	str	r2, [r3, #24]
 80003f2:	f85d 4b04 	ldr.w	r4, [sp], #4
 80003f6:	6119      	str	r1, [r3, #16]
 80003f8:	4770      	bx	lr
 80003fa:	2001      	movs	r0, #1
 80003fc:	4770      	bx	lr
 80003fe:	bf00      	nop
 8000400:	e000ed00 	.word	0xe000ed00

08000404 <HAL_NVIC_ClearPendingIRQ>:
 8000404:	0943      	lsrs	r3, r0, #5
 8000406:	4905      	ldr	r1, [pc, #20]	; (800041c <HAL_NVIC_ClearPendingIRQ+0x18>)
 8000408:	f000 001f 	and.w	r0, r0, #31
 800040c:	2201      	movs	r2, #1
 800040e:	3360      	adds	r3, #96	; 0x60
 8000410:	fa02 f000 	lsl.w	r0, r2, r0
 8000414:	f841 0023 	str.w	r0, [r1, r3, lsl #2]
 8000418:	4770      	bx	lr
 800041a:	bf00      	nop
 800041c:	e000e100 	.word	0xe000e100

08000420 <HAL_SYSTICK_Callback>:
 8000420:	4770      	bx	lr
 8000422:	bf00      	nop

08000424 <HAL_SYSTICK_IRQHandler>:
 8000424:	b508      	push	{r3, lr}
 8000426:	f7ff fffb 	bl	8000420 <HAL_SYSTICK_Callback>
 800042a:	bd08      	pop	{r3, pc}

0800042c <HAL_GPIO_Init>:
 800042c:	e92d 4ff0 	stmdb	sp!, {r4, r5, r6, r7, r8, r9, sl, fp, lr}
 8000430:	2300      	movs	r3, #0
 8000432:	680d      	ldr	r5, [r1, #0]
 8000434:	f8df 8260 	ldr.w	r8, [pc, #608]	; 8000698 <HAL_GPIO_Init+0x26c>
 8000438:	b083      	sub	sp, #12
 800043a:	e003      	b.n	8000444 <HAL_GPIO_Init+0x18>
 800043c:	3301      	adds	r3, #1
 800043e:	2b10      	cmp	r3, #16
 8000440:	f000 80a9 	beq.w	8000596 <HAL_GPIO_Init+0x16a>
 8000444:	2201      	movs	r2, #1
 8000446:	409a      	lsls	r2, r3
 8000448:	ea32 0405 	bics.w	r4, r2, r5
 800044c:	ea02 0c05 	and.w	ip, r2, r5
 8000450:	d1f4      	bne.n	800043c <HAL_GPIO_Init+0x10>
 8000452:	684e      	ldr	r6, [r1, #4]
 8000454:	f026 0910 	bic.w	r9, r6, #16
 8000458:	f1b9 0f02 	cmp.w	r9, #2
 800045c:	f000 809e 	beq.w	800059c <HAL_GPIO_Init+0x170>
 8000460:	f8d0 b000 	ldr.w	fp, [r0]
 8000464:	ea4f 0e43 	mov.w	lr, r3, lsl #1
 8000468:	2403      	movs	r4, #3
 800046a:	fa04 f40e 	lsl.w	r4, r4, lr
 800046e:	f006 0a03 	and.w	sl, r6, #3
 8000472:	ea2b 0b04 	bic.w	fp, fp, r4
 8000476:	f109 39ff 	add.w	r9, r9, #4294967295	; 0xffffffff
 800047a:	fa0a fa0e 	lsl.w	sl, sl, lr
 800047e:	ea4a 0a0b 	orr.w	sl, sl, fp
 8000482:	f1b9 0f01 	cmp.w	r9, #1
 8000486:	ea6f 0404 	mvn.w	r4, r4
 800048a:	f8c0 a000 	str.w	sl, [r0]
 800048e:	f240 80ae 	bls.w	80005ee <HAL_GPIO_Init+0x1c2>
 8000492:	68c2      	ldr	r2, [r0, #12]
 8000494:	4014      	ands	r4, r2
 8000496:	688a      	ldr	r2, [r1, #8]
 8000498:	fa02 f20e 	lsl.w	r2, r2, lr
 800049c:	4322      	orrs	r2, r4
 800049e:	00f7      	lsls	r7, r6, #3
 80004a0:	60c2      	str	r2, [r0, #12]
 80004a2:	d5cb      	bpl.n	800043c <HAL_GPIO_Init+0x10>
 80004a4:	2200      	movs	r2, #0
 80004a6:	9201      	str	r2, [sp, #4]
 80004a8:	f8d8 2044 	ldr.w	r2, [r8, #68]	; 0x44
 80004ac:	4f73      	ldr	r7, [pc, #460]	; (800067c <HAL_GPIO_Init+0x250>)
 80004ae:	f442 4280 	orr.w	r2, r2, #16384	; 0x4000
 80004b2:	f8c8 2044 	str.w	r2, [r8, #68]	; 0x44
 80004b6:	f8d8 2044 	ldr.w	r2, [r8, #68]	; 0x44
 80004ba:	f402 4280 	and.w	r2, r2, #16384	; 0x4000
 80004be:	9201      	str	r2, [sp, #4]
 80004c0:	9a01      	ldr	r2, [sp, #4]
 80004c2:	f023 0203 	bic.w	r2, r3, #3
 80004c6:	f102 4280 	add.w	r2, r2, #1073741824	; 0x40000000
 80004ca:	f502 329c 	add.w	r2, r2, #79872	; 0x13800
 80004ce:	f003 0903 	and.w	r9, r3, #3
 80004d2:	f8d2 e008 	ldr.w	lr, [r2, #8]
 80004d6:	ea4f 0989 	mov.w	r9, r9, lsl #2
 80004da:	240f      	movs	r4, #15
 80004dc:	fa04 f409 	lsl.w	r4, r4, r9
 80004e0:	42b8      	cmp	r0, r7
 80004e2:	ea2e 0404 	bic.w	r4, lr, r4
 80004e6:	d029      	beq.n	800053c <HAL_GPIO_Init+0x110>
 80004e8:	f507 6780 	add.w	r7, r7, #1024	; 0x400
 80004ec:	42b8      	cmp	r0, r7
 80004ee:	f000 8094 	beq.w	800061a <HAL_GPIO_Init+0x1ee>
 80004f2:	4f63      	ldr	r7, [pc, #396]	; (8000680 <HAL_GPIO_Init+0x254>)
 80004f4:	42b8      	cmp	r0, r7
 80004f6:	f000 8097 	beq.w	8000628 <HAL_GPIO_Init+0x1fc>
 80004fa:	4f62      	ldr	r7, [pc, #392]	; (8000684 <HAL_GPIO_Init+0x258>)
 80004fc:	42b8      	cmp	r0, r7
 80004fe:	f000 809a 	beq.w	8000636 <HAL_GPIO_Init+0x20a>
 8000502:	4f61      	ldr	r7, [pc, #388]	; (8000688 <HAL_GPIO_Init+0x25c>)
 8000504:	42b8      	cmp	r0, r7
 8000506:	f000 809d 	beq.w	8000644 <HAL_GPIO_Init+0x218>
 800050a:	4f60      	ldr	r7, [pc, #384]	; (800068c <HAL_GPIO_Init+0x260>)
 800050c:	42b8      	cmp	r0, r7
 800050e:	f000 80a7 	beq.w	8000660 <HAL_GPIO_Init+0x234>
 8000512:	4f5f      	ldr	r7, [pc, #380]	; (8000690 <HAL_GPIO_Init+0x264>)
 8000514:	42b8      	cmp	r0, r7
 8000516:	f000 80aa 	beq.w	800066e <HAL_GPIO_Init+0x242>
 800051a:	f8df e180 	ldr.w	lr, [pc, #384]	; 800069c <HAL_GPIO_Init+0x270>
 800051e:	4570      	cmp	r0, lr
 8000520:	f000 8097 	beq.w	8000652 <HAL_GPIO_Init+0x226>
 8000524:	f8df e178 	ldr.w	lr, [pc, #376]	; 80006a0 <HAL_GPIO_Init+0x274>
 8000528:	4570      	cmp	r0, lr
 800052a:	bf0c      	ite	eq
 800052c:	f04f 0e08 	moveq.w	lr, #8
 8000530:	f04f 0e09 	movne.w	lr, #9
 8000534:	fa0e f909 	lsl.w	r9, lr, r9
 8000538:	ea44 0409 	orr.w	r4, r4, r9
 800053c:	6094      	str	r4, [r2, #8]
 800053e:	4a55      	ldr	r2, [pc, #340]	; (8000694 <HAL_GPIO_Init+0x268>)
 8000540:	6812      	ldr	r2, [r2, #0]
 8000542:	ea6f 0e0c 	mvn.w	lr, ip
 8000546:	03f4      	lsls	r4, r6, #15
 8000548:	4c52      	ldr	r4, [pc, #328]	; (8000694 <HAL_GPIO_Init+0x268>)
 800054a:	bf54      	ite	pl
 800054c:	ea0e 0202 	andpl.w	r2, lr, r2
 8000550:	ea4c 0202 	orrmi.w	r2, ip, r2
 8000554:	6022      	str	r2, [r4, #0]
 8000556:	6864      	ldr	r4, [r4, #4]
 8000558:	03b2      	lsls	r2, r6, #14
 800055a:	4a4e      	ldr	r2, [pc, #312]	; (8000694 <HAL_GPIO_Init+0x268>)
 800055c:	bf54      	ite	pl
 800055e:	ea0e 0404 	andpl.w	r4, lr, r4
 8000562:	ea4c 0404 	orrmi.w	r4, ip, r4
 8000566:	6054      	str	r4, [r2, #4]
 8000568:	6894      	ldr	r4, [r2, #8]
 800056a:	4a4a      	ldr	r2, [pc, #296]	; (8000694 <HAL_GPIO_Init+0x268>)
 800056c:	02f7      	lsls	r7, r6, #11
 800056e:	bf54      	ite	pl
 8000570:	ea0e 0404 	andpl.w	r4, lr, r4
 8000574:	ea4c 0404 	orrmi.w	r4, ip, r4
 8000578:	6094      	str	r4, [r2, #8]
 800057a:	68d2      	ldr	r2, [r2, #12]
 800057c:	02b4      	lsls	r4, r6, #10
 800057e:	f103 0301 	add.w	r3, r3, #1
 8000582:	4c44      	ldr	r4, [pc, #272]	; (8000694 <HAL_GPIO_Init+0x268>)
 8000584:	bf54      	ite	pl
 8000586:	ea0e 0202 	andpl.w	r2, lr, r2
 800058a:	ea4c 0202 	orrmi.w	r2, ip, r2
 800058e:	2b10      	cmp	r3, #16
 8000590:	60e2      	str	r2, [r4, #12]
 8000592:	f47f af57 	bne.w	8000444 <HAL_GPIO_Init+0x18>
 8000596:	b003      	add	sp, #12
 8000598:	e8bd 8ff0 	ldmia.w	sp!, {r4, r5, r6, r7, r8, r9, sl, fp, pc}
 800059c:	ea4f 0ed3 	mov.w	lr, r3, lsr #3
 80005a0:	eb00 0e8e 	add.w	lr, r0, lr, lsl #2
 80005a4:	690c      	ldr	r4, [r1, #16]
 80005a6:	f8de a020 	ldr.w	sl, [lr, #32]
 80005aa:	f003 0907 	and.w	r9, r3, #7
 80005ae:	ea4f 0989 	mov.w	r9, r9, lsl #2
 80005b2:	f04f 0b0f 	mov.w	fp, #15
 80005b6:	fa04 f409 	lsl.w	r4, r4, r9
 80005ba:	fa0b f909 	lsl.w	r9, fp, r9
 80005be:	ea2a 0909 	bic.w	r9, sl, r9
 80005c2:	ea44 0409 	orr.w	r4, r4, r9
 80005c6:	f8ce 4020 	str.w	r4, [lr, #32]
 80005ca:	f8d0 a000 	ldr.w	sl, [r0]
 80005ce:	ea4f 0e43 	mov.w	lr, r3, lsl #1
 80005d2:	2403      	movs	r4, #3
 80005d4:	fa04 f40e 	lsl.w	r4, r4, lr
 80005d8:	f006 0903 	and.w	r9, r6, #3
 80005dc:	ea2a 0a04 	bic.w	sl, sl, r4
 80005e0:	fa09 f90e 	lsl.w	r9, r9, lr
 80005e4:	ea49 090a 	orr.w	r9, r9, sl
 80005e8:	43e4      	mvns	r4, r4
 80005ea:	f8c0 9000 	str.w	r9, [r0]
 80005ee:	f8d0 a008 	ldr.w	sl, [r0, #8]
 80005f2:	68cf      	ldr	r7, [r1, #12]
 80005f4:	ea04 0a0a 	and.w	sl, r4, sl
 80005f8:	fa07 f90e 	lsl.w	r9, r7, lr
 80005fc:	ea49 090a 	orr.w	r9, r9, sl
 8000600:	f8c0 9008 	str.w	r9, [r0, #8]
 8000604:	f8d0 9004 	ldr.w	r9, [r0, #4]
 8000608:	ea29 0902 	bic.w	r9, r9, r2
 800060c:	f3c6 1200 	ubfx	r2, r6, #4, #1
 8000610:	409a      	lsls	r2, r3
 8000612:	ea42 0209 	orr.w	r2, r2, r9
 8000616:	6042      	str	r2, [r0, #4]
 8000618:	e73b      	b.n	8000492 <HAL_GPIO_Init+0x66>
 800061a:	f04f 0e01 	mov.w	lr, #1
 800061e:	fa0e f909 	lsl.w	r9, lr, r9
 8000622:	ea44 0409 	orr.w	r4, r4, r9
 8000626:	e789      	b.n	800053c <HAL_GPIO_Init+0x110>
 8000628:	f04f 0e02 	mov.w	lr, #2
 800062c:	fa0e f909 	lsl.w	r9, lr, r9
 8000630:	ea44 0409 	orr.w	r4, r4, r9
 8000634:	e782      	b.n	800053c <HAL_GPIO_Init+0x110>
 8000636:	f04f 0e03 	mov.w	lr, #3
 800063a:	fa0e f909 	lsl.w	r9, lr, r9
 800063e:	ea44 0409 	orr.w	r4, r4, r9
 8000642:	e77b      	b.n	800053c <HAL_GPIO_Init+0x110>
 8000644:	f04f 0e04 	mov.w	lr, #4
 8000648:	fa0e f909 	lsl.w	r9, lr, r9
 800064c:	ea44 0409 	orr.w	r4, r4, r9
 8000650:	e774      	b.n	800053c <HAL_GPIO_Init+0x110>
 8000652:	f04f 0e07 	mov.w	lr, #7
 8000656:	fa0e f909 	lsl.w	r9, lr, r9
 800065a:	ea44 0409 	orr.w	r4, r4, r9
 800065e:	e76d      	b.n	800053c <HAL_GPIO_Init+0x110>
 8000660:	f04f 0e05 	mov.w	lr, #5
 8000664:	fa0e f909 	lsl.w	r9, lr, r9
 8000668:	ea44 0409 	orr.w	r4, r4, r9
 800066c:	e766      	b.n	800053c <HAL_GPIO_Init+0x110>
 800066e:	f04f 0e06 	mov.w	lr, #6
 8000672:	fa0e f909 	lsl.w	r9, lr, r9
 8000676:	ea44 0409 	orr.w	r4, r4, r9
 800067a:	e75f      	b.n	800053c <HAL_GPIO_Init+0x110>
 800067c:	40020000 	.word	0x40020000
 8000680:	40020800 	.word	0x40020800
 8000684:	40020c00 	.word	0x40020c00
 8000688:	40021000 	.word	0x40021000
 800068c:	40021400 	.word	0x40021400
 8000690:	40021800 	.word	0x40021800
 8000694:	40013c00 	.word	0x40013c00
 8000698:	40023800 	.word	0x40023800
 800069c:	40021c00 	.word	0x40021c00
 80006a0:	40022000 	.word	0x40022000

080006a4 <HAL_GPIO_WritePin>:
 80006a4:	b902      	cbnz	r2, 80006a8 <HAL_GPIO_WritePin+0x4>
 80006a6:	0409      	lsls	r1, r1, #16
 80006a8:	6181      	str	r1, [r0, #24]
 80006aa:	4770      	bx	lr

080006ac <HAL_GPIO_TogglePin>:
 80006ac:	6943      	ldr	r3, [r0, #20]
 80006ae:	4059      	eors	r1, r3
 80006b0:	6141      	str	r1, [r0, #20]
 80006b2:	4770      	bx	lr

080006b4 <HAL_HCD_HC_Init>:
 80006b4:	e92d 47f0 	stmdb	sp!, {r4, r5, r6, r7, r8, r9, sl, lr}
 80006b8:	f890 c290 	ldrb.w	ip, [r0, #656]	; 0x290
 80006bc:	b084      	sub	sp, #16
 80006be:	f1bc 0f01 	cmp.w	ip, #1
 80006c2:	f89d 5030 	ldrb.w	r5, [sp, #48]	; 0x30
 80006c6:	f89d 6034 	ldrb.w	r6, [sp, #52]	; 0x34
 80006ca:	f8bd 7038 	ldrh.w	r7, [sp, #56]	; 0x38
 80006ce:	d025      	beq.n	800071c <HAL_HCD_HC_Init+0x68>
 80006d0:	eb01 0c81 	add.w	ip, r1, r1, lsl #2
 80006d4:	eb00 0ccc 	add.w	ip, r0, ip, lsl #3
 80006d8:	4604      	mov	r4, r0
 80006da:	f002 097f 	and.w	r9, r2, #127	; 0x7f
 80006de:	09d0      	lsrs	r0, r2, #7
 80006e0:	f04f 0a01 	mov.w	sl, #1
 80006e4:	f884 a290 	strb.w	sl, [r4, #656]	; 0x290
 80006e8:	f88c 3038 	strb.w	r3, [ip, #56]	; 0x38
 80006ec:	f88c 1039 	strb.w	r1, [ip, #57]	; 0x39
 80006f0:	f88c 903a 	strb.w	r9, [ip, #58]	; 0x3a
 80006f4:	f88c 003b 	strb.w	r0, [ip, #59]	; 0x3b
 80006f8:	f88c 603f 	strb.w	r6, [ip, #63]	; 0x3f
 80006fc:	f88c 503c 	strb.w	r5, [ip, #60]	; 0x3c
 8000700:	f8ac 7040 	strh.w	r7, [ip, #64]	; 0x40
 8000704:	e9cd 6701 	strd	r6, r7, [sp, #4]
 8000708:	9500      	str	r5, [sp, #0]
 800070a:	6820      	ldr	r0, [r4, #0]
 800070c:	f001 ff9e 	bl	800264c <USB_HC_Init>
 8000710:	2300      	movs	r3, #0
 8000712:	f884 3290 	strb.w	r3, [r4, #656]	; 0x290
 8000716:	b004      	add	sp, #16
 8000718:	e8bd 87f0 	ldmia.w	sp!, {r4, r5, r6, r7, r8, r9, sl, pc}
 800071c:	2002      	movs	r0, #2
 800071e:	b004      	add	sp, #16
 8000720:	e8bd 87f0 	ldmia.w	sp!, {r4, r5, r6, r7, r8, r9, sl, pc}

08000724 <HAL_HCD_HC_Halt>:
 8000724:	f890 3290 	ldrb.w	r3, [r0, #656]	; 0x290
 8000728:	2b01      	cmp	r3, #1
 800072a:	d00b      	beq.n	8000744 <HAL_HCD_HC_Halt+0x20>
 800072c:	b510      	push	{r4, lr}
 800072e:	4604      	mov	r4, r0
 8000730:	2301      	movs	r3, #1
 8000732:	6800      	ldr	r0, [r0, #0]
 8000734:	f884 3290 	strb.w	r3, [r4, #656]	; 0x290
 8000738:	f001 fb98 	bl	8001e6c <USB_HC_Halt>
 800073c:	2000      	movs	r0, #0
 800073e:	f884 0290 	strb.w	r0, [r4, #656]	; 0x290
 8000742:	bd10      	pop	{r4, pc}
 8000744:	2002      	movs	r0, #2
 8000746:	4770      	bx	lr

08000748 <HAL_HCD_Init>:
 8000748:	2800      	cmp	r0, #0
 800074a:	d03d      	beq.n	80007c8 <HAL_HCD_Init+0x80>
 800074c:	e92d 41f0 	stmdb	sp!, {r4, r5, r6, r7, r8, lr}
 8000750:	2303      	movs	r3, #3
 8000752:	4606      	mov	r6, r0
 8000754:	b08a      	sub	sp, #40	; 0x28
 8000756:	4604      	mov	r4, r0
 8000758:	f880 3291 	strb.w	r3, [r0, #657]	; 0x291
 800075c:	f004 ff10 	bl	8005580 <HAL_HCD_MspInit>
 8000760:	6830      	ldr	r0, [r6, #0]
 8000762:	f001 fdff 	bl	8002364 <USB_DisableGlobalInt>
 8000766:	f854 cb10 	ldr.w	ip, [r4], #16
 800076a:	cc0f      	ldmia	r4!, {r0, r1, r2, r3}
 800076c:	466d      	mov	r5, sp
 800076e:	c50f      	stmia	r5!, {r0, r1, r2, r3}
 8000770:	cc0f      	ldmia	r4!, {r0, r1, r2, r3}
 8000772:	c50f      	stmia	r5!, {r0, r1, r2, r3}
 8000774:	e894 0003 	ldmia.w	r4, {r0, r1}
 8000778:	e885 0003 	stmia.w	r5, {r0, r1}
 800077c:	1d37      	adds	r7, r6, #4
 800077e:	e897 000e 	ldmia.w	r7, {r1, r2, r3}
 8000782:	4660      	mov	r0, ip
 8000784:	f001 fd8c 	bl	80022a0 <USB_CoreInit>
 8000788:	6830      	ldr	r0, [r6, #0]
 800078a:	2101      	movs	r1, #1
 800078c:	f001 fdf2 	bl	8002374 <USB_SetCurrentMode>
 8000790:	46b4      	mov	ip, r6
 8000792:	46ee      	mov	lr, sp
 8000794:	f85c 8b10 	ldr.w	r8, [ip], #16
 8000798:	e8bc 000f 	ldmia.w	ip!, {r0, r1, r2, r3}
 800079c:	e8ae 000f 	stmia.w	lr!, {r0, r1, r2, r3}
 80007a0:	e8bc 000f 	ldmia.w	ip!, {r0, r1, r2, r3}
 80007a4:	e8ae 000f 	stmia.w	lr!, {r0, r1, r2, r3}
 80007a8:	e894 0003 	ldmia.w	r4, {r0, r1}
 80007ac:	e885 0003 	stmia.w	r5, {r0, r1}
 80007b0:	4640      	mov	r0, r8
 80007b2:	e897 000e 	ldmia.w	r7, {r1, r2, r3}
 80007b6:	f001 fe4f 	bl	8002458 <USB_HostInit>
 80007ba:	2301      	movs	r3, #1
 80007bc:	2000      	movs	r0, #0
 80007be:	f886 3291 	strb.w	r3, [r6, #657]	; 0x291
 80007c2:	b00a      	add	sp, #40	; 0x28
 80007c4:	e8bd 81f0 	ldmia.w	sp!, {r4, r5, r6, r7, r8, pc}
 80007c8:	2001      	movs	r0, #1
 80007ca:	4770      	bx	lr

080007cc <HAL_HCD_HC_SubmitRequest>:
 80007cc:	b5f0      	push	{r4, r5, r6, r7, lr}
 80007ce:	f89d e014 	ldrb.w	lr, [sp, #20]
 80007d2:	9d06      	ldr	r5, [sp, #24]
 80007d4:	f89d 6020 	ldrb.w	r6, [sp, #32]
 80007d8:	eb01 0c81 	add.w	ip, r1, r1, lsl #2
 80007dc:	eb00 0ccc 	add.w	ip, r0, ip, lsl #3
 80007e0:	f1be 0f00 	cmp.w	lr, #0
 80007e4:	bf14      	ite	ne
 80007e6:	2402      	movne	r4, #2
 80007e8:	2403      	moveq	r4, #3
 80007ea:	f88c 4042 	strb.w	r4, [ip, #66]	; 0x42
 80007ee:	f88c 203b 	strb.w	r2, [ip, #59]	; 0x3b
 80007f2:	f88c 303f 	strb.w	r3, [ip, #63]	; 0x3f
 80007f6:	f8bd 401c 	ldrh.w	r4, [sp, #28]
 80007fa:	ea4f 0c81 	mov.w	ip, r1, lsl #2
 80007fe:	2b03      	cmp	r3, #3
 8000800:	d80a      	bhi.n	8000818 <HAL_HCD_HC_SubmitRequest+0x4c>
 8000802:	e8df f003 	tbb	[pc, r3]
 8000806:	023d      	.short	0x023d
 8000808:	1f29      	.short	0x1f29
 800080a:	eb0c 0301 	add.w	r3, ip, r1
 800080e:	eb00 03c3 	add.w	r3, r0, r3, lsl #3
 8000812:	2200      	movs	r2, #0
 8000814:	f883 2042 	strb.w	r2, [r3, #66]	; 0x42
 8000818:	eb0c 0301 	add.w	r3, ip, r1
 800081c:	eb00 02c3 	add.w	r2, r0, r3, lsl #3
 8000820:	2328      	movs	r3, #40	; 0x28
 8000822:	6494      	str	r4, [r2, #72]	; 0x48
 8000824:	2400      	movs	r4, #0
 8000826:	f882 1039 	strb.w	r1, [r2, #57]	; 0x39
 800082a:	f8a2 405c 	strh.w	r4, [r2, #92]	; 0x5c
 800082e:	fb03 0101 	mla	r1, r3, r1, r0
 8000832:	6455      	str	r5, [r2, #68]	; 0x44
 8000834:	64d4      	str	r4, [r2, #76]	; 0x4c
 8000836:	3138      	adds	r1, #56	; 0x38
 8000838:	7c02      	ldrb	r2, [r0, #16]
 800083a:	6800      	ldr	r0, [r0, #0]
 800083c:	e8bd 40f0 	ldmia.w	sp!, {r4, r5, r6, r7, lr}
 8000840:	f001 b950 	b.w	8001ae4 <USB_HC_StartXfer>
 8000844:	eb0c 0301 	add.w	r3, ip, r1
 8000848:	eb00 03c3 	add.w	r3, r0, r3, lsl #3
 800084c:	2a00      	cmp	r2, #0
 800084e:	d13d      	bne.n	80008cc <HAL_HCD_HC_SubmitRequest+0x100>
 8000850:	f893 6051 	ldrb.w	r6, [r3, #81]	; 0x51
 8000854:	bbb6      	cbnz	r6, 80008c4 <HAL_HCD_HC_SubmitRequest+0xf8>
 8000856:	e7dd      	b.n	8000814 <HAL_HCD_HC_SubmitRequest+0x48>
 8000858:	bb62      	cbnz	r2, 80008b4 <HAL_HCD_HC_SubmitRequest+0xe8>
 800085a:	eb0c 0201 	add.w	r2, ip, r1
 800085e:	eb00 02c2 	add.w	r2, r0, r2, lsl #3
 8000862:	f892 e051 	ldrb.w	lr, [r2, #81]	; 0x51
 8000866:	f1be 0f00 	cmp.w	lr, #0
 800086a:	bf18      	it	ne
 800086c:	469e      	movne	lr, r3
 800086e:	f892 305c 	ldrb.w	r3, [r2, #92]	; 0x5c
 8000872:	f882 e042 	strb.w	lr, [r2, #66]	; 0x42
 8000876:	2b02      	cmp	r3, #2
 8000878:	d0ce      	beq.n	8000818 <HAL_HCD_HC_SubmitRequest+0x4c>
 800087a:	f882 603d 	strb.w	r6, [r2, #61]	; 0x3d
 800087e:	e7cb      	b.n	8000818 <HAL_HCD_HC_SubmitRequest+0x4c>
 8000880:	f1be 0f01 	cmp.w	lr, #1
 8000884:	d1c8      	bne.n	8000818 <HAL_HCD_HC_SubmitRequest+0x4c>
 8000886:	2a00      	cmp	r2, #0
 8000888:	d1c6      	bne.n	8000818 <HAL_HCD_HC_SubmitRequest+0x4c>
 800088a:	eb0c 0301 	add.w	r3, ip, r1
 800088e:	eb00 03c3 	add.w	r3, r0, r3, lsl #3
 8000892:	bb04      	cbnz	r4, 80008d6 <HAL_HCD_HC_SubmitRequest+0x10a>
 8000894:	f883 e051 	strb.w	lr, [r3, #81]	; 0x51
 8000898:	2202      	movs	r2, #2
 800089a:	eb0c 0301 	add.w	r3, ip, r1
 800089e:	eb00 03c3 	add.w	r3, r0, r3, lsl #3
 80008a2:	f883 2042 	strb.w	r2, [r3, #66]	; 0x42
 80008a6:	f893 205c 	ldrb.w	r2, [r3, #92]	; 0x5c
 80008aa:	2a02      	cmp	r2, #2
 80008ac:	d0b4      	beq.n	8000818 <HAL_HCD_HC_SubmitRequest+0x4c>
 80008ae:	f883 603d 	strb.w	r6, [r3, #61]	; 0x3d
 80008b2:	e7b1      	b.n	8000818 <HAL_HCD_HC_SubmitRequest+0x4c>
 80008b4:	eb0c 0301 	add.w	r3, ip, r1
 80008b8:	eb00 03c3 	add.w	r3, r0, r3, lsl #3
 80008bc:	f893 2050 	ldrb.w	r2, [r3, #80]	; 0x50
 80008c0:	2a00      	cmp	r2, #0
 80008c2:	d0a7      	beq.n	8000814 <HAL_HCD_HC_SubmitRequest+0x48>
 80008c4:	2202      	movs	r2, #2
 80008c6:	f883 2042 	strb.w	r2, [r3, #66]	; 0x42
 80008ca:	e7a5      	b.n	8000818 <HAL_HCD_HC_SubmitRequest+0x4c>
 80008cc:	f893 2050 	ldrb.w	r2, [r3, #80]	; 0x50
 80008d0:	2a00      	cmp	r2, #0
 80008d2:	d1f7      	bne.n	80008c4 <HAL_HCD_HC_SubmitRequest+0xf8>
 80008d4:	e79e      	b.n	8000814 <HAL_HCD_HC_SubmitRequest+0x48>
 80008d6:	f893 2051 	ldrb.w	r2, [r3, #81]	; 0x51
 80008da:	2a00      	cmp	r2, #0
 80008dc:	bf18      	it	ne
 80008de:	2202      	movne	r2, #2
 80008e0:	e7db      	b.n	800089a <HAL_HCD_HC_SubmitRequest+0xce>
 80008e2:	bf00      	nop

080008e4 <HAL_HCD_IRQHandler>:
 80008e4:	e92d 4ff0 	stmdb	sp!, {r4, r5, r6, r7, r8, r9, sl, fp, lr}
 80008e8:	6805      	ldr	r5, [r0, #0]
 80008ea:	b085      	sub	sp, #20
 80008ec:	4604      	mov	r4, r0
 80008ee:	4628      	mov	r0, r5
 80008f0:	f001 fdae 	bl	8002450 <USB_GetMode>
 80008f4:	2801      	cmp	r0, #1
 80008f6:	d002      	beq.n	80008fe <HAL_HCD_IRQHandler+0x1a>
 80008f8:	b005      	add	sp, #20
 80008fa:	e8bd 8ff0 	ldmia.w	sp!, {r4, r5, r6, r7, r8, r9, sl, fp, pc}
 80008fe:	6820      	ldr	r0, [r4, #0]
 8000900:	f001 fda2 	bl	8002448 <USB_ReadInterrupts>
 8000904:	2800      	cmp	r0, #0
 8000906:	d0f7      	beq.n	80008f8 <HAL_HCD_IRQHandler+0x14>
 8000908:	6820      	ldr	r0, [r4, #0]
 800090a:	f001 fd9d 	bl	8002448 <USB_ReadInterrupts>
 800090e:	f410 1f00 	tst.w	r0, #2097152	; 0x200000
 8000912:	6820      	ldr	r0, [r4, #0]
 8000914:	bf1c      	itt	ne
 8000916:	f44f 1300 	movne.w	r3, #2097152	; 0x200000
 800091a:	6143      	strne	r3, [r0, #20]
 800091c:	f001 fd94 	bl	8002448 <USB_ReadInterrupts>
 8000920:	f410 1f80 	tst.w	r0, #1048576	; 0x100000
 8000924:	6820      	ldr	r0, [r4, #0]
 8000926:	bf1c      	itt	ne
 8000928:	f44f 1380 	movne.w	r3, #1048576	; 0x100000
 800092c:	6143      	strne	r3, [r0, #20]
 800092e:	f001 fd8b 	bl	8002448 <USB_ReadInterrupts>
 8000932:	f010 6f80 	tst.w	r0, #67108864	; 0x4000000
 8000936:	6820      	ldr	r0, [r4, #0]
 8000938:	bf1c      	itt	ne
 800093a:	f04f 6380 	movne.w	r3, #67108864	; 0x4000000
 800093e:	6143      	strne	r3, [r0, #20]
 8000940:	f001 fd82 	bl	8002448 <USB_ReadInterrupts>
 8000944:	f010 0f02 	tst.w	r0, #2
 8000948:	6820      	ldr	r0, [r4, #0]
 800094a:	bf1c      	itt	ne
 800094c:	2302      	movne	r3, #2
 800094e:	6143      	strne	r3, [r0, #20]
 8000950:	f001 fd7a 	bl	8002448 <USB_ReadInterrupts>
 8000954:	0087      	lsls	r7, r0, #2
 8000956:	f100 80f8 	bmi.w	8000b4a <HAL_HCD_IRQHandler+0x266>
 800095a:	6820      	ldr	r0, [r4, #0]
 800095c:	f001 fd74 	bl	8002448 <USB_ReadInterrupts>
 8000960:	01c6      	lsls	r6, r0, #7
 8000962:	f100 80c1 	bmi.w	8000ae8 <HAL_HCD_IRQHandler+0x204>
 8000966:	6820      	ldr	r0, [r4, #0]
 8000968:	f001 fd6e 	bl	8002448 <USB_ReadInterrupts>
 800096c:	0701      	lsls	r1, r0, #28
 800096e:	f100 80e5 	bmi.w	8000b3c <HAL_HCD_IRQHandler+0x258>
 8000972:	6820      	ldr	r0, [r4, #0]
 8000974:	f001 fd68 	bl	8002448 <USB_ReadInterrupts>
 8000978:	f010 7f00 	tst.w	r0, #33554432	; 0x2000000
 800097c:	6820      	ldr	r0, [r4, #0]
 800097e:	d113      	bne.n	80009a8 <HAL_HCD_IRQHandler+0xc4>
 8000980:	f001 fd62 	bl	8002448 <USB_ReadInterrupts>
 8000984:	06c3      	lsls	r3, r0, #27
 8000986:	d5b7      	bpl.n	80008f8 <HAL_HCD_IRQHandler+0x14>
 8000988:	6825      	ldr	r5, [r4, #0]
 800098a:	69ab      	ldr	r3, [r5, #24]
 800098c:	f023 0310 	bic.w	r3, r3, #16
 8000990:	61ab      	str	r3, [r5, #24]
 8000992:	6a2e      	ldr	r6, [r5, #32]
 8000994:	f3c6 4243 	ubfx	r2, r6, #17, #4
 8000998:	2a02      	cmp	r2, #2
 800099a:	f000 81bf 	beq.w	8000d1c <HAL_HCD_IRQHandler+0x438>
 800099e:	69ab      	ldr	r3, [r5, #24]
 80009a0:	f043 0310 	orr.w	r3, r3, #16
 80009a4:	61ab      	str	r3, [r5, #24]
 80009a6:	e7a7      	b.n	80008f8 <HAL_HCD_IRQHandler+0x14>
 80009a8:	f001 fa50 	bl	8001e4c <USB_HC_ReadInterrupt>
 80009ac:	68a3      	ldr	r3, [r4, #8]
 80009ae:	4680      	mov	r8, r0
 80009b0:	6820      	ldr	r0, [r4, #0]
 80009b2:	2b00      	cmp	r3, #0
 80009b4:	f000 80be 	beq.w	8000b34 <HAL_HCD_IRQHandler+0x250>
 80009b8:	f505 65a0 	add.w	r5, r5, #1280	; 0x500
 80009bc:	2600      	movs	r6, #0
 80009be:	f04f 0901 	mov.w	r9, #1
 80009c2:	f04f 0b02 	mov.w	fp, #2
 80009c6:	e052      	b.n	8000a6e <HAL_HCD_IRQHandler+0x18a>
 80009c8:	f500 6aa0 	add.w	sl, r0, #1280	; 0x500
 80009cc:	eb0a 1741 	add.w	r7, sl, r1, lsl #5
 80009d0:	014a      	lsls	r2, r1, #5
 80009d2:	68bb      	ldr	r3, [r7, #8]
 80009d4:	075b      	lsls	r3, r3, #29
 80009d6:	d563      	bpl.n	8000aa0 <HAL_HCD_IRQHandler+0x1bc>
 80009d8:	2304      	movs	r3, #4
 80009da:	60bb      	str	r3, [r7, #8]
 80009dc:	68fb      	ldr	r3, [r7, #12]
 80009de:	f043 0302 	orr.w	r3, r3, #2
 80009e2:	60fb      	str	r3, [r7, #12]
 80009e4:	68bb      	ldr	r3, [r7, #8]
 80009e6:	05db      	lsls	r3, r3, #23
 80009e8:	d506      	bpl.n	80009f8 <HAL_HCD_IRQHandler+0x114>
 80009ea:	68fb      	ldr	r3, [r7, #12]
 80009ec:	f043 0302 	orr.w	r3, r3, #2
 80009f0:	60fb      	str	r3, [r7, #12]
 80009f2:	f44f 7380 	mov.w	r3, #256	; 0x100
 80009f6:	60bb      	str	r3, [r7, #8]
 80009f8:	68bb      	ldr	r3, [r7, #8]
 80009fa:	0598      	lsls	r0, r3, #22
 80009fc:	f100 80e2 	bmi.w	8000bc4 <HAL_HCD_IRQHandler+0x2e0>
 8000a00:	68bb      	ldr	r3, [r7, #8]
 8000a02:	07db      	lsls	r3, r3, #31
 8000a04:	f140 80b3 	bpl.w	8000b6e <HAL_HCD_IRQHandler+0x28a>
 8000a08:	6923      	ldr	r3, [r4, #16]
 8000a0a:	b153      	cbz	r3, 8000a22 <HAL_HCD_IRQHandler+0x13e>
 8000a0c:	eb01 0081 	add.w	r0, r1, r1, lsl #2
 8000a10:	693b      	ldr	r3, [r7, #16]
 8000a12:	eb04 00c0 	add.w	r0, r4, r0, lsl #3
 8000a16:	f3c3 0c12 	ubfx	ip, r3, #0, #19
 8000a1a:	6c83      	ldr	r3, [r0, #72]	; 0x48
 8000a1c:	eba3 030c 	sub.w	r3, r3, ip
 8000a20:	64c3      	str	r3, [r0, #76]	; 0x4c
 8000a22:	008b      	lsls	r3, r1, #2
 8000a24:	1858      	adds	r0, r3, r1
 8000a26:	eb04 00c0 	add.w	r0, r4, r0, lsl #3
 8000a2a:	f04f 0c00 	mov.w	ip, #0
 8000a2e:	f8c0 c058 	str.w	ip, [r0, #88]	; 0x58
 8000a32:	f880 905d 	strb.w	r9, [r0, #93]	; 0x5d
 8000a36:	f8c7 9008 	str.w	r9, [r7, #8]
 8000a3a:	f890 c03f 	ldrb.w	ip, [r0, #63]	; 0x3f
 8000a3e:	f01c 0ffd 	tst.w	ip, #253	; 0xfd
 8000a42:	f000 815d 	beq.w	8000d00 <HAL_HCD_IRQHandler+0x41c>
 8000a46:	f1bc 0f03 	cmp.w	ip, #3
 8000a4a:	f000 8250 	beq.w	8000eee <HAL_HCD_IRQHandler+0x60a>
 8000a4e:	440b      	add	r3, r1
 8000a50:	eb04 03c3 	add.w	r3, r4, r3, lsl #3
 8000a54:	f893 2050 	ldrb.w	r2, [r3, #80]	; 0x50
 8000a58:	f082 0201 	eor.w	r2, r2, #1
 8000a5c:	f883 2050 	strb.w	r2, [r3, #80]	; 0x50
 8000a60:	68a3      	ldr	r3, [r4, #8]
 8000a62:	6820      	ldr	r0, [r4, #0]
 8000a64:	3601      	adds	r6, #1
 8000a66:	429e      	cmp	r6, r3
 8000a68:	f105 0520 	add.w	r5, r5, #32
 8000a6c:	d262      	bcs.n	8000b34 <HAL_HCD_IRQHandler+0x250>
 8000a6e:	fa09 f206 	lsl.w	r2, r9, r6
 8000a72:	ea12 0f08 	tst.w	r2, r8
 8000a76:	d0f5      	beq.n	8000a64 <HAL_HCD_IRQHandler+0x180>
 8000a78:	682a      	ldr	r2, [r5, #0]
 8000a7a:	0412      	lsls	r2, r2, #16
 8000a7c:	b2f1      	uxtb	r1, r6
 8000a7e:	d4a3      	bmi.n	80009c8 <HAL_HCD_IRQHandler+0xe4>
 8000a80:	f500 6ca0 	add.w	ip, r0, #1280	; 0x500
 8000a84:	eb0c 1741 	add.w	r7, ip, r1, lsl #5
 8000a88:	ea4f 1e41 	mov.w	lr, r1, lsl #5
 8000a8c:	68ba      	ldr	r2, [r7, #8]
 8000a8e:	0752      	lsls	r2, r2, #29
 8000a90:	d50d      	bpl.n	8000aae <HAL_HCD_IRQHandler+0x1ca>
 8000a92:	2204      	movs	r2, #4
 8000a94:	60ba      	str	r2, [r7, #8]
 8000a96:	68fa      	ldr	r2, [r7, #12]
 8000a98:	f042 0202 	orr.w	r2, r2, #2
 8000a9c:	60fa      	str	r2, [r7, #12]
 8000a9e:	e7e1      	b.n	8000a64 <HAL_HCD_IRQHandler+0x180>
 8000aa0:	68bb      	ldr	r3, [r7, #8]
 8000aa2:	069b      	lsls	r3, r3, #26
 8000aa4:	f140 809b 	bpl.w	8000bde <HAL_HCD_IRQHandler+0x2fa>
 8000aa8:	2320      	movs	r3, #32
 8000aaa:	60bb      	str	r3, [r7, #8]
 8000aac:	e79a      	b.n	80009e4 <HAL_HCD_IRQHandler+0x100>
 8000aae:	68ba      	ldr	r2, [r7, #8]
 8000ab0:	f012 0220 	ands.w	r2, r2, #32
 8000ab4:	f000 80b2 	beq.w	8000c1c <HAL_HCD_IRQHandler+0x338>
 8000ab8:	eb01 0a81 	add.w	sl, r1, r1, lsl #2
 8000abc:	2220      	movs	r2, #32
 8000abe:	eb04 0aca 	add.w	sl, r4, sl, lsl #3
 8000ac2:	60ba      	str	r2, [r7, #8]
 8000ac4:	f89a 203d 	ldrb.w	r2, [sl, #61]	; 0x3d
 8000ac8:	2a01      	cmp	r2, #1
 8000aca:	d1cb      	bne.n	8000a64 <HAL_HCD_IRQHandler+0x180>
 8000acc:	2304      	movs	r3, #4
 8000ace:	f88a 305d 	strb.w	r3, [sl, #93]	; 0x5d
 8000ad2:	68fb      	ldr	r3, [r7, #12]
 8000ad4:	f043 0302 	orr.w	r3, r3, #2
 8000ad8:	60fb      	str	r3, [r7, #12]
 8000ada:	f001 f9c7 	bl	8001e6c <USB_HC_Halt>
 8000ade:	f88a b05c 	strb.w	fp, [sl, #92]	; 0x5c
 8000ae2:	68a3      	ldr	r3, [r4, #8]
 8000ae4:	6820      	ldr	r0, [r4, #0]
 8000ae6:	e7bd      	b.n	8000a64 <HAL_HCD_IRQHandler+0x180>
 8000ae8:	6826      	ldr	r6, [r4, #0]
 8000aea:	f8d6 3440 	ldr.w	r3, [r6, #1088]	; 0x440
 8000aee:	9302      	str	r3, [sp, #8]
 8000af0:	f8d6 3440 	ldr.w	r3, [r6, #1088]	; 0x440
 8000af4:	9303      	str	r3, [sp, #12]
 8000af6:	9b03      	ldr	r3, [sp, #12]
 8000af8:	f023 032e 	bic.w	r3, r3, #46	; 0x2e
 8000afc:	9303      	str	r3, [sp, #12]
 8000afe:	9b02      	ldr	r3, [sp, #8]
 8000b00:	0798      	lsls	r0, r3, #30
 8000b02:	d507      	bpl.n	8000b14 <HAL_HCD_IRQHandler+0x230>
 8000b04:	9b02      	ldr	r3, [sp, #8]
 8000b06:	07d9      	lsls	r1, r3, #31
 8000b08:	f100 8181 	bmi.w	8000e0e <HAL_HCD_IRQHandler+0x52a>
 8000b0c:	9b03      	ldr	r3, [sp, #12]
 8000b0e:	f043 0302 	orr.w	r3, r3, #2
 8000b12:	9303      	str	r3, [sp, #12]
 8000b14:	9b02      	ldr	r3, [sp, #8]
 8000b16:	071a      	lsls	r2, r3, #28
 8000b18:	f100 80d3 	bmi.w	8000cc2 <HAL_HCD_IRQHandler+0x3de>
 8000b1c:	6820      	ldr	r0, [r4, #0]
 8000b1e:	9b02      	ldr	r3, [sp, #8]
 8000b20:	069f      	lsls	r7, r3, #26
 8000b22:	d503      	bpl.n	8000b2c <HAL_HCD_IRQHandler+0x248>
 8000b24:	9b03      	ldr	r3, [sp, #12]
 8000b26:	f043 0320 	orr.w	r3, r3, #32
 8000b2a:	9303      	str	r3, [sp, #12]
 8000b2c:	9b03      	ldr	r3, [sp, #12]
 8000b2e:	f8c6 3440 	str.w	r3, [r6, #1088]	; 0x440
 8000b32:	e719      	b.n	8000968 <HAL_HCD_IRQHandler+0x84>
 8000b34:	f04f 7300 	mov.w	r3, #33554432	; 0x2000000
 8000b38:	6143      	str	r3, [r0, #20]
 8000b3a:	e721      	b.n	8000980 <HAL_HCD_IRQHandler+0x9c>
 8000b3c:	4620      	mov	r0, r4
 8000b3e:	f004 fdb3 	bl	80056a8 <HAL_HCD_SOF_Callback>
 8000b42:	6820      	ldr	r0, [r4, #0]
 8000b44:	2308      	movs	r3, #8
 8000b46:	6143      	str	r3, [r0, #20]
 8000b48:	e714      	b.n	8000974 <HAL_HCD_IRQHandler+0x90>
 8000b4a:	f8d5 3440 	ldr.w	r3, [r5, #1088]	; 0x440
 8000b4e:	f023 032e 	bic.w	r3, r3, #46	; 0x2e
 8000b52:	f8c5 3440 	str.w	r3, [r5, #1088]	; 0x440
 8000b56:	4620      	mov	r0, r4
 8000b58:	f004 fde8 	bl	800572c <HAL_HCD_Disconnect_Callback>
 8000b5c:	6820      	ldr	r0, [r4, #0]
 8000b5e:	2101      	movs	r1, #1
 8000b60:	f001 fd0a 	bl	8002578 <USB_InitFSLSPClkSel>
 8000b64:	6820      	ldr	r0, [r4, #0]
 8000b66:	f04f 5300 	mov.w	r3, #536870912	; 0x20000000
 8000b6a:	6143      	str	r3, [r0, #20]
 8000b6c:	e6f6      	b.n	800095c <HAL_HCD_IRQHandler+0x78>
 8000b6e:	68bb      	ldr	r3, [r7, #8]
 8000b70:	0798      	lsls	r0, r3, #30
 8000b72:	f140 8103 	bpl.w	8000d7c <HAL_HCD_IRQHandler+0x498>
 8000b76:	68fb      	ldr	r3, [r7, #12]
 8000b78:	eb01 0081 	add.w	r0, r1, r1, lsl #2
 8000b7c:	f023 0302 	bic.w	r3, r3, #2
 8000b80:	eb04 00c0 	add.w	r0, r4, r0, lsl #3
 8000b84:	60fb      	str	r3, [r7, #12]
 8000b86:	f890 c05d 	ldrb.w	ip, [r0, #93]	; 0x5d
 8000b8a:	f1bc 0f01 	cmp.w	ip, #1
 8000b8e:	ea4f 0381 	mov.w	r3, r1, lsl #2
 8000b92:	f000 8122 	beq.w	8000dda <HAL_HCD_IRQHandler+0x4f6>
 8000b96:	f1bc 0f05 	cmp.w	ip, #5
 8000b9a:	f000 811e 	beq.w	8000dda <HAL_HCD_IRQHandler+0x4f6>
 8000b9e:	f1bc 0f06 	cmp.w	ip, #6
 8000ba2:	f000 8175 	beq.w	8000e90 <HAL_HCD_IRQHandler+0x5ac>
 8000ba6:	f1bc 0f08 	cmp.w	ip, #8
 8000baa:	f000 8171 	beq.w	8000e90 <HAL_HCD_IRQHandler+0x5ac>
 8000bae:	f890 c05c 	ldrb.w	ip, [r0, #92]	; 0x5c
 8000bb2:	f8c7 b008 	str.w	fp, [r7, #8]
 8000bb6:	4620      	mov	r0, r4
 8000bb8:	4662      	mov	r2, ip
 8000bba:	f004 fdbb 	bl	8005734 <HAL_HCD_HC_NotifyURBChange_Callback>
 8000bbe:	68a3      	ldr	r3, [r4, #8]
 8000bc0:	6820      	ldr	r0, [r4, #0]
 8000bc2:	e74f      	b.n	8000a64 <HAL_HCD_IRQHandler+0x180>
 8000bc4:	68fb      	ldr	r3, [r7, #12]
 8000bc6:	6820      	ldr	r0, [r4, #0]
 8000bc8:	f043 0302 	orr.w	r3, r3, #2
 8000bcc:	60fb      	str	r3, [r7, #12]
 8000bce:	f001 f94d 	bl	8001e6c <USB_HC_Halt>
 8000bd2:	f44f 7300 	mov.w	r3, #512	; 0x200
 8000bd6:	60bb      	str	r3, [r7, #8]
 8000bd8:	68a3      	ldr	r3, [r4, #8]
 8000bda:	6820      	ldr	r0, [r4, #0]
 8000bdc:	e742      	b.n	8000a64 <HAL_HCD_IRQHandler+0x180>
 8000bde:	68bb      	ldr	r3, [r7, #8]
 8000be0:	071b      	lsls	r3, r3, #28
 8000be2:	f100 80fd 	bmi.w	8000de0 <HAL_HCD_IRQHandler+0x4fc>
 8000be6:	68bb      	ldr	r3, [r7, #8]
 8000be8:	055b      	lsls	r3, r3, #21
 8000bea:	f57f aefb 	bpl.w	80009e4 <HAL_HCD_IRQHandler+0x100>
 8000bee:	68fb      	ldr	r3, [r7, #12]
 8000bf0:	9201      	str	r2, [sp, #4]
 8000bf2:	f043 0302 	orr.w	r3, r3, #2
 8000bf6:	60fb      	str	r3, [r7, #12]
 8000bf8:	9100      	str	r1, [sp, #0]
 8000bfa:	f001 f937 	bl	8001e6c <USB_HC_Halt>
 8000bfe:	9900      	ldr	r1, [sp, #0]
 8000c00:	9a01      	ldr	r2, [sp, #4]
 8000c02:	eb01 0381 	add.w	r3, r1, r1, lsl #2
 8000c06:	eb04 03c3 	add.w	r3, r4, r3, lsl #3
 8000c0a:	2010      	movs	r0, #16
 8000c0c:	60b8      	str	r0, [r7, #8]
 8000c0e:	2008      	movs	r0, #8
 8000c10:	f883 005d 	strb.w	r0, [r3, #93]	; 0x5d
 8000c14:	f44f 6380 	mov.w	r3, #1024	; 0x400
 8000c18:	60bb      	str	r3, [r7, #8]
 8000c1a:	e6e3      	b.n	80009e4 <HAL_HCD_IRQHandler+0x100>
 8000c1c:	f8d7 a008 	ldr.w	sl, [r7, #8]
 8000c20:	f01a 0f40 	tst.w	sl, #64	; 0x40
 8000c24:	f040 80fb 	bne.w	8000e1e <HAL_HCD_IRQHandler+0x53a>
 8000c28:	68ba      	ldr	r2, [r7, #8]
 8000c2a:	f412 7200 	ands.w	r2, r2, #512	; 0x200
 8000c2e:	f040 8109 	bne.w	8000e44 <HAL_HCD_IRQHandler+0x560>
 8000c32:	f8d7 a008 	ldr.w	sl, [r7, #8]
 8000c36:	f01a 0f01 	tst.w	sl, #1
 8000c3a:	f040 8145 	bne.w	8000ec8 <HAL_HCD_IRQHandler+0x5e4>
 8000c3e:	68ba      	ldr	r2, [r7, #8]
 8000c40:	f012 0208 	ands.w	r2, r2, #8
 8000c44:	f040 8164 	bne.w	8000f10 <HAL_HCD_IRQHandler+0x62c>
 8000c48:	f8d7 a008 	ldr.w	sl, [r7, #8]
 8000c4c:	f01a 0f10 	tst.w	sl, #16
 8000c50:	f040 8179 	bne.w	8000f46 <HAL_HCD_IRQHandler+0x662>
 8000c54:	68ba      	ldr	r2, [r7, #8]
 8000c56:	0612      	lsls	r2, r2, #24
 8000c58:	f100 8195 	bmi.w	8000f86 <HAL_HCD_IRQHandler+0x6a2>
 8000c5c:	68ba      	ldr	r2, [r7, #8]
 8000c5e:	f412 6280 	ands.w	r2, r2, #1024	; 0x400
 8000c62:	f040 81a3 	bne.w	8000fac <HAL_HCD_IRQHandler+0x6c8>
 8000c66:	f8d7 a008 	ldr.w	sl, [r7, #8]
 8000c6a:	f01a 0f02 	tst.w	sl, #2
 8000c6e:	f43f aef9 	beq.w	8000a64 <HAL_HCD_IRQHandler+0x180>
 8000c72:	68fb      	ldr	r3, [r7, #12]
 8000c74:	f023 0302 	bic.w	r3, r3, #2
 8000c78:	60fb      	str	r3, [r7, #12]
 8000c7a:	2328      	movs	r3, #40	; 0x28
 8000c7c:	fb03 4301 	mla	r3, r3, r1, r4
 8000c80:	f893 005d 	ldrb.w	r0, [r3, #93]	; 0x5d
 8000c84:	2801      	cmp	r0, #1
 8000c86:	f000 81a7 	beq.w	8000fd8 <HAL_HCD_IRQHandler+0x6f4>
 8000c8a:	2803      	cmp	r0, #3
 8000c8c:	f000 81b4 	beq.w	8000ff8 <HAL_HCD_IRQHandler+0x714>
 8000c90:	2804      	cmp	r0, #4
 8000c92:	f000 81af 	beq.w	8000ff4 <HAL_HCD_IRQHandler+0x710>
 8000c96:	2805      	cmp	r0, #5
 8000c98:	f000 81c8 	beq.w	800102c <HAL_HCD_IRQHandler+0x748>
 8000c9c:	2806      	cmp	r0, #6
 8000c9e:	f000 81ae 	beq.w	8000ffe <HAL_HCD_IRQHandler+0x71a>
 8000ca2:	2808      	cmp	r0, #8
 8000ca4:	f000 81ab 	beq.w	8000ffe <HAL_HCD_IRQHandler+0x71a>
 8000ca8:	2328      	movs	r3, #40	; 0x28
 8000caa:	fb03 4301 	mla	r3, r3, r1, r4
 8000cae:	f8c7 b008 	str.w	fp, [r7, #8]
 8000cb2:	f893 205c 	ldrb.w	r2, [r3, #92]	; 0x5c
 8000cb6:	4620      	mov	r0, r4
 8000cb8:	f004 fd3c 	bl	8005734 <HAL_HCD_HC_NotifyURBChange_Callback>
 8000cbc:	68a3      	ldr	r3, [r4, #8]
 8000cbe:	6820      	ldr	r0, [r4, #0]
 8000cc0:	e6d0      	b.n	8000a64 <HAL_HCD_IRQHandler+0x180>
 8000cc2:	9b03      	ldr	r3, [sp, #12]
 8000cc4:	f043 0308 	orr.w	r3, r3, #8
 8000cc8:	9303      	str	r3, [sp, #12]
 8000cca:	9b02      	ldr	r3, [sp, #8]
 8000ccc:	075b      	lsls	r3, r3, #29
 8000cce:	d57c      	bpl.n	8000dca <HAL_HCD_IRQHandler+0x4e6>
 8000cd0:	69a1      	ldr	r1, [r4, #24]
 8000cd2:	2902      	cmp	r1, #2
 8000cd4:	f000 80d1 	beq.w	8000e7a <HAL_HCD_IRQHandler+0x596>
 8000cd8:	68e3      	ldr	r3, [r4, #12]
 8000cda:	2b03      	cmp	r3, #3
 8000cdc:	bf04      	itt	eq
 8000cde:	f64e 2260 	movweq	r2, #60000	; 0xea60
 8000ce2:	f8c6 2404 	streq.w	r2, [r6, #1028]	; 0x404
 8000ce6:	4620      	mov	r0, r4
 8000ce8:	f004 fd1c 	bl	8005724 <HAL_HCD_Connect_Callback>
 8000cec:	68e3      	ldr	r3, [r4, #12]
 8000cee:	6820      	ldr	r0, [r4, #0]
 8000cf0:	2b00      	cmp	r3, #0
 8000cf2:	f47f af14 	bne.w	8000b1e <HAL_HCD_IRQHandler+0x23a>
 8000cf6:	6983      	ldr	r3, [r0, #24]
 8000cf8:	f043 5300 	orr.w	r3, r3, #536870912	; 0x20000000
 8000cfc:	6183      	str	r3, [r0, #24]
 8000cfe:	e70e      	b.n	8000b1e <HAL_HCD_IRQHandler+0x23a>
 8000d00:	68fa      	ldr	r2, [r7, #12]
 8000d02:	6820      	ldr	r0, [r4, #0]
 8000d04:	9301      	str	r3, [sp, #4]
 8000d06:	f042 0202 	orr.w	r2, r2, #2
 8000d0a:	60fa      	str	r2, [r7, #12]
 8000d0c:	9100      	str	r1, [sp, #0]
 8000d0e:	f001 f8ad 	bl	8001e6c <USB_HC_Halt>
 8000d12:	2210      	movs	r2, #16
 8000d14:	e9dd 1300 	ldrd	r1, r3, [sp]
 8000d18:	60ba      	str	r2, [r7, #8]
 8000d1a:	e698      	b.n	8000a4e <HAL_HCD_IRQHandler+0x16a>
 8000d1c:	f3c6 180a 	ubfx	r8, r6, #4, #11
 8000d20:	f1b8 0f00 	cmp.w	r8, #0
 8000d24:	f43f ae3b 	beq.w	800099e <HAL_HCD_IRQHandler+0xba>
 8000d28:	f006 060f 	and.w	r6, r6, #15
 8000d2c:	eb06 0786 	add.w	r7, r6, r6, lsl #2
 8000d30:	eb04 07c7 	add.w	r7, r4, r7, lsl #3
 8000d34:	6c79      	ldr	r1, [r7, #68]	; 0x44
 8000d36:	2900      	cmp	r1, #0
 8000d38:	f43f ae31 	beq.w	800099e <HAL_HCD_IRQHandler+0xba>
 8000d3c:	4642      	mov	r2, r8
 8000d3e:	4628      	mov	r0, r5
 8000d40:	f001 fb6c 	bl	800241c <USB_ReadPacket>
 8000d44:	6c7a      	ldr	r2, [r7, #68]	; 0x44
 8000d46:	f505 63a0 	add.w	r3, r5, #1280	; 0x500
 8000d4a:	eb03 1346 	add.w	r3, r3, r6, lsl #5
 8000d4e:	4442      	add	r2, r8
 8000d50:	6919      	ldr	r1, [r3, #16]
 8000d52:	647a      	str	r2, [r7, #68]	; 0x44
 8000d54:	6cfa      	ldr	r2, [r7, #76]	; 0x4c
 8000d56:	4442      	add	r2, r8
 8000d58:	64fa      	str	r2, [r7, #76]	; 0x4c
 8000d5a:	4ab8      	ldr	r2, [pc, #736]	; (800103c <HAL_HCD_IRQHandler+0x758>)
 8000d5c:	400a      	ands	r2, r1
 8000d5e:	b15a      	cbz	r2, 8000d78 <HAL_HCD_IRQHandler+0x494>
 8000d60:	681a      	ldr	r2, [r3, #0]
 8000d62:	f022 4280 	bic.w	r2, r2, #1073741824	; 0x40000000
 8000d66:	f042 4200 	orr.w	r2, r2, #2147483648	; 0x80000000
 8000d6a:	601a      	str	r2, [r3, #0]
 8000d6c:	f897 3050 	ldrb.w	r3, [r7, #80]	; 0x50
 8000d70:	f083 0301 	eor.w	r3, r3, #1
 8000d74:	f887 3050 	strb.w	r3, [r7, #80]	; 0x50
 8000d78:	6825      	ldr	r5, [r4, #0]
 8000d7a:	e610      	b.n	800099e <HAL_HCD_IRQHandler+0xba>
 8000d7c:	68bb      	ldr	r3, [r7, #8]
 8000d7e:	061b      	lsls	r3, r3, #24
 8000d80:	d465      	bmi.n	8000e4e <HAL_HCD_IRQHandler+0x56a>
 8000d82:	68bb      	ldr	r3, [r7, #8]
 8000d84:	06d8      	lsls	r0, r3, #27
 8000d86:	d599      	bpl.n	8000cbc <HAL_HCD_IRQHandler+0x3d8>
 8000d88:	eb01 0381 	add.w	r3, r1, r1, lsl #2
 8000d8c:	eb04 03c3 	add.w	r3, r4, r3, lsl #3
 8000d90:	f893 003f 	ldrb.w	r0, [r3, #63]	; 0x3f
 8000d94:	2803      	cmp	r0, #3
 8000d96:	ea4f 0381 	mov.w	r3, r1, lsl #2
 8000d9a:	f000 80e8 	beq.w	8000f6e <HAL_HCD_IRQHandler+0x68a>
 8000d9e:	f010 0ffd 	tst.w	r0, #253	; 0xfd
 8000da2:	d107      	bne.n	8000db4 <HAL_HCD_IRQHandler+0x4d0>
 8000da4:	f852 000a 	ldr.w	r0, [r2, sl]
 8000da8:	f020 4080 	bic.w	r0, r0, #1073741824	; 0x40000000
 8000dac:	f040 4000 	orr.w	r0, r0, #2147483648	; 0x80000000
 8000db0:	f842 000a 	str.w	r0, [r2, sl]
 8000db4:	440b      	add	r3, r1
 8000db6:	eb04 03c3 	add.w	r3, r4, r3, lsl #3
 8000dba:	2203      	movs	r2, #3
 8000dbc:	f883 205d 	strb.w	r2, [r3, #93]	; 0x5d
 8000dc0:	2310      	movs	r3, #16
 8000dc2:	60bb      	str	r3, [r7, #8]
 8000dc4:	68a3      	ldr	r3, [r4, #8]
 8000dc6:	6820      	ldr	r0, [r4, #0]
 8000dc8:	e64c      	b.n	8000a64 <HAL_HCD_IRQHandler+0x180>
 8000dca:	f8d6 3440 	ldr.w	r3, [r6, #1088]	; 0x440
 8000dce:	6820      	ldr	r0, [r4, #0]
 8000dd0:	f023 032e 	bic.w	r3, r3, #46	; 0x2e
 8000dd4:	f8c6 3440 	str.w	r3, [r6, #1088]	; 0x440
 8000dd8:	e78d      	b.n	8000cf6 <HAL_HCD_IRQHandler+0x412>
 8000dda:	f880 c05c 	strb.w	ip, [r0, #92]	; 0x5c
 8000dde:	e6e8      	b.n	8000bb2 <HAL_HCD_IRQHandler+0x2ce>
 8000de0:	68fb      	ldr	r3, [r7, #12]
 8000de2:	9201      	str	r2, [sp, #4]
 8000de4:	f043 0302 	orr.w	r3, r3, #2
 8000de8:	60fb      	str	r3, [r7, #12]
 8000dea:	eb01 0381 	add.w	r3, r1, r1, lsl #2
 8000dee:	eb04 03c3 	add.w	r3, r4, r3, lsl #3
 8000df2:	f04f 0c05 	mov.w	ip, #5
 8000df6:	f883 c05d 	strb.w	ip, [r3, #93]	; 0x5d
 8000dfa:	2310      	movs	r3, #16
 8000dfc:	60bb      	str	r3, [r7, #8]
 8000dfe:	2308      	movs	r3, #8
 8000e00:	60bb      	str	r3, [r7, #8]
 8000e02:	9100      	str	r1, [sp, #0]
 8000e04:	f001 f832 	bl	8001e6c <USB_HC_Halt>
 8000e08:	e9dd 1200 	ldrd	r1, r2, [sp]
 8000e0c:	e5ea      	b.n	80009e4 <HAL_HCD_IRQHandler+0x100>
 8000e0e:	69b3      	ldr	r3, [r6, #24]
 8000e10:	f023 5300 	bic.w	r3, r3, #536870912	; 0x20000000
 8000e14:	4620      	mov	r0, r4
 8000e16:	61b3      	str	r3, [r6, #24]
 8000e18:	f004 fc84 	bl	8005724 <HAL_HCD_Connect_Callback>
 8000e1c:	e676      	b.n	8000b0c <HAL_HCD_IRQHandler+0x228>
 8000e1e:	eb01 0381 	add.w	r3, r1, r1, lsl #2
 8000e22:	eb04 03c3 	add.w	r3, r4, r3, lsl #3
 8000e26:	659a      	str	r2, [r3, #88]	; 0x58
 8000e28:	2204      	movs	r2, #4
 8000e2a:	f883 205d 	strb.w	r2, [r3, #93]	; 0x5d
 8000e2e:	68fb      	ldr	r3, [r7, #12]
 8000e30:	f043 0302 	orr.w	r3, r3, #2
 8000e34:	60fb      	str	r3, [r7, #12]
 8000e36:	f001 f819 	bl	8001e6c <USB_HC_Halt>
 8000e3a:	2340      	movs	r3, #64	; 0x40
 8000e3c:	60bb      	str	r3, [r7, #8]
 8000e3e:	68a3      	ldr	r3, [r4, #8]
 8000e40:	6820      	ldr	r0, [r4, #0]
 8000e42:	e60f      	b.n	8000a64 <HAL_HCD_IRQHandler+0x180>
 8000e44:	68fb      	ldr	r3, [r7, #12]
 8000e46:	f043 0302 	orr.w	r3, r3, #2
 8000e4a:	60fb      	str	r3, [r7, #12]
 8000e4c:	e6bf      	b.n	8000bce <HAL_HCD_IRQHandler+0x2ea>
 8000e4e:	68fa      	ldr	r2, [r7, #12]
 8000e50:	eb01 0381 	add.w	r3, r1, r1, lsl #2
 8000e54:	eb04 03c3 	add.w	r3, r4, r3, lsl #3
 8000e58:	f042 0202 	orr.w	r2, r2, #2
 8000e5c:	60fa      	str	r2, [r7, #12]
 8000e5e:	6d9a      	ldr	r2, [r3, #88]	; 0x58
 8000e60:	3201      	adds	r2, #1
 8000e62:	659a      	str	r2, [r3, #88]	; 0x58
 8000e64:	2206      	movs	r2, #6
 8000e66:	f883 205d 	strb.w	r2, [r3, #93]	; 0x5d
 8000e6a:	6820      	ldr	r0, [r4, #0]
 8000e6c:	f000 fffe 	bl	8001e6c <USB_HC_Halt>
 8000e70:	2380      	movs	r3, #128	; 0x80
 8000e72:	60bb      	str	r3, [r7, #8]
 8000e74:	68a3      	ldr	r3, [r4, #8]
 8000e76:	6820      	ldr	r0, [r4, #0]
 8000e78:	e5f4      	b.n	8000a64 <HAL_HCD_IRQHandler+0x180>
 8000e7a:	9b02      	ldr	r3, [sp, #8]
 8000e7c:	6820      	ldr	r0, [r4, #0]
 8000e7e:	f403 23c0 	and.w	r3, r3, #393216	; 0x60000
 8000e82:	f5b3 2f80 	cmp.w	r3, #262144	; 0x40000
 8000e86:	bf18      	it	ne
 8000e88:	2101      	movne	r1, #1
 8000e8a:	f001 fb75 	bl	8002578 <USB_InitFSLSPClkSel>
 8000e8e:	e72a      	b.n	8000ce6 <HAL_HCD_IRQHandler+0x402>
 8000e90:	1858      	adds	r0, r3, r1
 8000e92:	eb04 00c0 	add.w	r0, r4, r0, lsl #3
 8000e96:	f8d0 c058 	ldr.w	ip, [r0, #88]	; 0x58
 8000e9a:	f1bc 0f03 	cmp.w	ip, #3
 8000e9e:	d84b      	bhi.n	8000f38 <HAL_HCD_IRQHandler+0x654>
 8000ea0:	f10c 0c01 	add.w	ip, ip, #1
 8000ea4:	f8c0 c058 	str.w	ip, [r0, #88]	; 0x58
 8000ea8:	f04f 0c02 	mov.w	ip, #2
 8000eac:	440b      	add	r3, r1
 8000eae:	eb04 03c3 	add.w	r3, r4, r3, lsl #3
 8000eb2:	f883 c05c 	strb.w	ip, [r3, #92]	; 0x5c
 8000eb6:	f852 300a 	ldr.w	r3, [r2, sl]
 8000eba:	f023 4380 	bic.w	r3, r3, #1073741824	; 0x40000000
 8000ebe:	f043 4300 	orr.w	r3, r3, #2147483648	; 0x80000000
 8000ec2:	f842 300a 	str.w	r3, [r2, sl]
 8000ec6:	e674      	b.n	8000bb2 <HAL_HCD_IRQHandler+0x2ce>
 8000ec8:	68fb      	ldr	r3, [r7, #12]
 8000eca:	eb01 0a81 	add.w	sl, r1, r1, lsl #2
 8000ece:	eb04 0aca 	add.w	sl, r4, sl, lsl #3
 8000ed2:	f043 0302 	orr.w	r3, r3, #2
 8000ed6:	f8ca 2058 	str.w	r2, [sl, #88]	; 0x58
 8000eda:	60fb      	str	r3, [r7, #12]
 8000edc:	f000 ffc6 	bl	8001e6c <USB_HC_Halt>
 8000ee0:	f8c7 9008 	str.w	r9, [r7, #8]
 8000ee4:	f88a 905d 	strb.w	r9, [sl, #93]	; 0x5d
 8000ee8:	68a3      	ldr	r3, [r4, #8]
 8000eea:	6820      	ldr	r0, [r4, #0]
 8000eec:	e5ba      	b.n	8000a64 <HAL_HCD_IRQHandler+0x180>
 8000eee:	f852 700a 	ldr.w	r7, [r2, sl]
 8000ef2:	9301      	str	r3, [sp, #4]
 8000ef4:	f047 5700 	orr.w	r7, r7, #536870912	; 0x20000000
 8000ef8:	f842 700a 	str.w	r7, [r2, sl]
 8000efc:	f880 905c 	strb.w	r9, [r0, #92]	; 0x5c
 8000f00:	2201      	movs	r2, #1
 8000f02:	4620      	mov	r0, r4
 8000f04:	9100      	str	r1, [sp, #0]
 8000f06:	f004 fc15 	bl	8005734 <HAL_HCD_HC_NotifyURBChange_Callback>
 8000f0a:	e9dd 1300 	ldrd	r1, r3, [sp]
 8000f0e:	e59e      	b.n	8000a4e <HAL_HCD_IRQHandler+0x16a>
 8000f10:	2308      	movs	r3, #8
 8000f12:	60bb      	str	r3, [r7, #8]
 8000f14:	68fb      	ldr	r3, [r7, #12]
 8000f16:	9100      	str	r1, [sp, #0]
 8000f18:	f043 0302 	orr.w	r3, r3, #2
 8000f1c:	60fb      	str	r3, [r7, #12]
 8000f1e:	f000 ffa5 	bl	8001e6c <USB_HC_Halt>
 8000f22:	9900      	ldr	r1, [sp, #0]
 8000f24:	eb01 0181 	add.w	r1, r1, r1, lsl #2
 8000f28:	eb04 03c1 	add.w	r3, r4, r1, lsl #3
 8000f2c:	2205      	movs	r2, #5
 8000f2e:	f883 205d 	strb.w	r2, [r3, #93]	; 0x5d
 8000f32:	68a3      	ldr	r3, [r4, #8]
 8000f34:	6820      	ldr	r0, [r4, #0]
 8000f36:	e595      	b.n	8000a64 <HAL_HCD_IRQHandler+0x180>
 8000f38:	f04f 0c00 	mov.w	ip, #0
 8000f3c:	f8c0 c058 	str.w	ip, [r0, #88]	; 0x58
 8000f40:	f04f 0c04 	mov.w	ip, #4
 8000f44:	e7b2      	b.n	8000eac <HAL_HCD_IRQHandler+0x5c8>
 8000f46:	68fb      	ldr	r3, [r7, #12]
 8000f48:	eb01 0a81 	add.w	sl, r1, r1, lsl #2
 8000f4c:	eb04 0aca 	add.w	sl, r4, sl, lsl #3
 8000f50:	f043 0302 	orr.w	r3, r3, #2
 8000f54:	f8ca 2058 	str.w	r2, [sl, #88]	; 0x58
 8000f58:	60fb      	str	r3, [r7, #12]
 8000f5a:	f000 ff87 	bl	8001e6c <USB_HC_Halt>
 8000f5e:	2303      	movs	r3, #3
 8000f60:	f88a 305d 	strb.w	r3, [sl, #93]	; 0x5d
 8000f64:	2310      	movs	r3, #16
 8000f66:	60bb      	str	r3, [r7, #8]
 8000f68:	68a3      	ldr	r3, [r4, #8]
 8000f6a:	6820      	ldr	r0, [r4, #0]
 8000f6c:	e57a      	b.n	8000a64 <HAL_HCD_IRQHandler+0x180>
 8000f6e:	68fa      	ldr	r2, [r7, #12]
 8000f70:	6820      	ldr	r0, [r4, #0]
 8000f72:	9301      	str	r3, [sp, #4]
 8000f74:	f042 0202 	orr.w	r2, r2, #2
 8000f78:	60fa      	str	r2, [r7, #12]
 8000f7a:	9100      	str	r1, [sp, #0]
 8000f7c:	f000 ff76 	bl	8001e6c <USB_HC_Halt>
 8000f80:	e9dd 1300 	ldrd	r1, r3, [sp]
 8000f84:	e716      	b.n	8000db4 <HAL_HCD_IRQHandler+0x4d0>
 8000f86:	68fb      	ldr	r3, [r7, #12]
 8000f88:	9100      	str	r1, [sp, #0]
 8000f8a:	f043 0302 	orr.w	r3, r3, #2
 8000f8e:	60fb      	str	r3, [r7, #12]
 8000f90:	f000 ff6c 	bl	8001e6c <USB_HC_Halt>
 8000f94:	9900      	ldr	r1, [sp, #0]
 8000f96:	2328      	movs	r3, #40	; 0x28
 8000f98:	fb03 4101 	mla	r1, r3, r1, r4
 8000f9c:	2306      	movs	r3, #6
 8000f9e:	f881 305d 	strb.w	r3, [r1, #93]	; 0x5d
 8000fa2:	2380      	movs	r3, #128	; 0x80
 8000fa4:	60bb      	str	r3, [r7, #8]
 8000fa6:	68a3      	ldr	r3, [r4, #8]
 8000fa8:	6820      	ldr	r0, [r4, #0]
 8000faa:	e55b      	b.n	8000a64 <HAL_HCD_IRQHandler+0x180>
 8000fac:	68fb      	ldr	r3, [r7, #12]
 8000fae:	9100      	str	r1, [sp, #0]
 8000fb0:	f043 0302 	orr.w	r3, r3, #2
 8000fb4:	60fb      	str	r3, [r7, #12]
 8000fb6:	f000 ff59 	bl	8001e6c <USB_HC_Halt>
 8000fba:	9900      	ldr	r1, [sp, #0]
 8000fbc:	2328      	movs	r3, #40	; 0x28
 8000fbe:	fb03 4101 	mla	r1, r3, r1, r4
 8000fc2:	2310      	movs	r3, #16
 8000fc4:	60bb      	str	r3, [r7, #8]
 8000fc6:	f44f 6380 	mov.w	r3, #1024	; 0x400
 8000fca:	60bb      	str	r3, [r7, #8]
 8000fcc:	2308      	movs	r3, #8
 8000fce:	f881 305d 	strb.w	r3, [r1, #93]	; 0x5d
 8000fd2:	68a3      	ldr	r3, [r4, #8]
 8000fd4:	6820      	ldr	r0, [r4, #0]
 8000fd6:	e545      	b.n	8000a64 <HAL_HCD_IRQHandler+0x180>
 8000fd8:	f893 203f 	ldrb.w	r2, [r3, #63]	; 0x3f
 8000fdc:	f883 005c 	strb.w	r0, [r3, #92]	; 0x5c
 8000fe0:	2a02      	cmp	r2, #2
 8000fe2:	f47f ae61 	bne.w	8000ca8 <HAL_HCD_IRQHandler+0x3c4>
 8000fe6:	f893 2051 	ldrb.w	r2, [r3, #81]	; 0x51
 8000fea:	f082 0201 	eor.w	r2, r2, #1
 8000fee:	f883 2051 	strb.w	r2, [r3, #81]	; 0x51
 8000ff2:	e659      	b.n	8000ca8 <HAL_HCD_IRQHandler+0x3c4>
 8000ff4:	f883 203d 	strb.w	r2, [r3, #61]	; 0x3d
 8000ff8:	f883 b05c 	strb.w	fp, [r3, #92]	; 0x5c
 8000ffc:	e654      	b.n	8000ca8 <HAL_HCD_IRQHandler+0x3c4>
 8000ffe:	2328      	movs	r3, #40	; 0x28
 8001000:	fb03 4201 	mla	r2, r3, r1, r4
 8001004:	6d93      	ldr	r3, [r2, #88]	; 0x58
 8001006:	2b03      	cmp	r3, #3
 8001008:	d813      	bhi.n	8001032 <HAL_HCD_IRQHandler+0x74e>
 800100a:	3301      	adds	r3, #1
 800100c:	6593      	str	r3, [r2, #88]	; 0x58
 800100e:	2302      	movs	r3, #2
 8001010:	2228      	movs	r2, #40	; 0x28
 8001012:	fb02 4201 	mla	r2, r2, r1, r4
 8001016:	f882 305c 	strb.w	r3, [r2, #92]	; 0x5c
 800101a:	f85c 300e 	ldr.w	r3, [ip, lr]
 800101e:	f023 4380 	bic.w	r3, r3, #1073741824	; 0x40000000
 8001022:	f043 4300 	orr.w	r3, r3, #2147483648	; 0x80000000
 8001026:	f84c 300e 	str.w	r3, [ip, lr]
 800102a:	e63d      	b.n	8000ca8 <HAL_HCD_IRQHandler+0x3c4>
 800102c:	f883 005c 	strb.w	r0, [r3, #92]	; 0x5c
 8001030:	e63a      	b.n	8000ca8 <HAL_HCD_IRQHandler+0x3c4>
 8001032:	2300      	movs	r3, #0
 8001034:	6593      	str	r3, [r2, #88]	; 0x58
 8001036:	2304      	movs	r3, #4
 8001038:	e7ea      	b.n	8001010 <HAL_HCD_IRQHandler+0x72c>
 800103a:	bf00      	nop
 800103c:	1ff80000 	.word	0x1ff80000

08001040 <HAL_HCD_Start>:
 8001040:	b538      	push	{r3, r4, r5, lr}
 8001042:	f890 3290 	ldrb.w	r3, [r0, #656]	; 0x290
 8001046:	2b01      	cmp	r3, #1
 8001048:	d00e      	beq.n	8001068 <HAL_HCD_Start+0x28>
 800104a:	4604      	mov	r4, r0
 800104c:	2501      	movs	r5, #1
 800104e:	6800      	ldr	r0, [r0, #0]
 8001050:	f884 5290 	strb.w	r5, [r4, #656]	; 0x290
 8001054:	f001 f97e 	bl	8002354 <USB_EnableGlobalInt>
 8001058:	6820      	ldr	r0, [r4, #0]
 800105a:	4629      	mov	r1, r5
 800105c:	f001 fac4 	bl	80025e8 <USB_DriveVbus>
 8001060:	2000      	movs	r0, #0
 8001062:	f884 0290 	strb.w	r0, [r4, #656]	; 0x290
 8001066:	bd38      	pop	{r3, r4, r5, pc}
 8001068:	2002      	movs	r0, #2
 800106a:	bd38      	pop	{r3, r4, r5, pc}

0800106c <HAL_HCD_Stop>:
 800106c:	f890 3290 	ldrb.w	r3, [r0, #656]	; 0x290
 8001070:	2b01      	cmp	r3, #1
 8001072:	d00b      	beq.n	800108c <HAL_HCD_Stop+0x20>
 8001074:	b510      	push	{r4, lr}
 8001076:	4604      	mov	r4, r0
 8001078:	2301      	movs	r3, #1
 800107a:	6800      	ldr	r0, [r0, #0]
 800107c:	f884 3290 	strb.w	r3, [r4, #656]	; 0x290
 8001080:	f001 f828 	bl	80020d4 <USB_StopHost>
 8001084:	2000      	movs	r0, #0
 8001086:	f884 0290 	strb.w	r0, [r4, #656]	; 0x290
 800108a:	bd10      	pop	{r4, pc}
 800108c:	2002      	movs	r0, #2
 800108e:	4770      	bx	lr

08001090 <HAL_HCD_StopHC>:
 8001090:	f890 3290 	ldrb.w	r3, [r0, #656]	; 0x290
 8001094:	2b01      	cmp	r3, #1
 8001096:	d00b      	beq.n	80010b0 <HAL_HCD_StopHC+0x20>
 8001098:	b510      	push	{r4, lr}
 800109a:	4604      	mov	r4, r0
 800109c:	2301      	movs	r3, #1
 800109e:	6800      	ldr	r0, [r0, #0]
 80010a0:	f884 3290 	strb.w	r3, [r4, #656]	; 0x290
 80010a4:	f001 f89a 	bl	80021dc <USB_StopHostChannel>
 80010a8:	2000      	movs	r0, #0
 80010aa:	f884 0290 	strb.w	r0, [r4, #656]	; 0x290
 80010ae:	bd10      	pop	{r4, pc}
 80010b0:	2002      	movs	r0, #2
 80010b2:	4770      	bx	lr

080010b4 <HAL_HCD_ResetPort>:
 80010b4:	6800      	ldr	r0, [r0, #0]
 80010b6:	f001 ba7d 	b.w	80025b4 <USB_ResetPort>
 80010ba:	bf00      	nop

080010bc <HAL_HCD_HC_GetURBState>:
 80010bc:	eb01 0181 	add.w	r1, r1, r1, lsl #2
 80010c0:	eb00 01c1 	add.w	r1, r0, r1, lsl #3
 80010c4:	f891 005c 	ldrb.w	r0, [r1, #92]	; 0x5c
 80010c8:	4770      	bx	lr
 80010ca:	bf00      	nop

080010cc <HAL_HCD_GetCurrentFrame>:
 80010cc:	6800      	ldr	r0, [r0, #0]
 80010ce:	f001 bab7 	b.w	8002640 <USB_GetCurrentFrame>
 80010d2:	bf00      	nop

080010d4 <HAL_HCD_GetCurrentSpeed>:
 80010d4:	6800      	ldr	r0, [r0, #0]
 80010d6:	f001 baa9 	b.w	800262c <USB_GetHostSpeed>
 80010da:	bf00      	nop

080010dc <HAL_RCC_OscConfig>:
 80010dc:	b5f0      	push	{r4, r5, r6, r7, lr}
 80010de:	6803      	ldr	r3, [r0, #0]
 80010e0:	07de      	lsls	r6, r3, #31
 80010e2:	b083      	sub	sp, #12
 80010e4:	4604      	mov	r4, r0
 80010e6:	d538      	bpl.n	800115a <HAL_RCC_OscConfig+0x7e>
 80010e8:	49a1      	ldr	r1, [pc, #644]	; (8001370 <HAL_RCC_OscConfig+0x294>)
 80010ea:	688a      	ldr	r2, [r1, #8]
 80010ec:	f002 020c 	and.w	r2, r2, #12
 80010f0:	2a04      	cmp	r2, #4
 80010f2:	f000 80f0 	beq.w	80012d6 <HAL_RCC_OscConfig+0x1fa>
 80010f6:	688a      	ldr	r2, [r1, #8]
 80010f8:	f002 020c 	and.w	r2, r2, #12
 80010fc:	2a08      	cmp	r2, #8
 80010fe:	d103      	bne.n	8001108 <HAL_RCC_OscConfig+0x2c>
 8001100:	684a      	ldr	r2, [r1, #4]
 8001102:	0255      	lsls	r5, r2, #9
 8001104:	f100 80e7 	bmi.w	80012d6 <HAL_RCC_OscConfig+0x1fa>
 8001108:	4d99      	ldr	r5, [pc, #612]	; (8001370 <HAL_RCC_OscConfig+0x294>)
 800110a:	2300      	movs	r3, #0
 800110c:	70ab      	strb	r3, [r5, #2]
 800110e:	f7ff f8ef 	bl	80002f0 <HAL_GetTick>
 8001112:	f241 3788 	movw	r7, #5000	; 0x1388
 8001116:	4606      	mov	r6, r0
 8001118:	e005      	b.n	8001126 <HAL_RCC_OscConfig+0x4a>
 800111a:	f7ff f8e9 	bl	80002f0 <HAL_GetTick>
 800111e:	1b83      	subs	r3, r0, r6
 8001120:	42bb      	cmp	r3, r7
 8001122:	f200 80c7 	bhi.w	80012b4 <HAL_RCC_OscConfig+0x1d8>
 8001126:	682b      	ldr	r3, [r5, #0]
 8001128:	0399      	lsls	r1, r3, #14
 800112a:	d4f6      	bmi.n	800111a <HAL_RCC_OscConfig+0x3e>
 800112c:	7923      	ldrb	r3, [r4, #4]
 800112e:	70ab      	strb	r3, [r5, #2]
 8001130:	6863      	ldr	r3, [r4, #4]
 8001132:	2b00      	cmp	r3, #0
 8001134:	f000 810c 	beq.w	8001350 <HAL_RCC_OscConfig+0x274>
 8001138:	f7ff f8da 	bl	80002f0 <HAL_GetTick>
 800113c:	4e8c      	ldr	r6, [pc, #560]	; (8001370 <HAL_RCC_OscConfig+0x294>)
 800113e:	4605      	mov	r5, r0
 8001140:	f241 3788 	movw	r7, #5000	; 0x1388
 8001144:	e005      	b.n	8001152 <HAL_RCC_OscConfig+0x76>
 8001146:	f7ff f8d3 	bl	80002f0 <HAL_GetTick>
 800114a:	1b40      	subs	r0, r0, r5
 800114c:	42b8      	cmp	r0, r7
 800114e:	f200 80b1 	bhi.w	80012b4 <HAL_RCC_OscConfig+0x1d8>
 8001152:	6833      	ldr	r3, [r6, #0]
 8001154:	039a      	lsls	r2, r3, #14
 8001156:	d5f6      	bpl.n	8001146 <HAL_RCC_OscConfig+0x6a>
 8001158:	6823      	ldr	r3, [r4, #0]
 800115a:	079f      	lsls	r7, r3, #30
 800115c:	d52d      	bpl.n	80011ba <HAL_RCC_OscConfig+0xde>
 800115e:	4a84      	ldr	r2, [pc, #528]	; (8001370 <HAL_RCC_OscConfig+0x294>)
 8001160:	6891      	ldr	r1, [r2, #8]
 8001162:	f011 0f0c 	tst.w	r1, #12
 8001166:	f000 80ac 	beq.w	80012c2 <HAL_RCC_OscConfig+0x1e6>
 800116a:	6891      	ldr	r1, [r2, #8]
 800116c:	f001 010c 	and.w	r1, r1, #12
 8001170:	2908      	cmp	r1, #8
 8001172:	f000 80a2 	beq.w	80012ba <HAL_RCC_OscConfig+0x1de>
 8001176:	68e3      	ldr	r3, [r4, #12]
 8001178:	2b00      	cmp	r3, #0
 800117a:	f000 80d8 	beq.w	800132e <HAL_RCC_OscConfig+0x252>
 800117e:	4b7d      	ldr	r3, [pc, #500]	; (8001374 <HAL_RCC_OscConfig+0x298>)
 8001180:	4e7b      	ldr	r6, [pc, #492]	; (8001370 <HAL_RCC_OscConfig+0x294>)
 8001182:	2201      	movs	r2, #1
 8001184:	601a      	str	r2, [r3, #0]
 8001186:	f7ff f8b3 	bl	80002f0 <HAL_GetTick>
 800118a:	4605      	mov	r5, r0
 800118c:	e005      	b.n	800119a <HAL_RCC_OscConfig+0xbe>
 800118e:	f7ff f8af 	bl	80002f0 <HAL_GetTick>
 8001192:	1b40      	subs	r0, r0, r5
 8001194:	2864      	cmp	r0, #100	; 0x64
 8001196:	f200 808d 	bhi.w	80012b4 <HAL_RCC_OscConfig+0x1d8>
 800119a:	6833      	ldr	r3, [r6, #0]
 800119c:	0798      	lsls	r0, r3, #30
 800119e:	d5f6      	bpl.n	800118e <HAL_RCC_OscConfig+0xb2>
 80011a0:	6831      	ldr	r1, [r6, #0]
 80011a2:	22f8      	movs	r2, #248	; 0xf8
 80011a4:	fa92 f2a2 	rbit	r2, r2
 80011a8:	6923      	ldr	r3, [r4, #16]
 80011aa:	fab2 f282 	clz	r2, r2
 80011ae:	4093      	lsls	r3, r2
 80011b0:	f021 02f8 	bic.w	r2, r1, #248	; 0xf8
 80011b4:	4313      	orrs	r3, r2
 80011b6:	6033      	str	r3, [r6, #0]
 80011b8:	6823      	ldr	r3, [r4, #0]
 80011ba:	071a      	lsls	r2, r3, #28
 80011bc:	d41f      	bmi.n	80011fe <HAL_RCC_OscConfig+0x122>
 80011be:	0758      	lsls	r0, r3, #29
 80011c0:	d434      	bmi.n	800122c <HAL_RCC_OscConfig+0x150>
 80011c2:	69a3      	ldr	r3, [r4, #24]
 80011c4:	b1c3      	cbz	r3, 80011f8 <HAL_RCC_OscConfig+0x11c>
 80011c6:	4d6a      	ldr	r5, [pc, #424]	; (8001370 <HAL_RCC_OscConfig+0x294>)
 80011c8:	68aa      	ldr	r2, [r5, #8]
 80011ca:	f002 020c 	and.w	r2, r2, #12
 80011ce:	2a08      	cmp	r2, #8
 80011d0:	d07e      	beq.n	80012d0 <HAL_RCC_OscConfig+0x1f4>
 80011d2:	2b02      	cmp	r3, #2
 80011d4:	4b67      	ldr	r3, [pc, #412]	; (8001374 <HAL_RCC_OscConfig+0x298>)
 80011d6:	f04f 0200 	mov.w	r2, #0
 80011da:	661a      	str	r2, [r3, #96]	; 0x60
 80011dc:	f000 80ce 	beq.w	800137c <HAL_RCC_OscConfig+0x2a0>
 80011e0:	f7ff f886 	bl	80002f0 <HAL_GetTick>
 80011e4:	4604      	mov	r4, r0
 80011e6:	e004      	b.n	80011f2 <HAL_RCC_OscConfig+0x116>
 80011e8:	f7ff f882 	bl	80002f0 <HAL_GetTick>
 80011ec:	1b00      	subs	r0, r0, r4
 80011ee:	2864      	cmp	r0, #100	; 0x64
 80011f0:	d860      	bhi.n	80012b4 <HAL_RCC_OscConfig+0x1d8>
 80011f2:	682b      	ldr	r3, [r5, #0]
 80011f4:	019b      	lsls	r3, r3, #6
 80011f6:	d4f7      	bmi.n	80011e8 <HAL_RCC_OscConfig+0x10c>
 80011f8:	2000      	movs	r0, #0
 80011fa:	b003      	add	sp, #12
 80011fc:	bdf0      	pop	{r4, r5, r6, r7, pc}
 80011fe:	6963      	ldr	r3, [r4, #20]
 8001200:	2b00      	cmp	r3, #0
 8001202:	d072      	beq.n	80012ea <HAL_RCC_OscConfig+0x20e>
 8001204:	4b5b      	ldr	r3, [pc, #364]	; (8001374 <HAL_RCC_OscConfig+0x298>)
 8001206:	4e5a      	ldr	r6, [pc, #360]	; (8001370 <HAL_RCC_OscConfig+0x294>)
 8001208:	2201      	movs	r2, #1
 800120a:	f8c3 2e80 	str.w	r2, [r3, #3712]	; 0xe80
 800120e:	f7ff f86f 	bl	80002f0 <HAL_GetTick>
 8001212:	4605      	mov	r5, r0
 8001214:	e004      	b.n	8001220 <HAL_RCC_OscConfig+0x144>
 8001216:	f7ff f86b 	bl	80002f0 <HAL_GetTick>
 800121a:	1b40      	subs	r0, r0, r5
 800121c:	2864      	cmp	r0, #100	; 0x64
 800121e:	d849      	bhi.n	80012b4 <HAL_RCC_OscConfig+0x1d8>
 8001220:	6f73      	ldr	r3, [r6, #116]	; 0x74
 8001222:	079b      	lsls	r3, r3, #30
 8001224:	d5f7      	bpl.n	8001216 <HAL_RCC_OscConfig+0x13a>
 8001226:	6823      	ldr	r3, [r4, #0]
 8001228:	0758      	lsls	r0, r3, #29
 800122a:	d5ca      	bpl.n	80011c2 <HAL_RCC_OscConfig+0xe6>
 800122c:	4b50      	ldr	r3, [pc, #320]	; (8001370 <HAL_RCC_OscConfig+0x294>)
 800122e:	4d52      	ldr	r5, [pc, #328]	; (8001378 <HAL_RCC_OscConfig+0x29c>)
 8001230:	2200      	movs	r2, #0
 8001232:	9201      	str	r2, [sp, #4]
 8001234:	6c1a      	ldr	r2, [r3, #64]	; 0x40
 8001236:	f042 5280 	orr.w	r2, r2, #268435456	; 0x10000000
 800123a:	641a      	str	r2, [r3, #64]	; 0x40
 800123c:	6c1b      	ldr	r3, [r3, #64]	; 0x40
 800123e:	f003 5380 	and.w	r3, r3, #268435456	; 0x10000000
 8001242:	9301      	str	r3, [sp, #4]
 8001244:	9b01      	ldr	r3, [sp, #4]
 8001246:	682b      	ldr	r3, [r5, #0]
 8001248:	f443 7380 	orr.w	r3, r3, #256	; 0x100
 800124c:	602b      	str	r3, [r5, #0]
 800124e:	f7ff f84f 	bl	80002f0 <HAL_GetTick>
 8001252:	4606      	mov	r6, r0
 8001254:	e004      	b.n	8001260 <HAL_RCC_OscConfig+0x184>
 8001256:	f7ff f84b 	bl	80002f0 <HAL_GetTick>
 800125a:	1b80      	subs	r0, r0, r6
 800125c:	2864      	cmp	r0, #100	; 0x64
 800125e:	d829      	bhi.n	80012b4 <HAL_RCC_OscConfig+0x1d8>
 8001260:	682b      	ldr	r3, [r5, #0]
 8001262:	05d9      	lsls	r1, r3, #23
 8001264:	d5f7      	bpl.n	8001256 <HAL_RCC_OscConfig+0x17a>
 8001266:	4d42      	ldr	r5, [pc, #264]	; (8001370 <HAL_RCC_OscConfig+0x294>)
 8001268:	2300      	movs	r3, #0
 800126a:	f885 3070 	strb.w	r3, [r5, #112]	; 0x70
 800126e:	f7ff f83f 	bl	80002f0 <HAL_GetTick>
 8001272:	f241 3788 	movw	r7, #5000	; 0x1388
 8001276:	4606      	mov	r6, r0
 8001278:	e004      	b.n	8001284 <HAL_RCC_OscConfig+0x1a8>
 800127a:	f7ff f839 	bl	80002f0 <HAL_GetTick>
 800127e:	1b80      	subs	r0, r0, r6
 8001280:	42b8      	cmp	r0, r7
 8001282:	d817      	bhi.n	80012b4 <HAL_RCC_OscConfig+0x1d8>
 8001284:	6f2b      	ldr	r3, [r5, #112]	; 0x70
 8001286:	079a      	lsls	r2, r3, #30
 8001288:	d4f7      	bmi.n	800127a <HAL_RCC_OscConfig+0x19e>
 800128a:	7a23      	ldrb	r3, [r4, #8]
 800128c:	f885 3070 	strb.w	r3, [r5, #112]	; 0x70
 8001290:	68a3      	ldr	r3, [r4, #8]
 8001292:	2b00      	cmp	r3, #0
 8001294:	f000 80b4 	beq.w	8001400 <HAL_RCC_OscConfig+0x324>
 8001298:	f7ff f82a 	bl	80002f0 <HAL_GetTick>
 800129c:	4e34      	ldr	r6, [pc, #208]	; (8001370 <HAL_RCC_OscConfig+0x294>)
 800129e:	4605      	mov	r5, r0
 80012a0:	f241 3788 	movw	r7, #5000	; 0x1388
 80012a4:	6f33      	ldr	r3, [r6, #112]	; 0x70
 80012a6:	079b      	lsls	r3, r3, #30
 80012a8:	d48b      	bmi.n	80011c2 <HAL_RCC_OscConfig+0xe6>
 80012aa:	f7ff f821 	bl	80002f0 <HAL_GetTick>
 80012ae:	1b40      	subs	r0, r0, r5
 80012b0:	42b8      	cmp	r0, r7
 80012b2:	d9f7      	bls.n	80012a4 <HAL_RCC_OscConfig+0x1c8>
 80012b4:	2003      	movs	r0, #3
 80012b6:	b003      	add	sp, #12
 80012b8:	bdf0      	pop	{r4, r5, r6, r7, pc}
 80012ba:	6852      	ldr	r2, [r2, #4]
 80012bc:	0256      	lsls	r6, r2, #9
 80012be:	f53f af5a 	bmi.w	8001176 <HAL_RCC_OscConfig+0x9a>
 80012c2:	4a2b      	ldr	r2, [pc, #172]	; (8001370 <HAL_RCC_OscConfig+0x294>)
 80012c4:	6812      	ldr	r2, [r2, #0]
 80012c6:	0795      	lsls	r5, r2, #30
 80012c8:	d520      	bpl.n	800130c <HAL_RCC_OscConfig+0x230>
 80012ca:	68e2      	ldr	r2, [r4, #12]
 80012cc:	2a01      	cmp	r2, #1
 80012ce:	d01d      	beq.n	800130c <HAL_RCC_OscConfig+0x230>
 80012d0:	2001      	movs	r0, #1
 80012d2:	b003      	add	sp, #12
 80012d4:	bdf0      	pop	{r4, r5, r6, r7, pc}
 80012d6:	4a26      	ldr	r2, [pc, #152]	; (8001370 <HAL_RCC_OscConfig+0x294>)
 80012d8:	6812      	ldr	r2, [r2, #0]
 80012da:	0390      	lsls	r0, r2, #14
 80012dc:	f57f af3d 	bpl.w	800115a <HAL_RCC_OscConfig+0x7e>
 80012e0:	6862      	ldr	r2, [r4, #4]
 80012e2:	2a00      	cmp	r2, #0
 80012e4:	f47f af39 	bne.w	800115a <HAL_RCC_OscConfig+0x7e>
 80012e8:	e7f2      	b.n	80012d0 <HAL_RCC_OscConfig+0x1f4>
 80012ea:	4a22      	ldr	r2, [pc, #136]	; (8001374 <HAL_RCC_OscConfig+0x298>)
 80012ec:	4e20      	ldr	r6, [pc, #128]	; (8001370 <HAL_RCC_OscConfig+0x294>)
 80012ee:	f8c2 3e80 	str.w	r3, [r2, #3712]	; 0xe80
 80012f2:	f7fe fffd 	bl	80002f0 <HAL_GetTick>
 80012f6:	4605      	mov	r5, r0
 80012f8:	e004      	b.n	8001304 <HAL_RCC_OscConfig+0x228>
 80012fa:	f7fe fff9 	bl	80002f0 <HAL_GetTick>
 80012fe:	1b40      	subs	r0, r0, r5
 8001300:	2864      	cmp	r0, #100	; 0x64
 8001302:	d8d7      	bhi.n	80012b4 <HAL_RCC_OscConfig+0x1d8>
 8001304:	6f73      	ldr	r3, [r6, #116]	; 0x74
 8001306:	079f      	lsls	r7, r3, #30
 8001308:	d4f7      	bmi.n	80012fa <HAL_RCC_OscConfig+0x21e>
 800130a:	e78c      	b.n	8001226 <HAL_RCC_OscConfig+0x14a>
 800130c:	4d18      	ldr	r5, [pc, #96]	; (8001370 <HAL_RCC_OscConfig+0x294>)
 800130e:	22f8      	movs	r2, #248	; 0xf8
 8001310:	6828      	ldr	r0, [r5, #0]
 8001312:	fa92 f2a2 	rbit	r2, r2
 8001316:	fab2 f182 	clz	r1, r2
 800131a:	6922      	ldr	r2, [r4, #16]
 800131c:	f020 00f8 	bic.w	r0, r0, #248	; 0xf8
 8001320:	408a      	lsls	r2, r1
 8001322:	4302      	orrs	r2, r0
 8001324:	602a      	str	r2, [r5, #0]
 8001326:	071a      	lsls	r2, r3, #28
 8001328:	f57f af49 	bpl.w	80011be <HAL_RCC_OscConfig+0xe2>
 800132c:	e767      	b.n	80011fe <HAL_RCC_OscConfig+0x122>
 800132e:	4a11      	ldr	r2, [pc, #68]	; (8001374 <HAL_RCC_OscConfig+0x298>)
 8001330:	4e0f      	ldr	r6, [pc, #60]	; (8001370 <HAL_RCC_OscConfig+0x294>)
 8001332:	6013      	str	r3, [r2, #0]
 8001334:	f7fe ffdc 	bl	80002f0 <HAL_GetTick>
 8001338:	4605      	mov	r5, r0
 800133a:	e004      	b.n	8001346 <HAL_RCC_OscConfig+0x26a>
 800133c:	f7fe ffd8 	bl	80002f0 <HAL_GetTick>
 8001340:	1b40      	subs	r0, r0, r5
 8001342:	2864      	cmp	r0, #100	; 0x64
 8001344:	d8b6      	bhi.n	80012b4 <HAL_RCC_OscConfig+0x1d8>
 8001346:	6833      	ldr	r3, [r6, #0]
 8001348:	0799      	lsls	r1, r3, #30
 800134a:	d4f7      	bmi.n	800133c <HAL_RCC_OscConfig+0x260>
 800134c:	6823      	ldr	r3, [r4, #0]
 800134e:	e734      	b.n	80011ba <HAL_RCC_OscConfig+0xde>
 8001350:	f7fe ffce 	bl	80002f0 <HAL_GetTick>
 8001354:	4e06      	ldr	r6, [pc, #24]	; (8001370 <HAL_RCC_OscConfig+0x294>)
 8001356:	4605      	mov	r5, r0
 8001358:	f241 3788 	movw	r7, #5000	; 0x1388
 800135c:	e004      	b.n	8001368 <HAL_RCC_OscConfig+0x28c>
 800135e:	f7fe ffc7 	bl	80002f0 <HAL_GetTick>
 8001362:	1b40      	subs	r0, r0, r5
 8001364:	42b8      	cmp	r0, r7
 8001366:	d8a5      	bhi.n	80012b4 <HAL_RCC_OscConfig+0x1d8>
 8001368:	6833      	ldr	r3, [r6, #0]
 800136a:	039b      	lsls	r3, r3, #14
 800136c:	d4f7      	bmi.n	800135e <HAL_RCC_OscConfig+0x282>
 800136e:	e6f3      	b.n	8001158 <HAL_RCC_OscConfig+0x7c>
 8001370:	40023800 	.word	0x40023800
 8001374:	42470000 	.word	0x42470000
 8001378:	40007000 	.word	0x40007000
 800137c:	f7fe ffb8 	bl	80002f0 <HAL_GetTick>
 8001380:	4606      	mov	r6, r0
 8001382:	e004      	b.n	800138e <HAL_RCC_OscConfig+0x2b2>
 8001384:	f7fe ffb4 	bl	80002f0 <HAL_GetTick>
 8001388:	1b80      	subs	r0, r0, r6
 800138a:	2864      	cmp	r0, #100	; 0x64
 800138c:	d892      	bhi.n	80012b4 <HAL_RCC_OscConfig+0x1d8>
 800138e:	682b      	ldr	r3, [r5, #0]
 8001390:	0199      	lsls	r1, r3, #6
 8001392:	d4f7      	bmi.n	8001384 <HAL_RCC_OscConfig+0x2a8>
 8001394:	f647 70c0 	movw	r0, #32704	; 0x7fc0
 8001398:	fa90 f0a0 	rbit	r0, r0
 800139c:	f44f 3240 	mov.w	r2, #196608	; 0x30000
 80013a0:	fab0 f080 	clz	r0, r0
 80013a4:	fa92 f2a2 	rbit	r2, r2
 80013a8:	f04f 6170 	mov.w	r1, #251658240	; 0xf000000
 80013ac:	fab2 f282 	clz	r2, r2
 80013b0:	fa91 f1a1 	rbit	r1, r1
 80013b4:	6aa3      	ldr	r3, [r4, #40]	; 0x28
 80013b6:	085b      	lsrs	r3, r3, #1
 80013b8:	3b01      	subs	r3, #1
 80013ba:	fa03 f202 	lsl.w	r2, r3, r2
 80013be:	e9d4 3607 	ldrd	r3, r6, [r4, #28]
 80013c2:	4333      	orrs	r3, r6
 80013c4:	6a66      	ldr	r6, [r4, #36]	; 0x24
 80013c6:	fa06 f000 	lsl.w	r0, r6, r0
 80013ca:	4303      	orrs	r3, r0
 80013cc:	6ae0      	ldr	r0, [r4, #44]	; 0x2c
 80013ce:	fab1 f181 	clz	r1, r1
 80013d2:	fa00 f101 	lsl.w	r1, r0, r1
 80013d6:	4313      	orrs	r3, r2
 80013d8:	4a11      	ldr	r2, [pc, #68]	; (8001420 <HAL_RCC_OscConfig+0x344>)
 80013da:	430b      	orrs	r3, r1
 80013dc:	2101      	movs	r1, #1
 80013de:	606b      	str	r3, [r5, #4]
 80013e0:	6611      	str	r1, [r2, #96]	; 0x60
 80013e2:	f7fe ff85 	bl	80002f0 <HAL_GetTick>
 80013e6:	4d0f      	ldr	r5, [pc, #60]	; (8001424 <HAL_RCC_OscConfig+0x348>)
 80013e8:	4604      	mov	r4, r0
 80013ea:	e005      	b.n	80013f8 <HAL_RCC_OscConfig+0x31c>
 80013ec:	f7fe ff80 	bl	80002f0 <HAL_GetTick>
 80013f0:	1b00      	subs	r0, r0, r4
 80013f2:	2864      	cmp	r0, #100	; 0x64
 80013f4:	f63f af5e 	bhi.w	80012b4 <HAL_RCC_OscConfig+0x1d8>
 80013f8:	682b      	ldr	r3, [r5, #0]
 80013fa:	019a      	lsls	r2, r3, #6
 80013fc:	d5f6      	bpl.n	80013ec <HAL_RCC_OscConfig+0x310>
 80013fe:	e6fb      	b.n	80011f8 <HAL_RCC_OscConfig+0x11c>
 8001400:	f7fe ff76 	bl	80002f0 <HAL_GetTick>
 8001404:	4e07      	ldr	r6, [pc, #28]	; (8001424 <HAL_RCC_OscConfig+0x348>)
 8001406:	4605      	mov	r5, r0
 8001408:	f241 3788 	movw	r7, #5000	; 0x1388
 800140c:	6f33      	ldr	r3, [r6, #112]	; 0x70
 800140e:	0798      	lsls	r0, r3, #30
 8001410:	f57f aed7 	bpl.w	80011c2 <HAL_RCC_OscConfig+0xe6>
 8001414:	f7fe ff6c 	bl	80002f0 <HAL_GetTick>
 8001418:	1b40      	subs	r0, r0, r5
 800141a:	42b8      	cmp	r0, r7
 800141c:	d9f6      	bls.n	800140c <HAL_RCC_OscConfig+0x330>
 800141e:	e749      	b.n	80012b4 <HAL_RCC_OscConfig+0x1d8>
 8001420:	42470000 	.word	0x42470000
 8001424:	40023800 	.word	0x40023800

08001428 <HAL_RCC_ClockConfig>:
 8001428:	4a7f      	ldr	r2, [pc, #508]	; (8001628 <HAL_RCC_ClockConfig+0x200>)
 800142a:	6813      	ldr	r3, [r2, #0]
 800142c:	f003 030f 	and.w	r3, r3, #15
 8001430:	428b      	cmp	r3, r1
 8001432:	e92d 41f0 	stmdb	sp!, {r4, r5, r6, r7, r8, lr}
 8001436:	460c      	mov	r4, r1
 8001438:	4605      	mov	r5, r0
 800143a:	d25a      	bcs.n	80014f2 <HAL_RCC_ClockConfig+0xca>
 800143c:	b2cb      	uxtb	r3, r1
 800143e:	7013      	strb	r3, [r2, #0]
 8001440:	6813      	ldr	r3, [r2, #0]
 8001442:	f003 030f 	and.w	r3, r3, #15
 8001446:	428b      	cmp	r3, r1
 8001448:	d002      	beq.n	8001450 <HAL_RCC_ClockConfig+0x28>
 800144a:	2001      	movs	r0, #1
 800144c:	e8bd 81f0 	ldmia.w	sp!, {r4, r5, r6, r7, r8, pc}
 8001450:	6803      	ldr	r3, [r0, #0]
 8001452:	079f      	lsls	r7, r3, #30
 8001454:	d506      	bpl.n	8001464 <HAL_RCC_ClockConfig+0x3c>
 8001456:	4975      	ldr	r1, [pc, #468]	; (800162c <HAL_RCC_ClockConfig+0x204>)
 8001458:	6880      	ldr	r0, [r0, #8]
 800145a:	688a      	ldr	r2, [r1, #8]
 800145c:	f022 02f0 	bic.w	r2, r2, #240	; 0xf0
 8001460:	4302      	orrs	r2, r0
 8001462:	608a      	str	r2, [r1, #8]
 8001464:	07de      	lsls	r6, r3, #31
 8001466:	d52b      	bpl.n	80014c0 <HAL_RCC_ClockConfig+0x98>
 8001468:	686a      	ldr	r2, [r5, #4]
 800146a:	2a01      	cmp	r2, #1
 800146c:	f000 80a3 	beq.w	80015b6 <HAL_RCC_ClockConfig+0x18e>
 8001470:	1e93      	subs	r3, r2, #2
 8001472:	2b01      	cmp	r3, #1
 8001474:	4b6d      	ldr	r3, [pc, #436]	; (800162c <HAL_RCC_ClockConfig+0x204>)
 8001476:	681b      	ldr	r3, [r3, #0]
 8001478:	f240 8099 	bls.w	80015ae <HAL_RCC_ClockConfig+0x186>
 800147c:	0799      	lsls	r1, r3, #30
 800147e:	d5e4      	bpl.n	800144a <HAL_RCC_ClockConfig+0x22>
 8001480:	4c6a      	ldr	r4, [pc, #424]	; (800162c <HAL_RCC_ClockConfig+0x204>)
 8001482:	68a3      	ldr	r3, [r4, #8]
 8001484:	f023 0303 	bic.w	r3, r3, #3
 8001488:	4313      	orrs	r3, r2
 800148a:	60a3      	str	r3, [r4, #8]
 800148c:	f7fe ff30 	bl	80002f0 <HAL_GetTick>
 8001490:	686b      	ldr	r3, [r5, #4]
 8001492:	2b01      	cmp	r3, #1
 8001494:	4606      	mov	r6, r0
 8001496:	f000 80a2 	beq.w	80015de <HAL_RCC_ClockConfig+0x1b6>
 800149a:	2b02      	cmp	r3, #2
 800149c:	f000 80ad 	beq.w	80015fa <HAL_RCC_ClockConfig+0x1d2>
 80014a0:	2b03      	cmp	r3, #3
 80014a2:	f000 80b8 	beq.w	8001616 <HAL_RCC_ClockConfig+0x1ee>
 80014a6:	f241 3788 	movw	r7, #5000	; 0x1388
 80014aa:	e004      	b.n	80014b6 <HAL_RCC_ClockConfig+0x8e>
 80014ac:	f7fe ff20 	bl	80002f0 <HAL_GetTick>
 80014b0:	1b83      	subs	r3, r0, r6
 80014b2:	42bb      	cmp	r3, r7
 80014b4:	d867      	bhi.n	8001586 <HAL_RCC_ClockConfig+0x15e>
 80014b6:	68a3      	ldr	r3, [r4, #8]
 80014b8:	f013 0f0c 	tst.w	r3, #12
 80014bc:	d1f6      	bne.n	80014ac <HAL_RCC_ClockConfig+0x84>
 80014be:	682b      	ldr	r3, [r5, #0]
 80014c0:	075a      	lsls	r2, r3, #29
 80014c2:	d506      	bpl.n	80014d2 <HAL_RCC_ClockConfig+0xaa>
 80014c4:	4959      	ldr	r1, [pc, #356]	; (800162c <HAL_RCC_ClockConfig+0x204>)
 80014c6:	68e8      	ldr	r0, [r5, #12]
 80014c8:	688a      	ldr	r2, [r1, #8]
 80014ca:	f422 52e0 	bic.w	r2, r2, #7168	; 0x1c00
 80014ce:	4302      	orrs	r2, r0
 80014d0:	608a      	str	r2, [r1, #8]
 80014d2:	071b      	lsls	r3, r3, #28
 80014d4:	d507      	bpl.n	80014e6 <HAL_RCC_ClockConfig+0xbe>
 80014d6:	4a55      	ldr	r2, [pc, #340]	; (800162c <HAL_RCC_ClockConfig+0x204>)
 80014d8:	6929      	ldr	r1, [r5, #16]
 80014da:	6893      	ldr	r3, [r2, #8]
 80014dc:	f423 4360 	bic.w	r3, r3, #57344	; 0xe000
 80014e0:	ea43 03c1 	orr.w	r3, r3, r1, lsl #3
 80014e4:	6093      	str	r3, [r2, #8]
 80014e6:	200f      	movs	r0, #15
 80014e8:	f7fe fecc 	bl	8000284 <HAL_InitTick>
 80014ec:	2000      	movs	r0, #0
 80014ee:	e8bd 81f0 	ldmia.w	sp!, {r4, r5, r6, r7, r8, pc}
 80014f2:	6803      	ldr	r3, [r0, #0]
 80014f4:	079a      	lsls	r2, r3, #30
 80014f6:	d506      	bpl.n	8001506 <HAL_RCC_ClockConfig+0xde>
 80014f8:	494c      	ldr	r1, [pc, #304]	; (800162c <HAL_RCC_ClockConfig+0x204>)
 80014fa:	6880      	ldr	r0, [r0, #8]
 80014fc:	688a      	ldr	r2, [r1, #8]
 80014fe:	f022 02f0 	bic.w	r2, r2, #240	; 0xf0
 8001502:	4302      	orrs	r2, r0
 8001504:	608a      	str	r2, [r1, #8]
 8001506:	07df      	lsls	r7, r3, #31
 8001508:	d525      	bpl.n	8001556 <HAL_RCC_ClockConfig+0x12e>
 800150a:	686a      	ldr	r2, [r5, #4]
 800150c:	2a01      	cmp	r2, #1
 800150e:	d02d      	beq.n	800156c <HAL_RCC_ClockConfig+0x144>
 8001510:	1e93      	subs	r3, r2, #2
 8001512:	2b01      	cmp	r3, #1
 8001514:	4b45      	ldr	r3, [pc, #276]	; (800162c <HAL_RCC_ClockConfig+0x204>)
 8001516:	681b      	ldr	r3, [r3, #0]
 8001518:	d938      	bls.n	800158c <HAL_RCC_ClockConfig+0x164>
 800151a:	0799      	lsls	r1, r3, #30
 800151c:	d595      	bpl.n	800144a <HAL_RCC_ClockConfig+0x22>
 800151e:	4e43      	ldr	r6, [pc, #268]	; (800162c <HAL_RCC_ClockConfig+0x204>)
 8001520:	68b3      	ldr	r3, [r6, #8]
 8001522:	f023 0303 	bic.w	r3, r3, #3
 8001526:	4313      	orrs	r3, r2
 8001528:	60b3      	str	r3, [r6, #8]
 800152a:	f7fe fee1 	bl	80002f0 <HAL_GetTick>
 800152e:	686b      	ldr	r3, [r5, #4]
 8001530:	2b01      	cmp	r3, #1
 8001532:	4607      	mov	r7, r0
 8001534:	d02d      	beq.n	8001592 <HAL_RCC_ClockConfig+0x16a>
 8001536:	2b02      	cmp	r3, #2
 8001538:	d043      	beq.n	80015c2 <HAL_RCC_ClockConfig+0x19a>
 800153a:	2b03      	cmp	r3, #3
 800153c:	d01b      	beq.n	8001576 <HAL_RCC_ClockConfig+0x14e>
 800153e:	f241 3888 	movw	r8, #5000	; 0x1388
 8001542:	e004      	b.n	800154e <HAL_RCC_ClockConfig+0x126>
 8001544:	f7fe fed4 	bl	80002f0 <HAL_GetTick>
 8001548:	1bc3      	subs	r3, r0, r7
 800154a:	4543      	cmp	r3, r8
 800154c:	d81b      	bhi.n	8001586 <HAL_RCC_ClockConfig+0x15e>
 800154e:	68b3      	ldr	r3, [r6, #8]
 8001550:	f013 0f0c 	tst.w	r3, #12
 8001554:	d1f6      	bne.n	8001544 <HAL_RCC_ClockConfig+0x11c>
 8001556:	4b34      	ldr	r3, [pc, #208]	; (8001628 <HAL_RCC_ClockConfig+0x200>)
 8001558:	b2e2      	uxtb	r2, r4
 800155a:	701a      	strb	r2, [r3, #0]
 800155c:	681b      	ldr	r3, [r3, #0]
 800155e:	f003 030f 	and.w	r3, r3, #15
 8001562:	42a3      	cmp	r3, r4
 8001564:	f47f af71 	bne.w	800144a <HAL_RCC_ClockConfig+0x22>
 8001568:	682b      	ldr	r3, [r5, #0]
 800156a:	e7a9      	b.n	80014c0 <HAL_RCC_ClockConfig+0x98>
 800156c:	4b2f      	ldr	r3, [pc, #188]	; (800162c <HAL_RCC_ClockConfig+0x204>)
 800156e:	681b      	ldr	r3, [r3, #0]
 8001570:	039e      	lsls	r6, r3, #14
 8001572:	d4d4      	bmi.n	800151e <HAL_RCC_ClockConfig+0xf6>
 8001574:	e769      	b.n	800144a <HAL_RCC_ClockConfig+0x22>
 8001576:	f241 3488 	movw	r4, #5000	; 0x1388
 800157a:	68b3      	ldr	r3, [r6, #8]
 800157c:	f7fe feb8 	bl	80002f0 <HAL_GetTick>
 8001580:	1bc0      	subs	r0, r0, r7
 8001582:	42a0      	cmp	r0, r4
 8001584:	d9f9      	bls.n	800157a <HAL_RCC_ClockConfig+0x152>
 8001586:	2003      	movs	r0, #3
 8001588:	e8bd 81f0 	ldmia.w	sp!, {r4, r5, r6, r7, r8, pc}
 800158c:	0198      	lsls	r0, r3, #6
 800158e:	d4c6      	bmi.n	800151e <HAL_RCC_ClockConfig+0xf6>
 8001590:	e75b      	b.n	800144a <HAL_RCC_ClockConfig+0x22>
 8001592:	f241 3888 	movw	r8, #5000	; 0x1388
 8001596:	e004      	b.n	80015a2 <HAL_RCC_ClockConfig+0x17a>
 8001598:	f7fe feaa 	bl	80002f0 <HAL_GetTick>
 800159c:	1bc0      	subs	r0, r0, r7
 800159e:	4540      	cmp	r0, r8
 80015a0:	d8f1      	bhi.n	8001586 <HAL_RCC_ClockConfig+0x15e>
 80015a2:	68b3      	ldr	r3, [r6, #8]
 80015a4:	f003 030c 	and.w	r3, r3, #12
 80015a8:	2b04      	cmp	r3, #4
 80015aa:	d1f5      	bne.n	8001598 <HAL_RCC_ClockConfig+0x170>
 80015ac:	e7d3      	b.n	8001556 <HAL_RCC_ClockConfig+0x12e>
 80015ae:	0198      	lsls	r0, r3, #6
 80015b0:	f53f af66 	bmi.w	8001480 <HAL_RCC_ClockConfig+0x58>
 80015b4:	e749      	b.n	800144a <HAL_RCC_ClockConfig+0x22>
 80015b6:	4b1d      	ldr	r3, [pc, #116]	; (800162c <HAL_RCC_ClockConfig+0x204>)
 80015b8:	681b      	ldr	r3, [r3, #0]
 80015ba:	039c      	lsls	r4, r3, #14
 80015bc:	f53f af60 	bmi.w	8001480 <HAL_RCC_ClockConfig+0x58>
 80015c0:	e743      	b.n	800144a <HAL_RCC_ClockConfig+0x22>
 80015c2:	f241 3888 	movw	r8, #5000	; 0x1388
 80015c6:	e004      	b.n	80015d2 <HAL_RCC_ClockConfig+0x1aa>
 80015c8:	f7fe fe92 	bl	80002f0 <HAL_GetTick>
 80015cc:	1bc0      	subs	r0, r0, r7
 80015ce:	4540      	cmp	r0, r8
 80015d0:	d8d9      	bhi.n	8001586 <HAL_RCC_ClockConfig+0x15e>
 80015d2:	68b3      	ldr	r3, [r6, #8]
 80015d4:	f003 030c 	and.w	r3, r3, #12
 80015d8:	2b08      	cmp	r3, #8
 80015da:	d1f5      	bne.n	80015c8 <HAL_RCC_ClockConfig+0x1a0>
 80015dc:	e7bb      	b.n	8001556 <HAL_RCC_ClockConfig+0x12e>
 80015de:	f241 3788 	movw	r7, #5000	; 0x1388
 80015e2:	e004      	b.n	80015ee <HAL_RCC_ClockConfig+0x1c6>
 80015e4:	f7fe fe84 	bl	80002f0 <HAL_GetTick>
 80015e8:	1b83      	subs	r3, r0, r6
 80015ea:	42bb      	cmp	r3, r7
 80015ec:	d8cb      	bhi.n	8001586 <HAL_RCC_ClockConfig+0x15e>
 80015ee:	68a3      	ldr	r3, [r4, #8]
 80015f0:	f003 030c 	and.w	r3, r3, #12
 80015f4:	2b04      	cmp	r3, #4
 80015f6:	d1f5      	bne.n	80015e4 <HAL_RCC_ClockConfig+0x1bc>
 80015f8:	e761      	b.n	80014be <HAL_RCC_ClockConfig+0x96>
 80015fa:	f241 3788 	movw	r7, #5000	; 0x1388
 80015fe:	e004      	b.n	800160a <HAL_RCC_ClockConfig+0x1e2>
 8001600:	f7fe fe76 	bl	80002f0 <HAL_GetTick>
 8001604:	1b80      	subs	r0, r0, r6
 8001606:	42b8      	cmp	r0, r7
 8001608:	d8bd      	bhi.n	8001586 <HAL_RCC_ClockConfig+0x15e>
 800160a:	68a3      	ldr	r3, [r4, #8]
 800160c:	f003 030c 	and.w	r3, r3, #12
 8001610:	2b08      	cmp	r3, #8
 8001612:	d1f5      	bne.n	8001600 <HAL_RCC_ClockConfig+0x1d8>
 8001614:	e753      	b.n	80014be <HAL_RCC_ClockConfig+0x96>
 8001616:	f241 3588 	movw	r5, #5000	; 0x1388
 800161a:	68a3      	ldr	r3, [r4, #8]
 800161c:	f7fe fe68 	bl	80002f0 <HAL_GetTick>
 8001620:	1b80      	subs	r0, r0, r6
 8001622:	42a8      	cmp	r0, r5
 8001624:	d9f9      	bls.n	800161a <HAL_RCC_ClockConfig+0x1f2>
 8001626:	e7ae      	b.n	8001586 <HAL_RCC_ClockConfig+0x15e>
 8001628:	40023c00 	.word	0x40023c00
 800162c:	40023800 	.word	0x40023800

08001630 <HAL_RCC_GetSysClockFreq>:
 8001630:	4a19      	ldr	r2, [pc, #100]	; (8001698 <HAL_RCC_GetSysClockFreq+0x68>)
 8001632:	6893      	ldr	r3, [r2, #8]
 8001634:	f003 030c 	and.w	r3, r3, #12
 8001638:	2b04      	cmp	r3, #4
 800163a:	d02a      	beq.n	8001692 <HAL_RCC_GetSysClockFreq+0x62>
 800163c:	2b08      	cmp	r3, #8
 800163e:	d126      	bne.n	800168e <HAL_RCC_GetSysClockFreq+0x5e>
 8001640:	6851      	ldr	r1, [r2, #4]
 8001642:	6853      	ldr	r3, [r2, #4]
 8001644:	6850      	ldr	r0, [r2, #4]
 8001646:	f001 013f 	and.w	r1, r1, #63	; 0x3f
 800164a:	f647 72c0 	movw	r2, #32704	; 0x7fc0
 800164e:	025b      	lsls	r3, r3, #9
 8001650:	fa92 f3a2 	rbit	r3, r2
 8001654:	fab3 f383 	clz	r3, r3
 8001658:	ea00 0002 	and.w	r0, r0, r2
 800165c:	fa20 f003 	lsr.w	r0, r0, r3
 8001660:	bf4c      	ite	mi
 8001662:	4b0e      	ldrmi	r3, [pc, #56]	; (800169c <HAL_RCC_GetSysClockFreq+0x6c>)
 8001664:	4b0e      	ldrpl	r3, [pc, #56]	; (80016a0 <HAL_RCC_GetSysClockFreq+0x70>)
 8001666:	fbb3 f1f1 	udiv	r1, r3, r1
 800166a:	4b0b      	ldr	r3, [pc, #44]	; (8001698 <HAL_RCC_GetSysClockFreq+0x68>)
 800166c:	fb01 f000 	mul.w	r0, r1, r0
 8001670:	f44f 3240 	mov.w	r2, #196608	; 0x30000
 8001674:	685b      	ldr	r3, [r3, #4]
 8001676:	fa92 f2a2 	rbit	r2, r2
 800167a:	fab2 f282 	clz	r2, r2
 800167e:	f403 3340 	and.w	r3, r3, #196608	; 0x30000
 8001682:	40d3      	lsrs	r3, r2
 8001684:	3301      	adds	r3, #1
 8001686:	005b      	lsls	r3, r3, #1
 8001688:	fbb0 f0f3 	udiv	r0, r0, r3
 800168c:	4770      	bx	lr
 800168e:	4804      	ldr	r0, [pc, #16]	; (80016a0 <HAL_RCC_GetSysClockFreq+0x70>)
 8001690:	4770      	bx	lr
 8001692:	4802      	ldr	r0, [pc, #8]	; (800169c <HAL_RCC_GetSysClockFreq+0x6c>)
 8001694:	4770      	bx	lr
 8001696:	bf00      	nop
 8001698:	40023800 	.word	0x40023800
 800169c:	007a1200 	.word	0x007a1200
 80016a0:	00f42400 	.word	0x00f42400

080016a4 <HAL_RCC_GetHCLKFreq>:
 80016a4:	b508      	push	{r3, lr}
 80016a6:	f7ff ffc3 	bl	8001630 <HAL_RCC_GetSysClockFreq>
 80016aa:	4b08      	ldr	r3, [pc, #32]	; (80016cc <HAL_RCC_GetHCLKFreq+0x28>)
 80016ac:	22f0      	movs	r2, #240	; 0xf0
 80016ae:	689b      	ldr	r3, [r3, #8]
 80016b0:	fa92 f2a2 	rbit	r2, r2
 80016b4:	fab2 f282 	clz	r2, r2
 80016b8:	f003 03f0 	and.w	r3, r3, #240	; 0xf0
 80016bc:	4904      	ldr	r1, [pc, #16]	; (80016d0 <HAL_RCC_GetHCLKFreq+0x2c>)
 80016be:	40d3      	lsrs	r3, r2
 80016c0:	4a04      	ldr	r2, [pc, #16]	; (80016d4 <HAL_RCC_GetHCLKFreq+0x30>)
 80016c2:	5ccb      	ldrb	r3, [r1, r3]
 80016c4:	40d8      	lsrs	r0, r3
 80016c6:	6010      	str	r0, [r2, #0]
 80016c8:	bd08      	pop	{r3, pc}
 80016ca:	bf00      	nop
 80016cc:	40023800 	.word	0x40023800
 80016d0:	0800639c 	.word	0x0800639c
 80016d4:	2000005c 	.word	0x2000005c

080016d8 <HAL_RCC_GetPCLK1Freq>:
 80016d8:	b510      	push	{r4, lr}
 80016da:	4c0f      	ldr	r4, [pc, #60]	; (8001718 <HAL_RCC_GetPCLK1Freq+0x40>)
 80016dc:	f7ff ffa8 	bl	8001630 <HAL_RCC_GetSysClockFreq>
 80016e0:	68a3      	ldr	r3, [r4, #8]
 80016e2:	22f0      	movs	r2, #240	; 0xf0
 80016e4:	fa92 f2a2 	rbit	r2, r2
 80016e8:	fab2 f282 	clz	r2, r2
 80016ec:	f003 03f0 	and.w	r3, r3, #240	; 0xf0
 80016f0:	490a      	ldr	r1, [pc, #40]	; (800171c <HAL_RCC_GetPCLK1Freq+0x44>)
 80016f2:	40d3      	lsrs	r3, r2
 80016f4:	4a0a      	ldr	r2, [pc, #40]	; (8001720 <HAL_RCC_GetPCLK1Freq+0x48>)
 80016f6:	5ccb      	ldrb	r3, [r1, r3]
 80016f8:	40d8      	lsrs	r0, r3
 80016fa:	6010      	str	r0, [r2, #0]
 80016fc:	68a3      	ldr	r3, [r4, #8]
 80016fe:	f44f 52e0 	mov.w	r2, #7168	; 0x1c00
 8001702:	fa92 f2a2 	rbit	r2, r2
 8001706:	fab2 f282 	clz	r2, r2
 800170a:	f403 53e0 	and.w	r3, r3, #7168	; 0x1c00
 800170e:	40d3      	lsrs	r3, r2
 8001710:	5ccb      	ldrb	r3, [r1, r3]
 8001712:	40d8      	lsrs	r0, r3
 8001714:	bd10      	pop	{r4, pc}
 8001716:	bf00      	nop
 8001718:	40023800 	.word	0x40023800
 800171c:	0800639c 	.word	0x0800639c
 8001720:	2000005c 	.word	0x2000005c

08001724 <HAL_RCC_GetPCLK2Freq>:
 8001724:	b510      	push	{r4, lr}
 8001726:	4c0f      	ldr	r4, [pc, #60]	; (8001764 <HAL_RCC_GetPCLK2Freq+0x40>)
 8001728:	f7ff ff82 	bl	8001630 <HAL_RCC_GetSysClockFreq>
 800172c:	68a3      	ldr	r3, [r4, #8]
 800172e:	22f0      	movs	r2, #240	; 0xf0
 8001730:	fa92 f2a2 	rbit	r2, r2
 8001734:	fab2 f282 	clz	r2, r2
 8001738:	f003 03f0 	and.w	r3, r3, #240	; 0xf0
 800173c:	490a      	ldr	r1, [pc, #40]	; (8001768 <HAL_RCC_GetPCLK2Freq+0x44>)
 800173e:	40d3      	lsrs	r3, r2
 8001740:	4a0a      	ldr	r2, [pc, #40]	; (800176c <HAL_RCC_GetPCLK2Freq+0x48>)
 8001742:	5ccb      	ldrb	r3, [r1, r3]
 8001744:	40d8      	lsrs	r0, r3
 8001746:	6010      	str	r0, [r2, #0]
 8001748:	68a3      	ldr	r3, [r4, #8]
 800174a:	f44f 4260 	mov.w	r2, #57344	; 0xe000
 800174e:	fa92 f2a2 	rbit	r2, r2
 8001752:	fab2 f282 	clz	r2, r2
 8001756:	f403 4360 	and.w	r3, r3, #57344	; 0xe000
 800175a:	40d3      	lsrs	r3, r2
 800175c:	5ccb      	ldrb	r3, [r1, r3]
 800175e:	40d8      	lsrs	r0, r3
 8001760:	bd10      	pop	{r4, pc}
 8001762:	bf00      	nop
 8001764:	40023800 	.word	0x40023800
 8001768:	0800639c 	.word	0x0800639c
 800176c:	2000005c 	.word	0x2000005c

08001770 <UART_SetConfig>:
 8001770:	6802      	ldr	r2, [r0, #0]
 8001772:	6911      	ldr	r1, [r2, #16]
 8001774:	b5f8      	push	{r3, r4, r5, r6, r7, lr}
 8001776:	4604      	mov	r4, r0
 8001778:	68c0      	ldr	r0, [r0, #12]
 800177a:	68a3      	ldr	r3, [r4, #8]
 800177c:	6925      	ldr	r5, [r4, #16]
 800177e:	f421 5140 	bic.w	r1, r1, #12288	; 0x3000
 8001782:	4301      	orrs	r1, r0
 8001784:	6111      	str	r1, [r2, #16]
 8001786:	68d1      	ldr	r1, [r2, #12]
 8001788:	69e0      	ldr	r0, [r4, #28]
 800178a:	432b      	orrs	r3, r5
 800178c:	6965      	ldr	r5, [r4, #20]
 800178e:	f421 4116 	bic.w	r1, r1, #38400	; 0x9600
 8001792:	432b      	orrs	r3, r5
 8001794:	f021 010c 	bic.w	r1, r1, #12
 8001798:	4303      	orrs	r3, r0
 800179a:	430b      	orrs	r3, r1
 800179c:	60d3      	str	r3, [r2, #12]
 800179e:	6953      	ldr	r3, [r2, #20]
 80017a0:	69a1      	ldr	r1, [r4, #24]
 80017a2:	f423 7340 	bic.w	r3, r3, #768	; 0x300
 80017a6:	430b      	orrs	r3, r1
 80017a8:	f5b0 4f00 	cmp.w	r0, #32768	; 0x8000
 80017ac:	6153      	str	r3, [r2, #20]
 80017ae:	4b56      	ldr	r3, [pc, #344]	; (8001908 <UART_SetConfig+0x198>)
 80017b0:	d054      	beq.n	800185c <UART_SetConfig+0xec>
 80017b2:	429a      	cmp	r2, r3
 80017b4:	d036      	beq.n	8001824 <UART_SetConfig+0xb4>
 80017b6:	f503 6380 	add.w	r3, r3, #1024	; 0x400
 80017ba:	429a      	cmp	r2, r3
 80017bc:	d032      	beq.n	8001824 <UART_SetConfig+0xb4>
 80017be:	f7ff ff8b 	bl	80016d8 <HAL_RCC_GetPCLK1Freq>
 80017c2:	4e52      	ldr	r6, [pc, #328]	; (800190c <UART_SetConfig+0x19c>)
 80017c4:	6863      	ldr	r3, [r4, #4]
 80017c6:	eb00 0080 	add.w	r0, r0, r0, lsl #2
 80017ca:	eb00 0080 	add.w	r0, r0, r0, lsl #2
 80017ce:	009b      	lsls	r3, r3, #2
 80017d0:	fbb0 f3f3 	udiv	r3, r0, r3
 80017d4:	fba6 2303 	umull	r2, r3, r6, r3
 80017d8:	095b      	lsrs	r3, r3, #5
 80017da:	011d      	lsls	r5, r3, #4
 80017dc:	f7ff ff7c 	bl	80016d8 <HAL_RCC_GetPCLK1Freq>
 80017e0:	6867      	ldr	r7, [r4, #4]
 80017e2:	eb00 0080 	add.w	r0, r0, r0, lsl #2
 80017e6:	eb00 0080 	add.w	r0, r0, r0, lsl #2
 80017ea:	00bf      	lsls	r7, r7, #2
 80017ec:	fbb0 f7f7 	udiv	r7, r0, r7
 80017f0:	f7ff ff72 	bl	80016d8 <HAL_RCC_GetPCLK1Freq>
 80017f4:	e9d4 2300 	ldrd	r2, r3, [r4]
 80017f8:	eb00 0080 	add.w	r0, r0, r0, lsl #2
 80017fc:	009b      	lsls	r3, r3, #2
 80017fe:	eb00 0080 	add.w	r0, r0, r0, lsl #2
 8001802:	fbb0 f0f3 	udiv	r0, r0, r3
 8001806:	fba6 3000 	umull	r3, r0, r6, r0
 800180a:	0940      	lsrs	r0, r0, #5
 800180c:	2364      	movs	r3, #100	; 0x64
 800180e:	fb03 7310 	mls	r3, r3, r0, r7
 8001812:	011b      	lsls	r3, r3, #4
 8001814:	3332      	adds	r3, #50	; 0x32
 8001816:	fba6 1303 	umull	r1, r3, r6, r3
 800181a:	f3c3 1343 	ubfx	r3, r3, #5, #4
 800181e:	432b      	orrs	r3, r5
 8001820:	6093      	str	r3, [r2, #8]
 8001822:	bdf8      	pop	{r3, r4, r5, r6, r7, pc}
 8001824:	f7ff ff7e 	bl	8001724 <HAL_RCC_GetPCLK2Freq>
 8001828:	4e38      	ldr	r6, [pc, #224]	; (800190c <UART_SetConfig+0x19c>)
 800182a:	6863      	ldr	r3, [r4, #4]
 800182c:	eb00 0080 	add.w	r0, r0, r0, lsl #2
 8001830:	eb00 0080 	add.w	r0, r0, r0, lsl #2
 8001834:	009b      	lsls	r3, r3, #2
 8001836:	fbb0 f3f3 	udiv	r3, r0, r3
 800183a:	fba6 2303 	umull	r2, r3, r6, r3
 800183e:	095b      	lsrs	r3, r3, #5
 8001840:	011d      	lsls	r5, r3, #4
 8001842:	f7ff ff6f 	bl	8001724 <HAL_RCC_GetPCLK2Freq>
 8001846:	6867      	ldr	r7, [r4, #4]
 8001848:	eb00 0080 	add.w	r0, r0, r0, lsl #2
 800184c:	eb00 0080 	add.w	r0, r0, r0, lsl #2
 8001850:	00bf      	lsls	r7, r7, #2
 8001852:	fbb0 f7f7 	udiv	r7, r0, r7
 8001856:	f7ff ff65 	bl	8001724 <HAL_RCC_GetPCLK2Freq>
 800185a:	e7cb      	b.n	80017f4 <UART_SetConfig+0x84>
 800185c:	429a      	cmp	r2, r3
 800185e:	d036      	beq.n	80018ce <UART_SetConfig+0x15e>
 8001860:	f503 6380 	add.w	r3, r3, #1024	; 0x400
 8001864:	429a      	cmp	r2, r3
 8001866:	d032      	beq.n	80018ce <UART_SetConfig+0x15e>
 8001868:	f7ff ff36 	bl	80016d8 <HAL_RCC_GetPCLK1Freq>
 800186c:	4e27      	ldr	r6, [pc, #156]	; (800190c <UART_SetConfig+0x19c>)
 800186e:	6863      	ldr	r3, [r4, #4]
 8001870:	eb00 0080 	add.w	r0, r0, r0, lsl #2
 8001874:	eb00 0080 	add.w	r0, r0, r0, lsl #2
 8001878:	005b      	lsls	r3, r3, #1
 800187a:	fbb0 f3f3 	udiv	r3, r0, r3
 800187e:	fba6 2303 	umull	r2, r3, r6, r3
 8001882:	095b      	lsrs	r3, r3, #5
 8001884:	011d      	lsls	r5, r3, #4
 8001886:	f7ff ff27 	bl	80016d8 <HAL_RCC_GetPCLK1Freq>
 800188a:	6867      	ldr	r7, [r4, #4]
 800188c:	eb00 0080 	add.w	r0, r0, r0, lsl #2
 8001890:	eb00 0080 	add.w	r0, r0, r0, lsl #2
 8001894:	007f      	lsls	r7, r7, #1
 8001896:	fbb0 f7f7 	udiv	r7, r0, r7
 800189a:	f7ff ff1d 	bl	80016d8 <HAL_RCC_GetPCLK1Freq>
 800189e:	e9d4 1200 	ldrd	r1, r2, [r4]
 80018a2:	eb00 0080 	add.w	r0, r0, r0, lsl #2
 80018a6:	eb00 0080 	add.w	r0, r0, r0, lsl #2
 80018aa:	0052      	lsls	r2, r2, #1
 80018ac:	fbb0 f2f2 	udiv	r2, r0, r2
 80018b0:	fba6 3202 	umull	r3, r2, r6, r2
 80018b4:	0952      	lsrs	r2, r2, #5
 80018b6:	2364      	movs	r3, #100	; 0x64
 80018b8:	fb03 7312 	mls	r3, r3, r2, r7
 80018bc:	011b      	lsls	r3, r3, #4
 80018be:	3332      	adds	r3, #50	; 0x32
 80018c0:	fba6 2303 	umull	r2, r3, r6, r3
 80018c4:	f3c3 1343 	ubfx	r3, r3, #5, #4
 80018c8:	432b      	orrs	r3, r5
 80018ca:	608b      	str	r3, [r1, #8]
 80018cc:	bdf8      	pop	{r3, r4, r5, r6, r7, pc}
 80018ce:	f7ff ff29 	bl	8001724 <HAL_RCC_GetPCLK2Freq>
 80018d2:	4e0e      	ldr	r6, [pc, #56]	; (800190c <UART_SetConfig+0x19c>)
 80018d4:	6863      	ldr	r3, [r4, #4]
 80018d6:	eb00 0080 	add.w	r0, r0, r0, lsl #2
 80018da:	eb00 0080 	add.w	r0, r0, r0, lsl #2
 80018de:	005b      	lsls	r3, r3, #1
 80018e0:	fbb0 f3f3 	udiv	r3, r0, r3
 80018e4:	fba6 2303 	umull	r2, r3, r6, r3
 80018e8:	095b      	lsrs	r3, r3, #5
 80018ea:	011d      	lsls	r5, r3, #4
 80018ec:	f7ff ff1a 	bl	8001724 <HAL_RCC_GetPCLK2Freq>
 80018f0:	6867      	ldr	r7, [r4, #4]
 80018f2:	eb00 0080 	add.w	r0, r0, r0, lsl #2
 80018f6:	eb00 0080 	add.w	r0, r0, r0, lsl #2
 80018fa:	007f      	lsls	r7, r7, #1
 80018fc:	fbb0 f7f7 	udiv	r7, r0, r7
 8001900:	f7ff ff10 	bl	8001724 <HAL_RCC_GetPCLK2Freq>
 8001904:	e7cb      	b.n	800189e <UART_SetConfig+0x12e>
 8001906:	bf00      	nop
 8001908:	40011000 	.word	0x40011000
 800190c:	51eb851f 	.word	0x51eb851f

08001910 <HAL_UART_MspInit>:
 8001910:	4770      	bx	lr
 8001912:	bf00      	nop

08001914 <HAL_UART_Init>:
 8001914:	b358      	cbz	r0, 800196e <HAL_UART_Init+0x5a>
 8001916:	b510      	push	{r4, lr}
 8001918:	f890 3039 	ldrb.w	r3, [r0, #57]	; 0x39
 800191c:	4604      	mov	r4, r0
 800191e:	f003 02ff 	and.w	r2, r3, #255	; 0xff
 8001922:	b1fb      	cbz	r3, 8001964 <HAL_UART_Init+0x50>
 8001924:	6822      	ldr	r2, [r4, #0]
 8001926:	2302      	movs	r3, #2
 8001928:	f884 3039 	strb.w	r3, [r4, #57]	; 0x39
 800192c:	68d3      	ldr	r3, [r2, #12]
 800192e:	f423 5300 	bic.w	r3, r3, #8192	; 0x2000
 8001932:	4620      	mov	r0, r4
 8001934:	60d3      	str	r3, [r2, #12]
 8001936:	f7ff ff1b 	bl	8001770 <UART_SetConfig>
 800193a:	6823      	ldr	r3, [r4, #0]
 800193c:	691a      	ldr	r2, [r3, #16]
 800193e:	f422 4290 	bic.w	r2, r2, #18432	; 0x4800
 8001942:	611a      	str	r2, [r3, #16]
 8001944:	695a      	ldr	r2, [r3, #20]
 8001946:	f022 022a 	bic.w	r2, r2, #42	; 0x2a
 800194a:	615a      	str	r2, [r3, #20]
 800194c:	68da      	ldr	r2, [r3, #12]
 800194e:	2100      	movs	r1, #0
 8001950:	f04f 0c01 	mov.w	ip, #1
 8001954:	f442 5200 	orr.w	r2, r2, #8192	; 0x2000
 8001958:	60da      	str	r2, [r3, #12]
 800195a:	63e1      	str	r1, [r4, #60]	; 0x3c
 800195c:	f884 c039 	strb.w	ip, [r4, #57]	; 0x39
 8001960:	4608      	mov	r0, r1
 8001962:	bd10      	pop	{r4, pc}
 8001964:	f880 2038 	strb.w	r2, [r0, #56]	; 0x38
 8001968:	f7ff ffd2 	bl	8001910 <HAL_UART_MspInit>
 800196c:	e7da      	b.n	8001924 <HAL_UART_Init+0x10>
 800196e:	2001      	movs	r0, #1
 8001970:	4770      	bx	lr
 8001972:	bf00      	nop

08001974 <HAL_UART_Transmit>:
 8001974:	e92d 41f0 	stmdb	sp!, {r4, r5, r6, r7, r8, lr}
 8001978:	4605      	mov	r5, r0
 800197a:	f890 0039 	ldrb.w	r0, [r0, #57]	; 0x39
 800197e:	2801      	cmp	r0, #1
 8001980:	460e      	mov	r6, r1
 8001982:	461f      	mov	r7, r3
 8001984:	d002      	beq.n	800198c <HAL_UART_Transmit+0x18>
 8001986:	b2c3      	uxtb	r3, r0
 8001988:	2b22      	cmp	r3, #34	; 0x22
 800198a:	d140      	bne.n	8001a0e <HAL_UART_Transmit+0x9a>
 800198c:	2e00      	cmp	r6, #0
 800198e:	d041      	beq.n	8001a14 <HAL_UART_Transmit+0xa0>
 8001990:	2a00      	cmp	r2, #0
 8001992:	d03f      	beq.n	8001a14 <HAL_UART_Transmit+0xa0>
 8001994:	f895 3038 	ldrb.w	r3, [r5, #56]	; 0x38
 8001998:	2b01      	cmp	r3, #1
 800199a:	d038      	beq.n	8001a0e <HAL_UART_Transmit+0x9a>
 800199c:	2301      	movs	r3, #1
 800199e:	f885 3038 	strb.w	r3, [r5, #56]	; 0x38
 80019a2:	2300      	movs	r3, #0
 80019a4:	63eb      	str	r3, [r5, #60]	; 0x3c
 80019a6:	f895 3039 	ldrb.w	r3, [r5, #57]	; 0x39
 80019aa:	84aa      	strh	r2, [r5, #36]	; 0x24
 80019ac:	2b22      	cmp	r3, #34	; 0x22
 80019ae:	bf0c      	ite	eq
 80019b0:	2332      	moveq	r3, #50	; 0x32
 80019b2:	2312      	movne	r3, #18
 80019b4:	f885 3039 	strb.w	r3, [r5, #57]	; 0x39
 80019b8:	68ab      	ldr	r3, [r5, #8]
 80019ba:	3a01      	subs	r2, #1
 80019bc:	f5b3 5f80 	cmp.w	r3, #4096	; 0x1000
 80019c0:	84ea      	strh	r2, [r5, #38]	; 0x26
 80019c2:	d04e      	beq.n	8001a62 <HAL_UART_Transmit+0xee>
 80019c4:	f7fe fc94 	bl	80002f0 <HAL_GetTick>
 80019c8:	4680      	mov	r8, r0
 80019ca:	1c79      	adds	r1, r7, #1
 80019cc:	682c      	ldr	r4, [r5, #0]
 80019ce:	d124      	bne.n	8001a1a <HAL_UART_Transmit+0xa6>
 80019d0:	6822      	ldr	r2, [r4, #0]
 80019d2:	0612      	lsls	r2, r2, #24
 80019d4:	d5fc      	bpl.n	80019d0 <HAL_UART_Transmit+0x5c>
 80019d6:	f816 3b01 	ldrb.w	r3, [r6], #1
 80019da:	6063      	str	r3, [r4, #4]
 80019dc:	8cea      	ldrh	r2, [r5, #38]	; 0x26
 80019de:	2a00      	cmp	r2, #0
 80019e0:	d1ea      	bne.n	80019b8 <HAL_UART_Transmit+0x44>
 80019e2:	f7fe fc85 	bl	80002f0 <HAL_GetTick>
 80019e6:	4604      	mov	r4, r0
 80019e8:	1c78      	adds	r0, r7, #1
 80019ea:	682a      	ldr	r2, [r5, #0]
 80019ec:	d158      	bne.n	8001aa0 <HAL_UART_Transmit+0x12c>
 80019ee:	6813      	ldr	r3, [r2, #0]
 80019f0:	0659      	lsls	r1, r3, #25
 80019f2:	d5fc      	bpl.n	80019ee <HAL_UART_Transmit+0x7a>
 80019f4:	f895 3039 	ldrb.w	r3, [r5, #57]	; 0x39
 80019f8:	2b32      	cmp	r3, #50	; 0x32
 80019fa:	bf0c      	ite	eq
 80019fc:	2322      	moveq	r3, #34	; 0x22
 80019fe:	2301      	movne	r3, #1
 8001a00:	2000      	movs	r0, #0
 8001a02:	f885 3039 	strb.w	r3, [r5, #57]	; 0x39
 8001a06:	f885 0038 	strb.w	r0, [r5, #56]	; 0x38
 8001a0a:	e8bd 81f0 	ldmia.w	sp!, {r4, r5, r6, r7, r8, pc}
 8001a0e:	2002      	movs	r0, #2
 8001a10:	e8bd 81f0 	ldmia.w	sp!, {r4, r5, r6, r7, r8, pc}
 8001a14:	2001      	movs	r0, #1
 8001a16:	e8bd 81f0 	ldmia.w	sp!, {r4, r5, r6, r7, r8, pc}
 8001a1a:	6823      	ldr	r3, [r4, #0]
 8001a1c:	061b      	lsls	r3, r3, #24
 8001a1e:	d4da      	bmi.n	80019d6 <HAL_UART_Transmit+0x62>
 8001a20:	b137      	cbz	r7, 8001a30 <HAL_UART_Transmit+0xbc>
 8001a22:	f7fe fc65 	bl	80002f0 <HAL_GetTick>
 8001a26:	eba0 0008 	sub.w	r0, r0, r8
 8001a2a:	4287      	cmp	r7, r0
 8001a2c:	d2cd      	bcs.n	80019ca <HAL_UART_Transmit+0x56>
 8001a2e:	682c      	ldr	r4, [r5, #0]
 8001a30:	68e3      	ldr	r3, [r4, #12]
 8001a32:	f023 0380 	bic.w	r3, r3, #128	; 0x80
 8001a36:	60e3      	str	r3, [r4, #12]
 8001a38:	68e3      	ldr	r3, [r4, #12]
 8001a3a:	f023 0320 	bic.w	r3, r3, #32
 8001a3e:	60e3      	str	r3, [r4, #12]
 8001a40:	68e3      	ldr	r3, [r4, #12]
 8001a42:	f423 7380 	bic.w	r3, r3, #256	; 0x100
 8001a46:	60e3      	str	r3, [r4, #12]
 8001a48:	6963      	ldr	r3, [r4, #20]
 8001a4a:	2101      	movs	r1, #1
 8001a4c:	2200      	movs	r2, #0
 8001a4e:	f023 0301 	bic.w	r3, r3, #1
 8001a52:	6163      	str	r3, [r4, #20]
 8001a54:	f885 1039 	strb.w	r1, [r5, #57]	; 0x39
 8001a58:	f885 2038 	strb.w	r2, [r5, #56]	; 0x38
 8001a5c:	2003      	movs	r0, #3
 8001a5e:	e8bd 81f0 	ldmia.w	sp!, {r4, r5, r6, r7, r8, pc}
 8001a62:	f7fe fc45 	bl	80002f0 <HAL_GetTick>
 8001a66:	4680      	mov	r8, r0
 8001a68:	1c7a      	adds	r2, r7, #1
 8001a6a:	682c      	ldr	r4, [r5, #0]
 8001a6c:	d10a      	bne.n	8001a84 <HAL_UART_Transmit+0x110>
 8001a6e:	6822      	ldr	r2, [r4, #0]
 8001a70:	0613      	lsls	r3, r2, #24
 8001a72:	d5fc      	bpl.n	8001a6e <HAL_UART_Transmit+0xfa>
 8001a74:	8833      	ldrh	r3, [r6, #0]
 8001a76:	692a      	ldr	r2, [r5, #16]
 8001a78:	f3c3 0308 	ubfx	r3, r3, #0, #9
 8001a7c:	6063      	str	r3, [r4, #4]
 8001a7e:	b96a      	cbnz	r2, 8001a9c <HAL_UART_Transmit+0x128>
 8001a80:	3602      	adds	r6, #2
 8001a82:	e7ab      	b.n	80019dc <HAL_UART_Transmit+0x68>
 8001a84:	6823      	ldr	r3, [r4, #0]
 8001a86:	0618      	lsls	r0, r3, #24
 8001a88:	d4f4      	bmi.n	8001a74 <HAL_UART_Transmit+0x100>
 8001a8a:	2f00      	cmp	r7, #0
 8001a8c:	d0d0      	beq.n	8001a30 <HAL_UART_Transmit+0xbc>
 8001a8e:	f7fe fc2f 	bl	80002f0 <HAL_GetTick>
 8001a92:	eba0 0008 	sub.w	r0, r0, r8
 8001a96:	4287      	cmp	r7, r0
 8001a98:	d2e6      	bcs.n	8001a68 <HAL_UART_Transmit+0xf4>
 8001a9a:	e7c8      	b.n	8001a2e <HAL_UART_Transmit+0xba>
 8001a9c:	3601      	adds	r6, #1
 8001a9e:	e79d      	b.n	80019dc <HAL_UART_Transmit+0x68>
 8001aa0:	6813      	ldr	r3, [r2, #0]
 8001aa2:	065b      	lsls	r3, r3, #25
 8001aa4:	d4a6      	bmi.n	80019f4 <HAL_UART_Transmit+0x80>
 8001aa6:	b12f      	cbz	r7, 8001ab4 <HAL_UART_Transmit+0x140>
 8001aa8:	f7fe fc22 	bl	80002f0 <HAL_GetTick>
 8001aac:	1b00      	subs	r0, r0, r4
 8001aae:	4287      	cmp	r7, r0
 8001ab0:	d29a      	bcs.n	80019e8 <HAL_UART_Transmit+0x74>
 8001ab2:	682a      	ldr	r2, [r5, #0]
 8001ab4:	68d3      	ldr	r3, [r2, #12]
 8001ab6:	f023 0380 	bic.w	r3, r3, #128	; 0x80
 8001aba:	60d3      	str	r3, [r2, #12]
 8001abc:	68d3      	ldr	r3, [r2, #12]
 8001abe:	f023 0320 	bic.w	r3, r3, #32
 8001ac2:	60d3      	str	r3, [r2, #12]
 8001ac4:	68d3      	ldr	r3, [r2, #12]
 8001ac6:	f423 7380 	bic.w	r3, r3, #256	; 0x100
 8001aca:	60d3      	str	r3, [r2, #12]
 8001acc:	6953      	ldr	r3, [r2, #20]
 8001ace:	2401      	movs	r4, #1
 8001ad0:	2100      	movs	r1, #0
 8001ad2:	f023 0301 	bic.w	r3, r3, #1
 8001ad6:	6153      	str	r3, [r2, #20]
 8001ad8:	2003      	movs	r0, #3
 8001ada:	f885 4039 	strb.w	r4, [r5, #57]	; 0x39
 8001ade:	f885 1038 	strb.w	r1, [r5, #56]	; 0x38
 8001ae2:	e795      	b.n	8001a10 <HAL_UART_Transmit+0x9c>

08001ae4 <USB_HC_StartXfer>:
 8001ae4:	b580      	push	{r7, lr}
 8001ae6:	b08a      	sub	sp, #40	; 0x28
 8001ae8:	af02      	add	r7, sp, #8
 8001aea:	60f8      	str	r0, [r7, #12]
 8001aec:	60b9      	str	r1, [r7, #8]
 8001aee:	4613      	mov	r3, r2
 8001af0:	71fb      	strb	r3, [r7, #7]
 8001af2:	2300      	movs	r3, #0
 8001af4:	777b      	strb	r3, [r7, #29]
 8001af6:	2300      	movs	r3, #0
 8001af8:	837b      	strh	r3, [r7, #26]
 8001afa:	2300      	movs	r3, #0
 8001afc:	83fb      	strh	r3, [r7, #30]
 8001afe:	f44f 7380 	mov.w	r3, #256	; 0x100
 8001b02:	833b      	strh	r3, [r7, #24]
 8001b04:	2300      	movs	r3, #0
 8001b06:	617b      	str	r3, [r7, #20]
 8001b08:	68fb      	ldr	r3, [r7, #12]
 8001b0a:	f1b3 4fa0 	cmp.w	r3, #1342177280	; 0x50000000
 8001b0e:	d02a      	beq.n	8001b66 <USB_HC_StartXfer+0x82>
 8001b10:	68bb      	ldr	r3, [r7, #8]
 8001b12:	791b      	ldrb	r3, [r3, #4]
 8001b14:	2b00      	cmp	r3, #0
 8001b16:	d126      	bne.n	8001b66 <USB_HC_StartXfer+0x82>
 8001b18:	79fb      	ldrb	r3, [r7, #7]
 8001b1a:	2b00      	cmp	r3, #0
 8001b1c:	d10b      	bne.n	8001b36 <USB_HC_StartXfer+0x52>
 8001b1e:	68bb      	ldr	r3, [r7, #8]
 8001b20:	795b      	ldrb	r3, [r3, #5]
 8001b22:	2b01      	cmp	r3, #1
 8001b24:	d107      	bne.n	8001b36 <USB_HC_StartXfer+0x52>
 8001b26:	68bb      	ldr	r3, [r7, #8]
 8001b28:	785b      	ldrb	r3, [r3, #1]
 8001b2a:	4619      	mov	r1, r3
 8001b2c:	68f8      	ldr	r0, [r7, #12]
 8001b2e:	f000 fa97 	bl	8002060 <USB_DoPing>
 8001b32:	2300      	movs	r3, #0
 8001b34:	e184      	b.n	8001e40 <USB_HC_StartXfer+0x35c>
 8001b36:	79fb      	ldrb	r3, [r7, #7]
 8001b38:	2b01      	cmp	r3, #1
 8001b3a:	d114      	bne.n	8001b66 <USB_HC_StartXfer+0x82>
 8001b3c:	68bb      	ldr	r3, [r7, #8]
 8001b3e:	785b      	ldrb	r3, [r3, #1]
 8001b40:	015a      	lsls	r2, r3, #5
 8001b42:	68fb      	ldr	r3, [r7, #12]
 8001b44:	4413      	add	r3, r2
 8001b46:	f503 63a0 	add.w	r3, r3, #1280	; 0x500
 8001b4a:	68db      	ldr	r3, [r3, #12]
 8001b4c:	68ba      	ldr	r2, [r7, #8]
 8001b4e:	7852      	ldrb	r2, [r2, #1]
 8001b50:	0151      	lsls	r1, r2, #5
 8001b52:	68fa      	ldr	r2, [r7, #12]
 8001b54:	440a      	add	r2, r1
 8001b56:	f502 62a0 	add.w	r2, r2, #1280	; 0x500
 8001b5a:	f023 0360 	bic.w	r3, r3, #96	; 0x60
 8001b5e:	60d3      	str	r3, [r2, #12]
 8001b60:	68bb      	ldr	r3, [r7, #8]
 8001b62:	2200      	movs	r2, #0
 8001b64:	715a      	strb	r2, [r3, #5]
 8001b66:	68bb      	ldr	r3, [r7, #8]
 8001b68:	691b      	ldr	r3, [r3, #16]
 8001b6a:	2b00      	cmp	r3, #0
 8001b6c:	d019      	beq.n	8001ba2 <USB_HC_StartXfer+0xbe>
 8001b6e:	68bb      	ldr	r3, [r7, #8]
 8001b70:	691b      	ldr	r3, [r3, #16]
 8001b72:	68ba      	ldr	r2, [r7, #8]
 8001b74:	8912      	ldrh	r2, [r2, #8]
 8001b76:	4413      	add	r3, r2
 8001b78:	3b01      	subs	r3, #1
 8001b7a:	68ba      	ldr	r2, [r7, #8]
 8001b7c:	8912      	ldrh	r2, [r2, #8]
 8001b7e:	fbb3 f3f2 	udiv	r3, r3, r2
 8001b82:	83fb      	strh	r3, [r7, #30]
 8001b84:	8bfa      	ldrh	r2, [r7, #30]
 8001b86:	8b3b      	ldrh	r3, [r7, #24]
 8001b88:	429a      	cmp	r2, r3
 8001b8a:	d90c      	bls.n	8001ba6 <USB_HC_StartXfer+0xc2>
 8001b8c:	8b3b      	ldrh	r3, [r7, #24]
 8001b8e:	83fb      	strh	r3, [r7, #30]
 8001b90:	8bfb      	ldrh	r3, [r7, #30]
 8001b92:	68ba      	ldr	r2, [r7, #8]
 8001b94:	8912      	ldrh	r2, [r2, #8]
 8001b96:	fb02 f303 	mul.w	r3, r2, r3
 8001b9a:	461a      	mov	r2, r3
 8001b9c:	68bb      	ldr	r3, [r7, #8]
 8001b9e:	611a      	str	r2, [r3, #16]
 8001ba0:	e001      	b.n	8001ba6 <USB_HC_StartXfer+0xc2>
 8001ba2:	2301      	movs	r3, #1
 8001ba4:	83fb      	strh	r3, [r7, #30]
 8001ba6:	68bb      	ldr	r3, [r7, #8]
 8001ba8:	78db      	ldrb	r3, [r3, #3]
 8001baa:	2b00      	cmp	r3, #0
 8001bac:	d007      	beq.n	8001bbe <USB_HC_StartXfer+0xda>
 8001bae:	8bfb      	ldrh	r3, [r7, #30]
 8001bb0:	68ba      	ldr	r2, [r7, #8]
 8001bb2:	8912      	ldrh	r2, [r2, #8]
 8001bb4:	fb02 f303 	mul.w	r3, r2, r3
 8001bb8:	461a      	mov	r2, r3
 8001bba:	68bb      	ldr	r3, [r7, #8]
 8001bbc:	611a      	str	r2, [r3, #16]
 8001bbe:	68bb      	ldr	r3, [r7, #8]
 8001bc0:	691b      	ldr	r3, [r3, #16]
 8001bc2:	f3c3 0212 	ubfx	r2, r3, #0, #19
 8001bc6:	8bfb      	ldrh	r3, [r7, #30]
 8001bc8:	04db      	lsls	r3, r3, #19
 8001bca:	4619      	mov	r1, r3
 8001bcc:	4b9e      	ldr	r3, [pc, #632]	; (8001e48 <USB_HC_StartXfer+0x364>)
 8001bce:	400b      	ands	r3, r1
 8001bd0:	431a      	orrs	r2, r3
 8001bd2:	68bb      	ldr	r3, [r7, #8]
 8001bd4:	7a9b      	ldrb	r3, [r3, #10]
 8001bd6:	075b      	lsls	r3, r3, #29
 8001bd8:	f003 43c0 	and.w	r3, r3, #1610612736	; 0x60000000
 8001bdc:	68b9      	ldr	r1, [r7, #8]
 8001bde:	7849      	ldrb	r1, [r1, #1]
 8001be0:	0148      	lsls	r0, r1, #5
 8001be2:	68f9      	ldr	r1, [r7, #12]
 8001be4:	4401      	add	r1, r0
 8001be6:	f501 61a0 	add.w	r1, r1, #1280	; 0x500
 8001bea:	4313      	orrs	r3, r2
 8001bec:	610b      	str	r3, [r1, #16]
 8001bee:	79fb      	ldrb	r3, [r7, #7]
 8001bf0:	2b00      	cmp	r3, #0
 8001bf2:	d00a      	beq.n	8001c0a <USB_HC_StartXfer+0x126>
 8001bf4:	68bb      	ldr	r3, [r7, #8]
 8001bf6:	68d9      	ldr	r1, [r3, #12]
 8001bf8:	68bb      	ldr	r3, [r7, #8]
 8001bfa:	785b      	ldrb	r3, [r3, #1]
 8001bfc:	015a      	lsls	r2, r3, #5
 8001bfe:	68fb      	ldr	r3, [r7, #12]
 8001c00:	4413      	add	r3, r2
 8001c02:	f503 63a0 	add.w	r3, r3, #1280	; 0x500
 8001c06:	460a      	mov	r2, r1
 8001c08:	615a      	str	r2, [r3, #20]
 8001c0a:	68bb      	ldr	r3, [r7, #8]
 8001c0c:	785b      	ldrb	r3, [r3, #1]
 8001c0e:	015a      	lsls	r2, r3, #5
 8001c10:	68fb      	ldr	r3, [r7, #12]
 8001c12:	4413      	add	r3, r2
 8001c14:	f503 63a0 	add.w	r3, r3, #1280	; 0x500
 8001c18:	681b      	ldr	r3, [r3, #0]
 8001c1a:	68ba      	ldr	r2, [r7, #8]
 8001c1c:	7852      	ldrb	r2, [r2, #1]
 8001c1e:	0151      	lsls	r1, r2, #5
 8001c20:	68fa      	ldr	r2, [r7, #12]
 8001c22:	440a      	add	r2, r1
 8001c24:	f502 62a0 	add.w	r2, r2, #1280	; 0x500
 8001c28:	f423 3300 	bic.w	r3, r3, #131072	; 0x20000
 8001c2c:	6013      	str	r3, [r2, #0]
 8001c2e:	68bb      	ldr	r3, [r7, #8]
 8001c30:	785b      	ldrb	r3, [r3, #1]
 8001c32:	015a      	lsls	r2, r3, #5
 8001c34:	68fb      	ldr	r3, [r7, #12]
 8001c36:	4413      	add	r3, r2
 8001c38:	f503 63a0 	add.w	r3, r3, #1280	; 0x500
 8001c3c:	681b      	ldr	r3, [r3, #0]
 8001c3e:	68ba      	ldr	r2, [r7, #8]
 8001c40:	7912      	ldrb	r2, [r2, #4]
 8001c42:	2a02      	cmp	r2, #2
 8001c44:	d102      	bne.n	8001c4c <USB_HC_StartXfer+0x168>
 8001c46:	f44f 3200 	mov.w	r2, #131072	; 0x20000
 8001c4a:	e000      	b.n	8001c4e <USB_HC_StartXfer+0x16a>
 8001c4c:	2200      	movs	r2, #0
 8001c4e:	68b9      	ldr	r1, [r7, #8]
 8001c50:	7849      	ldrb	r1, [r1, #1]
 8001c52:	0148      	lsls	r0, r1, #5
 8001c54:	68f9      	ldr	r1, [r7, #12]
 8001c56:	4401      	add	r1, r0
 8001c58:	f501 61a0 	add.w	r1, r1, #1280	; 0x500
 8001c5c:	4313      	orrs	r3, r2
 8001c5e:	600b      	str	r3, [r1, #0]
 8001c60:	68bb      	ldr	r3, [r7, #8]
 8001c62:	785b      	ldrb	r3, [r3, #1]
 8001c64:	015a      	lsls	r2, r3, #5
 8001c66:	68fb      	ldr	r3, [r7, #12]
 8001c68:	4413      	add	r3, r2
 8001c6a:	f503 63a0 	add.w	r3, r3, #1280	; 0x500
 8001c6e:	681b      	ldr	r3, [r3, #0]
 8001c70:	68ba      	ldr	r2, [r7, #8]
 8001c72:	7852      	ldrb	r2, [r2, #1]
 8001c74:	0151      	lsls	r1, r2, #5
 8001c76:	68fa      	ldr	r2, [r7, #12]
 8001c78:	440a      	add	r2, r1
 8001c7a:	f502 62a0 	add.w	r2, r2, #1280	; 0x500
 8001c7e:	f023 53fe 	bic.w	r3, r3, #532676608	; 0x1fc00000
 8001c82:	6013      	str	r3, [r2, #0]
 8001c84:	68bb      	ldr	r3, [r7, #8]
 8001c86:	785b      	ldrb	r3, [r3, #1]
 8001c88:	015a      	lsls	r2, r3, #5
 8001c8a:	68fb      	ldr	r3, [r7, #12]
 8001c8c:	4413      	add	r3, r2
 8001c8e:	f503 63a0 	add.w	r3, r3, #1280	; 0x500
 8001c92:	681a      	ldr	r2, [r3, #0]
 8001c94:	68bb      	ldr	r3, [r7, #8]
 8001c96:	781b      	ldrb	r3, [r3, #0]
 8001c98:	059b      	lsls	r3, r3, #22
 8001c9a:	f003 53fe 	and.w	r3, r3, #532676608	; 0x1fc00000
 8001c9e:	68b9      	ldr	r1, [r7, #8]
 8001ca0:	7849      	ldrb	r1, [r1, #1]
 8001ca2:	0148      	lsls	r0, r1, #5
 8001ca4:	68f9      	ldr	r1, [r7, #12]
 8001ca6:	4401      	add	r1, r0
 8001ca8:	f501 61a0 	add.w	r1, r1, #1280	; 0x500
 8001cac:	4313      	orrs	r3, r2
 8001cae:	600b      	str	r3, [r1, #0]
 8001cb0:	68bb      	ldr	r3, [r7, #8]
 8001cb2:	785b      	ldrb	r3, [r3, #1]
 8001cb4:	015a      	lsls	r2, r3, #5
 8001cb6:	68fb      	ldr	r3, [r7, #12]
 8001cb8:	4413      	add	r3, r2
 8001cba:	f503 63a0 	add.w	r3, r3, #1280	; 0x500
 8001cbe:	681b      	ldr	r3, [r3, #0]
 8001cc0:	68ba      	ldr	r2, [r7, #8]
 8001cc2:	7852      	ldrb	r2, [r2, #1]
 8001cc4:	0151      	lsls	r1, r2, #5
 8001cc6:	68fa      	ldr	r2, [r7, #12]
 8001cc8:	440a      	add	r2, r1
 8001cca:	f502 62a0 	add.w	r2, r2, #1280	; 0x500
 8001cce:	f423 63ff 	bic.w	r3, r3, #2040	; 0x7f8
 8001cd2:	f023 0307 	bic.w	r3, r3, #7
 8001cd6:	6013      	str	r3, [r2, #0]
 8001cd8:	68bb      	ldr	r3, [r7, #8]
 8001cda:	785b      	ldrb	r3, [r3, #1]
 8001cdc:	015a      	lsls	r2, r3, #5
 8001cde:	68fb      	ldr	r3, [r7, #12]
 8001ce0:	4413      	add	r3, r2
 8001ce2:	f503 63a0 	add.w	r3, r3, #1280	; 0x500
 8001ce6:	681a      	ldr	r2, [r3, #0]
 8001ce8:	68bb      	ldr	r3, [r7, #8]
 8001cea:	891b      	ldrh	r3, [r3, #8]
 8001cec:	f3c3 030a 	ubfx	r3, r3, #0, #11
 8001cf0:	68b9      	ldr	r1, [r7, #8]
 8001cf2:	7849      	ldrb	r1, [r1, #1]
 8001cf4:	0148      	lsls	r0, r1, #5
 8001cf6:	68f9      	ldr	r1, [r7, #12]
 8001cf8:	4401      	add	r1, r0
 8001cfa:	f501 61a0 	add.w	r1, r1, #1280	; 0x500
 8001cfe:	4313      	orrs	r3, r2
 8001d00:	600b      	str	r3, [r1, #0]
 8001d02:	68fb      	ldr	r3, [r7, #12]
 8001d04:	f503 6380 	add.w	r3, r3, #1024	; 0x400
 8001d08:	689b      	ldr	r3, [r3, #8]
 8001d0a:	f003 0301 	and.w	r3, r3, #1
 8001d0e:	2b00      	cmp	r3, #0
 8001d10:	bf0c      	ite	eq
 8001d12:	2301      	moveq	r3, #1
 8001d14:	2300      	movne	r3, #0
 8001d16:	b2db      	uxtb	r3, r3
 8001d18:	777b      	strb	r3, [r7, #29]
 8001d1a:	68bb      	ldr	r3, [r7, #8]
 8001d1c:	785b      	ldrb	r3, [r3, #1]
 8001d1e:	015a      	lsls	r2, r3, #5
 8001d20:	68fb      	ldr	r3, [r7, #12]
 8001d22:	4413      	add	r3, r2
 8001d24:	f503 63a0 	add.w	r3, r3, #1280	; 0x500
 8001d28:	681b      	ldr	r3, [r3, #0]
 8001d2a:	68ba      	ldr	r2, [r7, #8]
 8001d2c:	7852      	ldrb	r2, [r2, #1]
 8001d2e:	0151      	lsls	r1, r2, #5
 8001d30:	68fa      	ldr	r2, [r7, #12]
 8001d32:	440a      	add	r2, r1
 8001d34:	f502 62a0 	add.w	r2, r2, #1280	; 0x500
 8001d38:	f023 5300 	bic.w	r3, r3, #536870912	; 0x20000000
 8001d3c:	6013      	str	r3, [r2, #0]
 8001d3e:	68bb      	ldr	r3, [r7, #8]
 8001d40:	785b      	ldrb	r3, [r3, #1]
 8001d42:	015a      	lsls	r2, r3, #5
 8001d44:	68fb      	ldr	r3, [r7, #12]
 8001d46:	4413      	add	r3, r2
 8001d48:	f503 63a0 	add.w	r3, r3, #1280	; 0x500
 8001d4c:	681b      	ldr	r3, [r3, #0]
 8001d4e:	7f7a      	ldrb	r2, [r7, #29]
 8001d50:	0752      	lsls	r2, r2, #29
 8001d52:	4610      	mov	r0, r2
 8001d54:	68ba      	ldr	r2, [r7, #8]
 8001d56:	7852      	ldrb	r2, [r2, #1]
 8001d58:	0151      	lsls	r1, r2, #5
 8001d5a:	68fa      	ldr	r2, [r7, #12]
 8001d5c:	440a      	add	r2, r1
 8001d5e:	f502 62a0 	add.w	r2, r2, #1280	; 0x500
 8001d62:	4303      	orrs	r3, r0
 8001d64:	6013      	str	r3, [r2, #0]
 8001d66:	68bb      	ldr	r3, [r7, #8]
 8001d68:	785b      	ldrb	r3, [r3, #1]
 8001d6a:	015a      	lsls	r2, r3, #5
 8001d6c:	68fb      	ldr	r3, [r7, #12]
 8001d6e:	4413      	add	r3, r2
 8001d70:	f503 63a0 	add.w	r3, r3, #1280	; 0x500
 8001d74:	681b      	ldr	r3, [r3, #0]
 8001d76:	617b      	str	r3, [r7, #20]
 8001d78:	697b      	ldr	r3, [r7, #20]
 8001d7a:	f023 4380 	bic.w	r3, r3, #1073741824	; 0x40000000
 8001d7e:	617b      	str	r3, [r7, #20]
 8001d80:	697b      	ldr	r3, [r7, #20]
 8001d82:	f043 4300 	orr.w	r3, r3, #2147483648	; 0x80000000
 8001d86:	617b      	str	r3, [r7, #20]
 8001d88:	68bb      	ldr	r3, [r7, #8]
 8001d8a:	785b      	ldrb	r3, [r3, #1]
 8001d8c:	015a      	lsls	r2, r3, #5
 8001d8e:	68fb      	ldr	r3, [r7, #12]
 8001d90:	4413      	add	r3, r2
 8001d92:	f503 63a0 	add.w	r3, r3, #1280	; 0x500
 8001d96:	461a      	mov	r2, r3
 8001d98:	697b      	ldr	r3, [r7, #20]
 8001d9a:	6013      	str	r3, [r2, #0]
 8001d9c:	79fb      	ldrb	r3, [r7, #7]
 8001d9e:	2b00      	cmp	r3, #0
 8001da0:	d14d      	bne.n	8001e3e <USB_HC_StartXfer+0x35a>
 8001da2:	68bb      	ldr	r3, [r7, #8]
 8001da4:	78db      	ldrb	r3, [r3, #3]
 8001da6:	2b00      	cmp	r3, #0
 8001da8:	d149      	bne.n	8001e3e <USB_HC_StartXfer+0x35a>
 8001daa:	68bb      	ldr	r3, [r7, #8]
 8001dac:	691b      	ldr	r3, [r3, #16]
 8001dae:	2b00      	cmp	r3, #0
 8001db0:	d045      	beq.n	8001e3e <USB_HC_StartXfer+0x35a>
 8001db2:	68bb      	ldr	r3, [r7, #8]
 8001db4:	79db      	ldrb	r3, [r3, #7]
 8001db6:	2b03      	cmp	r3, #3
 8001db8:	d830      	bhi.n	8001e1c <USB_HC_StartXfer+0x338>
 8001dba:	a201      	add	r2, pc, #4	; (adr r2, 8001dc0 <USB_HC_StartXfer+0x2dc>)
 8001dbc:	f852 f023 	ldr.w	pc, [r2, r3, lsl #2]
 8001dc0:	08001dd1 	.word	0x08001dd1
 8001dc4:	08001df5 	.word	0x08001df5
 8001dc8:	08001dd1 	.word	0x08001dd1
 8001dcc:	08001df5 	.word	0x08001df5
 8001dd0:	68bb      	ldr	r3, [r7, #8]
 8001dd2:	691b      	ldr	r3, [r3, #16]
 8001dd4:	3303      	adds	r3, #3
 8001dd6:	089b      	lsrs	r3, r3, #2
 8001dd8:	837b      	strh	r3, [r7, #26]
 8001dda:	8b7a      	ldrh	r2, [r7, #26]
 8001ddc:	68fb      	ldr	r3, [r7, #12]
 8001dde:	6adb      	ldr	r3, [r3, #44]	; 0x2c
 8001de0:	b29b      	uxth	r3, r3
 8001de2:	429a      	cmp	r2, r3
 8001de4:	d91c      	bls.n	8001e20 <USB_HC_StartXfer+0x33c>
 8001de6:	68fb      	ldr	r3, [r7, #12]
 8001de8:	699b      	ldr	r3, [r3, #24]
 8001dea:	f043 0220 	orr.w	r2, r3, #32
 8001dee:	68fb      	ldr	r3, [r7, #12]
 8001df0:	619a      	str	r2, [r3, #24]
 8001df2:	e015      	b.n	8001e20 <USB_HC_StartXfer+0x33c>
 8001df4:	68bb      	ldr	r3, [r7, #8]
 8001df6:	691b      	ldr	r3, [r3, #16]
 8001df8:	3303      	adds	r3, #3
 8001dfa:	089b      	lsrs	r3, r3, #2
 8001dfc:	837b      	strh	r3, [r7, #26]
 8001dfe:	8b7a      	ldrh	r2, [r7, #26]
 8001e00:	68fb      	ldr	r3, [r7, #12]
 8001e02:	f503 6380 	add.w	r3, r3, #1024	; 0x400
 8001e06:	691b      	ldr	r3, [r3, #16]
 8001e08:	b29b      	uxth	r3, r3
 8001e0a:	429a      	cmp	r2, r3
 8001e0c:	d90a      	bls.n	8001e24 <USB_HC_StartXfer+0x340>
 8001e0e:	68fb      	ldr	r3, [r7, #12]
 8001e10:	699b      	ldr	r3, [r3, #24]
 8001e12:	f043 6280 	orr.w	r2, r3, #67108864	; 0x4000000
 8001e16:	68fb      	ldr	r3, [r7, #12]
 8001e18:	619a      	str	r2, [r3, #24]
 8001e1a:	e003      	b.n	8001e24 <USB_HC_StartXfer+0x340>
 8001e1c:	bf00      	nop
 8001e1e:	e002      	b.n	8001e26 <USB_HC_StartXfer+0x342>
 8001e20:	bf00      	nop
 8001e22:	e000      	b.n	8001e26 <USB_HC_StartXfer+0x342>
 8001e24:	bf00      	nop
 8001e26:	68bb      	ldr	r3, [r7, #8]
 8001e28:	68d9      	ldr	r1, [r3, #12]
 8001e2a:	68bb      	ldr	r3, [r7, #8]
 8001e2c:	785a      	ldrb	r2, [r3, #1]
 8001e2e:	68bb      	ldr	r3, [r7, #8]
 8001e30:	691b      	ldr	r3, [r3, #16]
 8001e32:	b29b      	uxth	r3, r3
 8001e34:	2000      	movs	r0, #0
 8001e36:	9000      	str	r0, [sp, #0]
 8001e38:	68f8      	ldr	r0, [r7, #12]
 8001e3a:	f000 fad7 	bl	80023ec <USB_WritePacket>
 8001e3e:	2300      	movs	r3, #0
 8001e40:	4618      	mov	r0, r3
 8001e42:	3720      	adds	r7, #32
 8001e44:	46bd      	mov	sp, r7
 8001e46:	bd80      	pop	{r7, pc}
 8001e48:	1ff80000 	.word	0x1ff80000

08001e4c <USB_HC_ReadInterrupt>:
 8001e4c:	b480      	push	{r7}
 8001e4e:	b083      	sub	sp, #12
 8001e50:	af00      	add	r7, sp, #0
 8001e52:	6078      	str	r0, [r7, #4]
 8001e54:	687b      	ldr	r3, [r7, #4]
 8001e56:	f503 6380 	add.w	r3, r3, #1024	; 0x400
 8001e5a:	695b      	ldr	r3, [r3, #20]
 8001e5c:	b29b      	uxth	r3, r3
 8001e5e:	4618      	mov	r0, r3
 8001e60:	370c      	adds	r7, #12
 8001e62:	46bd      	mov	sp, r7
 8001e64:	f85d 7b04 	ldr.w	r7, [sp], #4
 8001e68:	4770      	bx	lr
 8001e6a:	bf00      	nop

08001e6c <USB_HC_Halt>:
 8001e6c:	b480      	push	{r7}
 8001e6e:	b085      	sub	sp, #20
 8001e70:	af00      	add	r7, sp, #0
 8001e72:	6078      	str	r0, [r7, #4]
 8001e74:	460b      	mov	r3, r1
 8001e76:	70fb      	strb	r3, [r7, #3]
 8001e78:	2300      	movs	r3, #0
 8001e7a:	60fb      	str	r3, [r7, #12]
 8001e7c:	78fb      	ldrb	r3, [r7, #3]
 8001e7e:	015a      	lsls	r2, r3, #5
 8001e80:	687b      	ldr	r3, [r7, #4]
 8001e82:	4413      	add	r3, r2
 8001e84:	f503 63a0 	add.w	r3, r3, #1280	; 0x500
 8001e88:	681b      	ldr	r3, [r3, #0]
 8001e8a:	78fb      	ldrb	r3, [r7, #3]
 8001e8c:	015a      	lsls	r2, r3, #5
 8001e8e:	687b      	ldr	r3, [r7, #4]
 8001e90:	4413      	add	r3, r2
 8001e92:	f503 63a0 	add.w	r3, r3, #1280	; 0x500
 8001e96:	681b      	ldr	r3, [r3, #0]
 8001e98:	f403 2300 	and.w	r3, r3, #524288	; 0x80000
 8001e9c:	2b00      	cmp	r3, #0
 8001e9e:	d06b      	beq.n	8001f78 <USB_HC_Halt+0x10c>
 8001ea0:	78fb      	ldrb	r3, [r7, #3]
 8001ea2:	015a      	lsls	r2, r3, #5
 8001ea4:	687b      	ldr	r3, [r7, #4]
 8001ea6:	4413      	add	r3, r2
 8001ea8:	f503 63a0 	add.w	r3, r3, #1280	; 0x500
 8001eac:	681b      	ldr	r3, [r3, #0]
 8001eae:	78fa      	ldrb	r2, [r7, #3]
 8001eb0:	0151      	lsls	r1, r2, #5
 8001eb2:	687a      	ldr	r2, [r7, #4]
 8001eb4:	440a      	add	r2, r1
 8001eb6:	f502 62a0 	add.w	r2, r2, #1280	; 0x500
 8001eba:	f043 4380 	orr.w	r3, r3, #1073741824	; 0x40000000
 8001ebe:	6013      	str	r3, [r2, #0]
 8001ec0:	687b      	ldr	r3, [r7, #4]
 8001ec2:	6adb      	ldr	r3, [r3, #44]	; 0x2c
 8001ec4:	b29b      	uxth	r3, r3
 8001ec6:	2b00      	cmp	r3, #0
 8001ec8:	d143      	bne.n	8001f52 <USB_HC_Halt+0xe6>
 8001eca:	78fb      	ldrb	r3, [r7, #3]
 8001ecc:	015a      	lsls	r2, r3, #5
 8001ece:	687b      	ldr	r3, [r7, #4]
 8001ed0:	4413      	add	r3, r2
 8001ed2:	f503 63a0 	add.w	r3, r3, #1280	; 0x500
 8001ed6:	681b      	ldr	r3, [r3, #0]
 8001ed8:	78fa      	ldrb	r2, [r7, #3]
 8001eda:	0151      	lsls	r1, r2, #5
 8001edc:	687a      	ldr	r2, [r7, #4]
 8001ede:	440a      	add	r2, r1
 8001ee0:	f502 62a0 	add.w	r2, r2, #1280	; 0x500
 8001ee4:	f023 4300 	bic.w	r3, r3, #2147483648	; 0x80000000
 8001ee8:	6013      	str	r3, [r2, #0]
 8001eea:	78fb      	ldrb	r3, [r7, #3]
 8001eec:	015a      	lsls	r2, r3, #5
 8001eee:	687b      	ldr	r3, [r7, #4]
 8001ef0:	4413      	add	r3, r2
 8001ef2:	f503 63a0 	add.w	r3, r3, #1280	; 0x500
 8001ef6:	681b      	ldr	r3, [r3, #0]
 8001ef8:	78fa      	ldrb	r2, [r7, #3]
 8001efa:	0151      	lsls	r1, r2, #5
 8001efc:	687a      	ldr	r2, [r7, #4]
 8001efe:	440a      	add	r2, r1
 8001f00:	f502 62a0 	add.w	r2, r2, #1280	; 0x500
 8001f04:	f043 4300 	orr.w	r3, r3, #2147483648	; 0x80000000
 8001f08:	6013      	str	r3, [r2, #0]
 8001f0a:	78fb      	ldrb	r3, [r7, #3]
 8001f0c:	015a      	lsls	r2, r3, #5
 8001f0e:	687b      	ldr	r3, [r7, #4]
 8001f10:	4413      	add	r3, r2
 8001f12:	f503 63a0 	add.w	r3, r3, #1280	; 0x500
 8001f16:	681b      	ldr	r3, [r3, #0]
 8001f18:	78fa      	ldrb	r2, [r7, #3]
 8001f1a:	0151      	lsls	r1, r2, #5
 8001f1c:	687a      	ldr	r2, [r7, #4]
 8001f1e:	440a      	add	r2, r1
 8001f20:	f502 62a0 	add.w	r2, r2, #1280	; 0x500
 8001f24:	f423 4300 	bic.w	r3, r3, #32768	; 0x8000
 8001f28:	6013      	str	r3, [r2, #0]
 8001f2a:	68fb      	ldr	r3, [r7, #12]
 8001f2c:	3301      	adds	r3, #1
 8001f2e:	60fb      	str	r3, [r7, #12]
 8001f30:	68fb      	ldr	r3, [r7, #12]
 8001f32:	f5b3 7f7a 	cmp.w	r3, #1000	; 0x3e8
 8001f36:	d81d      	bhi.n	8001f74 <USB_HC_Halt+0x108>
 8001f38:	78fb      	ldrb	r3, [r7, #3]
 8001f3a:	015a      	lsls	r2, r3, #5
 8001f3c:	687b      	ldr	r3, [r7, #4]
 8001f3e:	4413      	add	r3, r2
 8001f40:	f503 63a0 	add.w	r3, r3, #1280	; 0x500
 8001f44:	681b      	ldr	r3, [r3, #0]
 8001f46:	f003 4300 	and.w	r3, r3, #2147483648	; 0x80000000
 8001f4a:	f1b3 4f00 	cmp.w	r3, #2147483648	; 0x80000000
 8001f4e:	d0ec      	beq.n	8001f2a <USB_HC_Halt+0xbe>
 8001f50:	e07f      	b.n	8002052 <USB_HC_Halt+0x1e6>
 8001f52:	78fb      	ldrb	r3, [r7, #3]
 8001f54:	015a      	lsls	r2, r3, #5
 8001f56:	687b      	ldr	r3, [r7, #4]
 8001f58:	4413      	add	r3, r2
 8001f5a:	f503 63a0 	add.w	r3, r3, #1280	; 0x500
 8001f5e:	681b      	ldr	r3, [r3, #0]
 8001f60:	78fa      	ldrb	r2, [r7, #3]
 8001f62:	0151      	lsls	r1, r2, #5
 8001f64:	687a      	ldr	r2, [r7, #4]
 8001f66:	440a      	add	r2, r1
 8001f68:	f502 62a0 	add.w	r2, r2, #1280	; 0x500
 8001f6c:	f043 4300 	orr.w	r3, r3, #2147483648	; 0x80000000
 8001f70:	6013      	str	r3, [r2, #0]
 8001f72:	e06e      	b.n	8002052 <USB_HC_Halt+0x1e6>
 8001f74:	bf00      	nop
 8001f76:	e06c      	b.n	8002052 <USB_HC_Halt+0x1e6>
 8001f78:	78fb      	ldrb	r3, [r7, #3]
 8001f7a:	015a      	lsls	r2, r3, #5
 8001f7c:	687b      	ldr	r3, [r7, #4]
 8001f7e:	4413      	add	r3, r2
 8001f80:	f503 63a0 	add.w	r3, r3, #1280	; 0x500
 8001f84:	681b      	ldr	r3, [r3, #0]
 8001f86:	78fa      	ldrb	r2, [r7, #3]
 8001f88:	0151      	lsls	r1, r2, #5
 8001f8a:	687a      	ldr	r2, [r7, #4]
 8001f8c:	440a      	add	r2, r1
 8001f8e:	f502 62a0 	add.w	r2, r2, #1280	; 0x500
 8001f92:	f043 4380 	orr.w	r3, r3, #1073741824	; 0x40000000
 8001f96:	6013      	str	r3, [r2, #0]
 8001f98:	687b      	ldr	r3, [r7, #4]
 8001f9a:	f503 6380 	add.w	r3, r3, #1024	; 0x400
 8001f9e:	691b      	ldr	r3, [r3, #16]
 8001fa0:	b29b      	uxth	r3, r3
 8001fa2:	2b00      	cmp	r3, #0
 8001fa4:	d143      	bne.n	800202e <USB_HC_Halt+0x1c2>
 8001fa6:	78fb      	ldrb	r3, [r7, #3]
 8001fa8:	015a      	lsls	r2, r3, #5
 8001faa:	687b      	ldr	r3, [r7, #4]
 8001fac:	4413      	add	r3, r2
 8001fae:	f503 63a0 	add.w	r3, r3, #1280	; 0x500
 8001fb2:	681b      	ldr	r3, [r3, #0]
 8001fb4:	78fa      	ldrb	r2, [r7, #3]
 8001fb6:	0151      	lsls	r1, r2, #5
 8001fb8:	687a      	ldr	r2, [r7, #4]
 8001fba:	440a      	add	r2, r1
 8001fbc:	f502 62a0 	add.w	r2, r2, #1280	; 0x500
 8001fc0:	f023 4300 	bic.w	r3, r3, #2147483648	; 0x80000000
 8001fc4:	6013      	str	r3, [r2, #0]
 8001fc6:	78fb      	ldrb	r3, [r7, #3]
 8001fc8:	015a      	lsls	r2, r3, #5
 8001fca:	687b      	ldr	r3, [r7, #4]
 8001fcc:	4413      	add	r3, r2
 8001fce:	f503 63a0 	add.w	r3, r3, #1280	; 0x500
 8001fd2:	681b      	ldr	r3, [r3, #0]
 8001fd4:	78fa      	ldrb	r2, [r7, #3]
 8001fd6:	0151      	lsls	r1, r2, #5
 8001fd8:	687a      	ldr	r2, [r7, #4]
 8001fda:	440a      	add	r2, r1
 8001fdc:	f502 62a0 	add.w	r2, r2, #1280	; 0x500
 8001fe0:	f043 4300 	orr.w	r3, r3, #2147483648	; 0x80000000
 8001fe4:	6013      	str	r3, [r2, #0]
 8001fe6:	78fb      	ldrb	r3, [r7, #3]
 8001fe8:	015a      	lsls	r2, r3, #5
 8001fea:	687b      	ldr	r3, [r7, #4]
 8001fec:	4413      	add	r3, r2
 8001fee:	f503 63a0 	add.w	r3, r3, #1280	; 0x500
 8001ff2:	681b      	ldr	r3, [r3, #0]
 8001ff4:	78fa      	ldrb	r2, [r7, #3]
 8001ff6:	0151      	lsls	r1, r2, #5
 8001ff8:	687a      	ldr	r2, [r7, #4]
 8001ffa:	440a      	add	r2, r1
 8001ffc:	f502 62a0 	add.w	r2, r2, #1280	; 0x500
 8002000:	f423 4300 	bic.w	r3, r3, #32768	; 0x8000
 8002004:	6013      	str	r3, [r2, #0]
 8002006:	68fb      	ldr	r3, [r7, #12]
 8002008:	3301      	adds	r3, #1
 800200a:	60fb      	str	r3, [r7, #12]
 800200c:	68fb      	ldr	r3, [r7, #12]
 800200e:	f5b3 7f7a 	cmp.w	r3, #1000	; 0x3e8
 8002012:	d81d      	bhi.n	8002050 <USB_HC_Halt+0x1e4>
 8002014:	78fb      	ldrb	r3, [r7, #3]
 8002016:	015a      	lsls	r2, r3, #5
 8002018:	687b      	ldr	r3, [r7, #4]
 800201a:	4413      	add	r3, r2
 800201c:	f503 63a0 	add.w	r3, r3, #1280	; 0x500
 8002020:	681b      	ldr	r3, [r3, #0]
 8002022:	f003 4300 	and.w	r3, r3, #2147483648	; 0x80000000
 8002026:	f1b3 4f00 	cmp.w	r3, #2147483648	; 0x80000000
 800202a:	d0ec      	beq.n	8002006 <USB_HC_Halt+0x19a>
 800202c:	e011      	b.n	8002052 <USB_HC_Halt+0x1e6>
 800202e:	78fb      	ldrb	r3, [r7, #3]
 8002030:	015a      	lsls	r2, r3, #5
 8002032:	687b      	ldr	r3, [r7, #4]
 8002034:	4413      	add	r3, r2
 8002036:	f503 63a0 	add.w	r3, r3, #1280	; 0x500
 800203a:	681b      	ldr	r3, [r3, #0]
 800203c:	78fa      	ldrb	r2, [r7, #3]
 800203e:	0151      	lsls	r1, r2, #5
 8002040:	687a      	ldr	r2, [r7, #4]
 8002042:	440a      	add	r2, r1
 8002044:	f502 62a0 	add.w	r2, r2, #1280	; 0x500
 8002048:	f043 4300 	orr.w	r3, r3, #2147483648	; 0x80000000
 800204c:	6013      	str	r3, [r2, #0]
 800204e:	e000      	b.n	8002052 <USB_HC_Halt+0x1e6>
 8002050:	bf00      	nop
 8002052:	2300      	movs	r3, #0
 8002054:	4618      	mov	r0, r3
 8002056:	3714      	adds	r7, #20
 8002058:	46bd      	mov	sp, r7
 800205a:	f85d 7b04 	ldr.w	r7, [sp], #4
 800205e:	4770      	bx	lr

08002060 <USB_DoPing>:
 8002060:	b480      	push	{r7}
 8002062:	b085      	sub	sp, #20
 8002064:	af00      	add	r7, sp, #0
 8002066:	6078      	str	r0, [r7, #4]
 8002068:	460b      	mov	r3, r1
 800206a:	70fb      	strb	r3, [r7, #3]
 800206c:	2301      	movs	r3, #1
 800206e:	73fb      	strb	r3, [r7, #15]
 8002070:	2300      	movs	r3, #0
 8002072:	60bb      	str	r3, [r7, #8]
 8002074:	7bfb      	ldrb	r3, [r7, #15]
 8002076:	04db      	lsls	r3, r3, #19
 8002078:	461a      	mov	r2, r3
 800207a:	4b15      	ldr	r3, [pc, #84]	; (80020d0 <USB_DoPing+0x70>)
 800207c:	4013      	ands	r3, r2
 800207e:	78fa      	ldrb	r2, [r7, #3]
 8002080:	0151      	lsls	r1, r2, #5
 8002082:	687a      	ldr	r2, [r7, #4]
 8002084:	440a      	add	r2, r1
 8002086:	f502 62a0 	add.w	r2, r2, #1280	; 0x500
 800208a:	f043 4300 	orr.w	r3, r3, #2147483648	; 0x80000000
 800208e:	6113      	str	r3, [r2, #16]
 8002090:	78fb      	ldrb	r3, [r7, #3]
 8002092:	015a      	lsls	r2, r3, #5
 8002094:	687b      	ldr	r3, [r7, #4]
 8002096:	4413      	add	r3, r2
 8002098:	f503 63a0 	add.w	r3, r3, #1280	; 0x500
 800209c:	681b      	ldr	r3, [r3, #0]
 800209e:	60bb      	str	r3, [r7, #8]
 80020a0:	68bb      	ldr	r3, [r7, #8]
 80020a2:	f023 4380 	bic.w	r3, r3, #1073741824	; 0x40000000
 80020a6:	60bb      	str	r3, [r7, #8]
 80020a8:	68bb      	ldr	r3, [r7, #8]
 80020aa:	f043 4300 	orr.w	r3, r3, #2147483648	; 0x80000000
 80020ae:	60bb      	str	r3, [r7, #8]
 80020b0:	78fb      	ldrb	r3, [r7, #3]
 80020b2:	015a      	lsls	r2, r3, #5
 80020b4:	687b      	ldr	r3, [r7, #4]
 80020b6:	4413      	add	r3, r2
 80020b8:	f503 63a0 	add.w	r3, r3, #1280	; 0x500
 80020bc:	461a      	mov	r2, r3
 80020be:	68bb      	ldr	r3, [r7, #8]
 80020c0:	6013      	str	r3, [r2, #0]
 80020c2:	2300      	movs	r3, #0
 80020c4:	4618      	mov	r0, r3
 80020c6:	3714      	adds	r7, #20
 80020c8:	46bd      	mov	sp, r7
 80020ca:	f85d 7b04 	ldr.w	r7, [sp], #4
 80020ce:	4770      	bx	lr
 80020d0:	1ff80000 	.word	0x1ff80000

080020d4 <USB_StopHost>:
 80020d4:	b580      	push	{r7, lr}
 80020d6:	b086      	sub	sp, #24
 80020d8:	af00      	add	r7, sp, #0
 80020da:	6078      	str	r0, [r7, #4]
 80020dc:	2300      	movs	r3, #0
 80020de:	613b      	str	r3, [r7, #16]
 80020e0:	6878      	ldr	r0, [r7, #4]
 80020e2:	f000 f93f 	bl	8002364 <USB_DisableGlobalInt>
 80020e6:	2110      	movs	r1, #16
 80020e8:	6878      	ldr	r0, [r7, #4]
 80020ea:	f000 f95d 	bl	80023a8 <USB_FlushTxFifo>
 80020ee:	6878      	ldr	r0, [r7, #4]
 80020f0:	f000 f96c 	bl	80023cc <USB_FlushRxFifo>
 80020f4:	2300      	movs	r3, #0
 80020f6:	75fb      	strb	r3, [r7, #23]
 80020f8:	e01f      	b.n	800213a <USB_StopHost+0x66>
 80020fa:	7dfb      	ldrb	r3, [r7, #23]
 80020fc:	015a      	lsls	r2, r3, #5
 80020fe:	687b      	ldr	r3, [r7, #4]
 8002100:	4413      	add	r3, r2
 8002102:	f503 63a0 	add.w	r3, r3, #1280	; 0x500
 8002106:	681b      	ldr	r3, [r3, #0]
 8002108:	60fb      	str	r3, [r7, #12]
 800210a:	68fb      	ldr	r3, [r7, #12]
 800210c:	f043 4380 	orr.w	r3, r3, #1073741824	; 0x40000000
 8002110:	60fb      	str	r3, [r7, #12]
 8002112:	68fb      	ldr	r3, [r7, #12]
 8002114:	f023 4300 	bic.w	r3, r3, #2147483648	; 0x80000000
 8002118:	60fb      	str	r3, [r7, #12]
 800211a:	68fb      	ldr	r3, [r7, #12]
 800211c:	f423 4300 	bic.w	r3, r3, #32768	; 0x8000
 8002120:	60fb      	str	r3, [r7, #12]
 8002122:	7dfb      	ldrb	r3, [r7, #23]
 8002124:	015a      	lsls	r2, r3, #5
 8002126:	687b      	ldr	r3, [r7, #4]
 8002128:	4413      	add	r3, r2
 800212a:	f503 63a0 	add.w	r3, r3, #1280	; 0x500
 800212e:	461a      	mov	r2, r3
 8002130:	68fb      	ldr	r3, [r7, #12]
 8002132:	6013      	str	r3, [r2, #0]
 8002134:	7dfb      	ldrb	r3, [r7, #23]
 8002136:	3301      	adds	r3, #1
 8002138:	75fb      	strb	r3, [r7, #23]
 800213a:	7dfb      	ldrb	r3, [r7, #23]
 800213c:	2b0f      	cmp	r3, #15
 800213e:	d9dc      	bls.n	80020fa <USB_StopHost+0x26>
 8002140:	2300      	movs	r3, #0
 8002142:	75fb      	strb	r3, [r7, #23]
 8002144:	e034      	b.n	80021b0 <USB_StopHost+0xdc>
 8002146:	7dfb      	ldrb	r3, [r7, #23]
 8002148:	015a      	lsls	r2, r3, #5
 800214a:	687b      	ldr	r3, [r7, #4]
 800214c:	4413      	add	r3, r2
 800214e:	f503 63a0 	add.w	r3, r3, #1280	; 0x500
 8002152:	681b      	ldr	r3, [r3, #0]
 8002154:	60fb      	str	r3, [r7, #12]
 8002156:	68fb      	ldr	r3, [r7, #12]
 8002158:	f043 4380 	orr.w	r3, r3, #1073741824	; 0x40000000
 800215c:	60fb      	str	r3, [r7, #12]
 800215e:	68fb      	ldr	r3, [r7, #12]
 8002160:	f043 4300 	orr.w	r3, r3, #2147483648	; 0x80000000
 8002164:	60fb      	str	r3, [r7, #12]
 8002166:	68fb      	ldr	r3, [r7, #12]
 8002168:	f423 4300 	bic.w	r3, r3, #32768	; 0x8000
 800216c:	60fb      	str	r3, [r7, #12]
 800216e:	7dfb      	ldrb	r3, [r7, #23]
 8002170:	015a      	lsls	r2, r3, #5
 8002172:	687b      	ldr	r3, [r7, #4]
 8002174:	4413      	add	r3, r2
 8002176:	f503 63a0 	add.w	r3, r3, #1280	; 0x500
 800217a:	461a      	mov	r2, r3
 800217c:	68fb      	ldr	r3, [r7, #12]
 800217e:	6013      	str	r3, [r2, #0]
 8002180:	693b      	ldr	r3, [r7, #16]
 8002182:	3301      	adds	r3, #1
 8002184:	613b      	str	r3, [r7, #16]
 8002186:	693b      	ldr	r3, [r7, #16]
 8002188:	f5b3 7f7a 	cmp.w	r3, #1000	; 0x3e8
 800218c:	d80c      	bhi.n	80021a8 <USB_StopHost+0xd4>
 800218e:	7dfb      	ldrb	r3, [r7, #23]
 8002190:	015a      	lsls	r2, r3, #5
 8002192:	687b      	ldr	r3, [r7, #4]
 8002194:	4413      	add	r3, r2
 8002196:	f503 63a0 	add.w	r3, r3, #1280	; 0x500
 800219a:	681b      	ldr	r3, [r3, #0]
 800219c:	f003 4300 	and.w	r3, r3, #2147483648	; 0x80000000
 80021a0:	f1b3 4f00 	cmp.w	r3, #2147483648	; 0x80000000
 80021a4:	d0ec      	beq.n	8002180 <USB_StopHost+0xac>
 80021a6:	e000      	b.n	80021aa <USB_StopHost+0xd6>
 80021a8:	bf00      	nop
 80021aa:	7dfb      	ldrb	r3, [r7, #23]
 80021ac:	3301      	adds	r3, #1
 80021ae:	75fb      	strb	r3, [r7, #23]
 80021b0:	7dfb      	ldrb	r3, [r7, #23]
 80021b2:	2b0f      	cmp	r3, #15
 80021b4:	d9c7      	bls.n	8002146 <USB_StopHost+0x72>
 80021b6:	687b      	ldr	r3, [r7, #4]
 80021b8:	f503 6380 	add.w	r3, r3, #1024	; 0x400
 80021bc:	461a      	mov	r2, r3
 80021be:	f04f 33ff 	mov.w	r3, #4294967295	; 0xffffffff
 80021c2:	6153      	str	r3, [r2, #20]
 80021c4:	687b      	ldr	r3, [r7, #4]
 80021c6:	f04f 32ff 	mov.w	r2, #4294967295	; 0xffffffff
 80021ca:	615a      	str	r2, [r3, #20]
 80021cc:	6878      	ldr	r0, [r7, #4]
 80021ce:	f000 f8c1 	bl	8002354 <USB_EnableGlobalInt>
 80021d2:	2300      	movs	r3, #0
 80021d4:	4618      	mov	r0, r3
 80021d6:	3718      	adds	r7, #24
 80021d8:	46bd      	mov	sp, r7
 80021da:	bd80      	pop	{r7, pc}

080021dc <USB_StopHostChannel>:
 80021dc:	b580      	push	{r7, lr}
 80021de:	b084      	sub	sp, #16
 80021e0:	af00      	add	r7, sp, #0
 80021e2:	6078      	str	r0, [r7, #4]
 80021e4:	460b      	mov	r3, r1
 80021e6:	70fb      	strb	r3, [r7, #3]
 80021e8:	2300      	movs	r3, #0
 80021ea:	60fb      	str	r3, [r7, #12]
 80021ec:	6878      	ldr	r0, [r7, #4]
 80021ee:	f000 f8b9 	bl	8002364 <USB_DisableGlobalInt>
 80021f2:	78fb      	ldrb	r3, [r7, #3]
 80021f4:	015a      	lsls	r2, r3, #5
 80021f6:	687b      	ldr	r3, [r7, #4]
 80021f8:	4413      	add	r3, r2
 80021fa:	f503 63a0 	add.w	r3, r3, #1280	; 0x500
 80021fe:	681b      	ldr	r3, [r3, #0]
 8002200:	60bb      	str	r3, [r7, #8]
 8002202:	68bb      	ldr	r3, [r7, #8]
 8002204:	f043 4380 	orr.w	r3, r3, #1073741824	; 0x40000000
 8002208:	60bb      	str	r3, [r7, #8]
 800220a:	68bb      	ldr	r3, [r7, #8]
 800220c:	f023 4300 	bic.w	r3, r3, #2147483648	; 0x80000000
 8002210:	60bb      	str	r3, [r7, #8]
 8002212:	68bb      	ldr	r3, [r7, #8]
 8002214:	f423 4300 	bic.w	r3, r3, #32768	; 0x8000
 8002218:	60bb      	str	r3, [r7, #8]
 800221a:	78fb      	ldrb	r3, [r7, #3]
 800221c:	015a      	lsls	r2, r3, #5
 800221e:	687b      	ldr	r3, [r7, #4]
 8002220:	4413      	add	r3, r2
 8002222:	f503 63a0 	add.w	r3, r3, #1280	; 0x500
 8002226:	461a      	mov	r2, r3
 8002228:	68bb      	ldr	r3, [r7, #8]
 800222a:	6013      	str	r3, [r2, #0]
 800222c:	78fb      	ldrb	r3, [r7, #3]
 800222e:	015a      	lsls	r2, r3, #5
 8002230:	687b      	ldr	r3, [r7, #4]
 8002232:	4413      	add	r3, r2
 8002234:	f503 63a0 	add.w	r3, r3, #1280	; 0x500
 8002238:	681b      	ldr	r3, [r3, #0]
 800223a:	60bb      	str	r3, [r7, #8]
 800223c:	68bb      	ldr	r3, [r7, #8]
 800223e:	f043 4380 	orr.w	r3, r3, #1073741824	; 0x40000000
 8002242:	60bb      	str	r3, [r7, #8]
 8002244:	68bb      	ldr	r3, [r7, #8]
 8002246:	f043 4300 	orr.w	r3, r3, #2147483648	; 0x80000000
 800224a:	60bb      	str	r3, [r7, #8]
 800224c:	68bb      	ldr	r3, [r7, #8]
 800224e:	f423 4300 	bic.w	r3, r3, #32768	; 0x8000
 8002252:	60bb      	str	r3, [r7, #8]
 8002254:	78fb      	ldrb	r3, [r7, #3]
 8002256:	015a      	lsls	r2, r3, #5
 8002258:	687b      	ldr	r3, [r7, #4]
 800225a:	4413      	add	r3, r2
 800225c:	f503 63a0 	add.w	r3, r3, #1280	; 0x500
 8002260:	461a      	mov	r2, r3
 8002262:	68bb      	ldr	r3, [r7, #8]
 8002264:	6013      	str	r3, [r2, #0]
 8002266:	68fb      	ldr	r3, [r7, #12]
 8002268:	3301      	adds	r3, #1
 800226a:	60fb      	str	r3, [r7, #12]
 800226c:	68fb      	ldr	r3, [r7, #12]
 800226e:	f5b3 7f7a 	cmp.w	r3, #1000	; 0x3e8
 8002272:	d80c      	bhi.n	800228e <USB_StopHostChannel+0xb2>
 8002274:	78fb      	ldrb	r3, [r7, #3]
 8002276:	015a      	lsls	r2, r3, #5
 8002278:	687b      	ldr	r3, [r7, #4]
 800227a:	4413      	add	r3, r2
 800227c:	f503 63a0 	add.w	r3, r3, #1280	; 0x500
 8002280:	681b      	ldr	r3, [r3, #0]
 8002282:	f003 4300 	and.w	r3, r3, #2147483648	; 0x80000000
 8002286:	f1b3 4f00 	cmp.w	r3, #2147483648	; 0x80000000
 800228a:	d0ec      	beq.n	8002266 <USB_StopHostChannel+0x8a>
 800228c:	e000      	b.n	8002290 <USB_StopHostChannel+0xb4>
 800228e:	bf00      	nop
 8002290:	6878      	ldr	r0, [r7, #4]
 8002292:	f000 f85f 	bl	8002354 <USB_EnableGlobalInt>
 8002296:	2300      	movs	r3, #0
 8002298:	4618      	mov	r0, r3
 800229a:	3710      	adds	r7, #16
 800229c:	46bd      	mov	sp, r7
 800229e:	bd80      	pop	{r7, pc}

080022a0 <USB_CoreInit>:
 80022a0:	b084      	sub	sp, #16
 80022a2:	f10d 0c04 	add.w	ip, sp, #4
 80022a6:	e88c 000e 	stmia.w	ip, {r1, r2, r3}
 80022aa:	9b06      	ldr	r3, [sp, #24]
 80022ac:	2b01      	cmp	r3, #1
 80022ae:	d130      	bne.n	8002312 <USB_CoreInit+0x72>
 80022b0:	6b83      	ldr	r3, [r0, #56]	; 0x38
 80022b2:	9a0d      	ldr	r2, [sp, #52]	; 0x34
 80022b4:	f423 3380 	bic.w	r3, r3, #65536	; 0x10000
 80022b8:	6383      	str	r3, [r0, #56]	; 0x38
 80022ba:	68c3      	ldr	r3, [r0, #12]
 80022bc:	f423 0384 	bic.w	r3, r3, #4325376	; 0x420000
 80022c0:	f023 0340 	bic.w	r3, r3, #64	; 0x40
 80022c4:	60c3      	str	r3, [r0, #12]
 80022c6:	68c3      	ldr	r3, [r0, #12]
 80022c8:	2a01      	cmp	r2, #1
 80022ca:	f423 1340 	bic.w	r3, r3, #3145728	; 0x300000
 80022ce:	60c3      	str	r3, [r0, #12]
 80022d0:	d039      	beq.n	8002346 <USB_CoreInit+0xa6>
 80022d2:	4b1f      	ldr	r3, [pc, #124]	; (8002350 <USB_CoreInit+0xb0>)
 80022d4:	e001      	b.n	80022da <USB_CoreInit+0x3a>
 80022d6:	3b01      	subs	r3, #1
 80022d8:	d00d      	beq.n	80022f6 <USB_CoreInit+0x56>
 80022da:	6902      	ldr	r2, [r0, #16]
 80022dc:	2a00      	cmp	r2, #0
 80022de:	dafa      	bge.n	80022d6 <USB_CoreInit+0x36>
 80022e0:	6902      	ldr	r2, [r0, #16]
 80022e2:	4b1b      	ldr	r3, [pc, #108]	; (8002350 <USB_CoreInit+0xb0>)
 80022e4:	f042 0201 	orr.w	r2, r2, #1
 80022e8:	6102      	str	r2, [r0, #16]
 80022ea:	e001      	b.n	80022f0 <USB_CoreInit+0x50>
 80022ec:	3b01      	subs	r3, #1
 80022ee:	d002      	beq.n	80022f6 <USB_CoreInit+0x56>
 80022f0:	6902      	ldr	r2, [r0, #16]
 80022f2:	07d1      	lsls	r1, r2, #31
 80022f4:	d4fa      	bmi.n	80022ec <USB_CoreInit+0x4c>
 80022f6:	9b04      	ldr	r3, [sp, #16]
 80022f8:	2b01      	cmp	r3, #1
 80022fa:	d107      	bne.n	800230c <USB_CoreInit+0x6c>
 80022fc:	6883      	ldr	r3, [r0, #8]
 80022fe:	f043 030c 	orr.w	r3, r3, #12
 8002302:	6083      	str	r3, [r0, #8]
 8002304:	6883      	ldr	r3, [r0, #8]
 8002306:	f043 0320 	orr.w	r3, r3, #32
 800230a:	6083      	str	r3, [r0, #8]
 800230c:	2000      	movs	r0, #0
 800230e:	b004      	add	sp, #16
 8002310:	4770      	bx	lr
 8002312:	68c2      	ldr	r2, [r0, #12]
 8002314:	4b0e      	ldr	r3, [pc, #56]	; (8002350 <USB_CoreInit+0xb0>)
 8002316:	f042 0240 	orr.w	r2, r2, #64	; 0x40
 800231a:	60c2      	str	r2, [r0, #12]
 800231c:	e001      	b.n	8002322 <USB_CoreInit+0x82>
 800231e:	3b01      	subs	r3, #1
 8002320:	d00d      	beq.n	800233e <USB_CoreInit+0x9e>
 8002322:	6902      	ldr	r2, [r0, #16]
 8002324:	2a00      	cmp	r2, #0
 8002326:	dafa      	bge.n	800231e <USB_CoreInit+0x7e>
 8002328:	6902      	ldr	r2, [r0, #16]
 800232a:	4b09      	ldr	r3, [pc, #36]	; (8002350 <USB_CoreInit+0xb0>)
 800232c:	f042 0201 	orr.w	r2, r2, #1
 8002330:	6102      	str	r2, [r0, #16]
 8002332:	e001      	b.n	8002338 <USB_CoreInit+0x98>
 8002334:	3b01      	subs	r3, #1
 8002336:	d002      	beq.n	800233e <USB_CoreInit+0x9e>
 8002338:	6902      	ldr	r2, [r0, #16]
 800233a:	07d2      	lsls	r2, r2, #31
 800233c:	d4fa      	bmi.n	8002334 <USB_CoreInit+0x94>
 800233e:	f44f 3380 	mov.w	r3, #65536	; 0x10000
 8002342:	6383      	str	r3, [r0, #56]	; 0x38
 8002344:	e7d7      	b.n	80022f6 <USB_CoreInit+0x56>
 8002346:	68c3      	ldr	r3, [r0, #12]
 8002348:	f443 1380 	orr.w	r3, r3, #1048576	; 0x100000
 800234c:	60c3      	str	r3, [r0, #12]
 800234e:	e7c0      	b.n	80022d2 <USB_CoreInit+0x32>
 8002350:	00030d40 	.word	0x00030d40

08002354 <USB_EnableGlobalInt>:
 8002354:	4603      	mov	r3, r0
 8002356:	2000      	movs	r0, #0
 8002358:	689a      	ldr	r2, [r3, #8]
 800235a:	f042 0201 	orr.w	r2, r2, #1
 800235e:	609a      	str	r2, [r3, #8]
 8002360:	4770      	bx	lr
 8002362:	bf00      	nop

08002364 <USB_DisableGlobalInt>:
 8002364:	4603      	mov	r3, r0
 8002366:	2000      	movs	r0, #0
 8002368:	689a      	ldr	r2, [r3, #8]
 800236a:	f022 0201 	bic.w	r2, r2, #1
 800236e:	609a      	str	r2, [r3, #8]
 8002370:	4770      	bx	lr
 8002372:	bf00      	nop

08002374 <USB_SetCurrentMode>:
 8002374:	b508      	push	{r3, lr}
 8002376:	68c3      	ldr	r3, [r0, #12]
 8002378:	2901      	cmp	r1, #1
 800237a:	f023 43c0 	bic.w	r3, r3, #1610612736	; 0x60000000
 800237e:	60c3      	str	r3, [r0, #12]
 8002380:	d009      	beq.n	8002396 <USB_SetCurrentMode+0x22>
 8002382:	b919      	cbnz	r1, 800238c <USB_SetCurrentMode+0x18>
 8002384:	68c3      	ldr	r3, [r0, #12]
 8002386:	f043 4380 	orr.w	r3, r3, #1073741824	; 0x40000000
 800238a:	60c3      	str	r3, [r0, #12]
 800238c:	2032      	movs	r0, #50	; 0x32
 800238e:	f7fd ffb5 	bl	80002fc <HAL_Delay>
 8002392:	2000      	movs	r0, #0
 8002394:	bd08      	pop	{r3, pc}
 8002396:	68c3      	ldr	r3, [r0, #12]
 8002398:	f043 5300 	orr.w	r3, r3, #536870912	; 0x20000000
 800239c:	60c3      	str	r3, [r0, #12]
 800239e:	2032      	movs	r0, #50	; 0x32
 80023a0:	f7fd ffac 	bl	80002fc <HAL_Delay>
 80023a4:	2000      	movs	r0, #0
 80023a6:	bd08      	pop	{r3, pc}

080023a8 <USB_FlushTxFifo>:
 80023a8:	0189      	lsls	r1, r1, #6
 80023aa:	f041 0120 	orr.w	r1, r1, #32
 80023ae:	4a06      	ldr	r2, [pc, #24]	; (80023c8 <USB_FlushTxFifo+0x20>)
 80023b0:	6101      	str	r1, [r0, #16]
 80023b2:	e001      	b.n	80023b8 <USB_FlushTxFifo+0x10>
 80023b4:	3a01      	subs	r2, #1
 80023b6:	d005      	beq.n	80023c4 <USB_FlushTxFifo+0x1c>
 80023b8:	6903      	ldr	r3, [r0, #16]
 80023ba:	f013 0320 	ands.w	r3, r3, #32
 80023be:	d1f9      	bne.n	80023b4 <USB_FlushTxFifo+0xc>
 80023c0:	4618      	mov	r0, r3
 80023c2:	4770      	bx	lr
 80023c4:	2003      	movs	r0, #3
 80023c6:	4770      	bx	lr
 80023c8:	00030d40 	.word	0x00030d40

080023cc <USB_FlushRxFifo>:
 80023cc:	2310      	movs	r3, #16
 80023ce:	4a06      	ldr	r2, [pc, #24]	; (80023e8 <USB_FlushRxFifo+0x1c>)
 80023d0:	6103      	str	r3, [r0, #16]
 80023d2:	e001      	b.n	80023d8 <USB_FlushRxFifo+0xc>
 80023d4:	3a01      	subs	r2, #1
 80023d6:	d005      	beq.n	80023e4 <USB_FlushRxFifo+0x18>
 80023d8:	6903      	ldr	r3, [r0, #16]
 80023da:	f013 0310 	ands.w	r3, r3, #16
 80023de:	d1f9      	bne.n	80023d4 <USB_FlushRxFifo+0x8>
 80023e0:	4618      	mov	r0, r3
 80023e2:	4770      	bx	lr
 80023e4:	2003      	movs	r0, #3
 80023e6:	4770      	bx	lr
 80023e8:	00030d40 	.word	0x00030d40

080023ec <USB_WritePacket>:
 80023ec:	b410      	push	{r4}
 80023ee:	f89d 4004 	ldrb.w	r4, [sp, #4]
 80023f2:	b97c      	cbnz	r4, 8002414 <USB_WritePacket+0x28>
 80023f4:	f103 0c03 	add.w	ip, r3, #3
 80023f8:	ea5f 0cac 	movs.w	ip, ip, asr #2
 80023fc:	d00a      	beq.n	8002414 <USB_WritePacket+0x28>
 80023fe:	f500 5080 	add.w	r0, r0, #4096	; 0x1000
 8002402:	eb00 3202 	add.w	r2, r0, r2, lsl #12
 8002406:	4623      	mov	r3, r4
 8002408:	3301      	adds	r3, #1
 800240a:	f851 0b04 	ldr.w	r0, [r1], #4
 800240e:	6010      	str	r0, [r2, #0]
 8002410:	459c      	cmp	ip, r3
 8002412:	d1f9      	bne.n	8002408 <USB_WritePacket+0x1c>
 8002414:	2000      	movs	r0, #0
 8002416:	f85d 4b04 	ldr.w	r4, [sp], #4
 800241a:	4770      	bx	lr

0800241c <USB_ReadPacket>:
 800241c:	3203      	adds	r2, #3
 800241e:	ea5f 0ca2 	movs.w	ip, r2, asr #2
 8002422:	d00e      	beq.n	8002442 <USB_ReadPacket+0x26>
 8002424:	b510      	push	{r4, lr}
 8002426:	460a      	mov	r2, r1
 8002428:	f500 5e80 	add.w	lr, r0, #4096	; 0x1000
 800242c:	2300      	movs	r3, #0
 800242e:	3301      	adds	r3, #1
 8002430:	f8de 4000 	ldr.w	r4, [lr]
 8002434:	f842 4b04 	str.w	r4, [r2], #4
 8002438:	459c      	cmp	ip, r3
 800243a:	d1f8      	bne.n	800242e <USB_ReadPacket+0x12>
 800243c:	eb01 008c 	add.w	r0, r1, ip, lsl #2
 8002440:	bd10      	pop	{r4, pc}
 8002442:	4608      	mov	r0, r1
 8002444:	4770      	bx	lr
 8002446:	bf00      	nop

08002448 <USB_ReadInterrupts>:
 8002448:	6942      	ldr	r2, [r0, #20]
 800244a:	6980      	ldr	r0, [r0, #24]
 800244c:	4010      	ands	r0, r2
 800244e:	4770      	bx	lr

08002450 <USB_GetMode>:
 8002450:	6940      	ldr	r0, [r0, #20]
 8002452:	f000 0001 	and.w	r0, r0, #1
 8002456:	4770      	bx	lr

08002458 <USB_HostInit>:
 8002458:	b084      	sub	sp, #16
 800245a:	b530      	push	{r4, r5, lr}
 800245c:	4604      	mov	r4, r0
 800245e:	2000      	movs	r0, #0
 8002460:	f8c4 0e00 	str.w	r0, [r4, #3584]	; 0xe00
 8002464:	6ba0      	ldr	r0, [r4, #56]	; 0x38
 8002466:	f420 2080 	bic.w	r0, r0, #262144	; 0x40000
 800246a:	63a0      	str	r0, [r4, #56]	; 0x38
 800246c:	b083      	sub	sp, #12
 800246e:	6ba0      	ldr	r0, [r4, #56]	; 0x38
 8002470:	ad07      	add	r5, sp, #28
 8002472:	e885 000e 	stmia.w	r5, {r1, r2, r3}
 8002476:	f420 2000 	bic.w	r0, r0, #524288	; 0x80000
 800247a:	63a0      	str	r0, [r4, #56]	; 0x38
 800247c:	6ba3      	ldr	r3, [r4, #56]	; 0x38
 800247e:	9a09      	ldr	r2, [sp, #36]	; 0x24
 8002480:	9908      	ldr	r1, [sp, #32]
 8002482:	f443 1300 	orr.w	r3, r3, #2097152	; 0x200000
 8002486:	63a3      	str	r3, [r4, #56]	; 0x38
 8002488:	2a03      	cmp	r2, #3
 800248a:	f8d4 3400 	ldr.w	r3, [r4, #1024]	; 0x400
 800248e:	d057      	beq.n	8002540 <USB_HostInit+0xe8>
 8002490:	f023 0304 	bic.w	r3, r3, #4
 8002494:	f8c4 3400 	str.w	r3, [r4, #1024]	; 0x400
 8002498:	f44f 6284 	mov.w	r2, #1056	; 0x420
 800249c:	4b30      	ldr	r3, [pc, #192]	; (8002560 <USB_HostInit+0x108>)
 800249e:	6122      	str	r2, [r4, #16]
 80024a0:	e001      	b.n	80024a6 <USB_HostInit+0x4e>
 80024a2:	3b01      	subs	r3, #1
 80024a4:	d002      	beq.n	80024ac <USB_HostInit+0x54>
 80024a6:	6922      	ldr	r2, [r4, #16]
 80024a8:	0690      	lsls	r0, r2, #26
 80024aa:	d4fa      	bmi.n	80024a2 <USB_HostInit+0x4a>
 80024ac:	2210      	movs	r2, #16
 80024ae:	4b2c      	ldr	r3, [pc, #176]	; (8002560 <USB_HostInit+0x108>)
 80024b0:	6122      	str	r2, [r4, #16]
 80024b2:	e001      	b.n	80024b8 <USB_HostInit+0x60>
 80024b4:	3b01      	subs	r3, #1
 80024b6:	d002      	beq.n	80024be <USB_HostInit+0x66>
 80024b8:	6922      	ldr	r2, [r4, #16]
 80024ba:	06d2      	lsls	r2, r2, #27
 80024bc:	d4fa      	bmi.n	80024b4 <USB_HostInit+0x5c>
 80024be:	b161      	cbz	r1, 80024da <USB_HostInit+0x82>
 80024c0:	2200      	movs	r2, #0
 80024c2:	f504 63a0 	add.w	r3, r4, #1280	; 0x500
 80024c6:	f04f 35ff 	mov.w	r5, #4294967295	; 0xffffffff
 80024ca:	4610      	mov	r0, r2
 80024cc:	3201      	adds	r2, #1
 80024ce:	428a      	cmp	r2, r1
 80024d0:	609d      	str	r5, [r3, #8]
 80024d2:	60d8      	str	r0, [r3, #12]
 80024d4:	f103 0320 	add.w	r3, r3, #32
 80024d8:	d1f8      	bne.n	80024cc <USB_HostInit+0x74>
 80024da:	f8d4 3440 	ldr.w	r3, [r4, #1088]	; 0x440
 80024de:	9301      	str	r3, [sp, #4]
 80024e0:	9b01      	ldr	r3, [sp, #4]
 80024e2:	f023 032e 	bic.w	r3, r3, #46	; 0x2e
 80024e6:	9301      	str	r3, [sp, #4]
 80024e8:	9b01      	ldr	r3, [sp, #4]
 80024ea:	04db      	lsls	r3, r3, #19
 80024ec:	d404      	bmi.n	80024f8 <USB_HostInit+0xa0>
 80024ee:	9b01      	ldr	r3, [sp, #4]
 80024f0:	f443 5380 	orr.w	r3, r3, #4096	; 0x1000
 80024f4:	f8c4 3440 	str.w	r3, [r4, #1088]	; 0x440
 80024f8:	20c8      	movs	r0, #200	; 0xc8
 80024fa:	9b01      	ldr	r3, [sp, #4]
 80024fc:	f7fd fefe 	bl	80002fc <HAL_Delay>
 8002500:	2200      	movs	r2, #0
 8002502:	f04f 33ff 	mov.w	r3, #4294967295	; 0xffffffff
 8002506:	f1b4 4fa0 	cmp.w	r4, #1342177280	; 0x50000000
 800250a:	61a2      	str	r2, [r4, #24]
 800250c:	6163      	str	r3, [r4, #20]
 800250e:	d01f      	beq.n	8002550 <USB_HostInit+0xf8>
 8002510:	4a14      	ldr	r2, [pc, #80]	; (8002564 <USB_HostInit+0x10c>)
 8002512:	4b15      	ldr	r3, [pc, #84]	; (8002568 <USB_HostInit+0x110>)
 8002514:	f44f 7100 	mov.w	r1, #512	; 0x200
 8002518:	6261      	str	r1, [r4, #36]	; 0x24
 800251a:	62a2      	str	r2, [r4, #40]	; 0x28
 800251c:	f8c4 3100 	str.w	r3, [r4, #256]	; 0x100
 8002520:	9b0a      	ldr	r3, [sp, #40]	; 0x28
 8002522:	b91b      	cbnz	r3, 800252c <USB_HostInit+0xd4>
 8002524:	69a3      	ldr	r3, [r4, #24]
 8002526:	f043 0310 	orr.w	r3, r3, #16
 800252a:	61a3      	str	r3, [r4, #24]
 800252c:	69a2      	ldr	r2, [r4, #24]
 800252e:	4b0f      	ldr	r3, [pc, #60]	; (800256c <USB_HostInit+0x114>)
 8002530:	2000      	movs	r0, #0
 8002532:	4313      	orrs	r3, r2
 8002534:	61a3      	str	r3, [r4, #24]
 8002536:	b003      	add	sp, #12
 8002538:	e8bd 4030 	ldmia.w	sp!, {r4, r5, lr}
 800253c:	b004      	add	sp, #16
 800253e:	4770      	bx	lr
 8002540:	f1b4 4fa0 	cmp.w	r4, #1342177280	; 0x50000000
 8002544:	d0a4      	beq.n	8002490 <USB_HostInit+0x38>
 8002546:	f043 0304 	orr.w	r3, r3, #4
 800254a:	f8c4 3400 	str.w	r3, [r4, #1024]	; 0x400
 800254e:	e7a3      	b.n	8002498 <USB_HostInit+0x40>
 8002550:	4a07      	ldr	r2, [pc, #28]	; (8002570 <USB_HostInit+0x118>)
 8002552:	4b08      	ldr	r3, [pc, #32]	; (8002574 <USB_HostInit+0x11c>)
 8002554:	2180      	movs	r1, #128	; 0x80
 8002556:	6261      	str	r1, [r4, #36]	; 0x24
 8002558:	62a2      	str	r2, [r4, #40]	; 0x28
 800255a:	f8c4 3100 	str.w	r3, [r4, #256]	; 0x100
 800255e:	e7df      	b.n	8002520 <USB_HostInit+0xc8>
 8002560:	00030d40 	.word	0x00030d40
 8002564:	01000200 	.word	0x01000200
 8002568:	00e00300 	.word	0x00e00300
 800256c:	a3200008 	.word	0xa3200008
 8002570:	00600080 	.word	0x00600080
 8002574:	004000e0 	.word	0x004000e0

08002578 <USB_InitFSLSPClkSel>:
 8002578:	f8d0 3400 	ldr.w	r3, [r0, #1024]	; 0x400
 800257c:	f023 0303 	bic.w	r3, r3, #3
 8002580:	f8c0 3400 	str.w	r3, [r0, #1024]	; 0x400
 8002584:	f8d0 2400 	ldr.w	r2, [r0, #1024]	; 0x400
 8002588:	f001 0303 	and.w	r3, r1, #3
 800258c:	4313      	orrs	r3, r2
 800258e:	2901      	cmp	r1, #1
 8002590:	f8c0 3400 	str.w	r3, [r0, #1024]	; 0x400
 8002594:	f500 6080 	add.w	r0, r0, #1024	; 0x400
 8002598:	d006      	beq.n	80025a8 <USB_InitFSLSPClkSel+0x30>
 800259a:	2902      	cmp	r1, #2
 800259c:	bf04      	itt	eq
 800259e:	f241 7370 	movweq	r3, #6000	; 0x1770
 80025a2:	6043      	streq	r3, [r0, #4]
 80025a4:	2000      	movs	r0, #0
 80025a6:	4770      	bx	lr
 80025a8:	f64b 3380 	movw	r3, #48000	; 0xbb80
 80025ac:	6043      	str	r3, [r0, #4]
 80025ae:	2000      	movs	r0, #0
 80025b0:	4770      	bx	lr
 80025b2:	bf00      	nop

080025b4 <USB_ResetPort>:
 80025b4:	b510      	push	{r4, lr}
 80025b6:	4604      	mov	r4, r0
 80025b8:	b082      	sub	sp, #8
 80025ba:	f8d4 3440 	ldr.w	r3, [r4, #1088]	; 0x440
 80025be:	9301      	str	r3, [sp, #4]
 80025c0:	9b01      	ldr	r3, [sp, #4]
 80025c2:	f023 032e 	bic.w	r3, r3, #46	; 0x2e
 80025c6:	9301      	str	r3, [sp, #4]
 80025c8:	9b01      	ldr	r3, [sp, #4]
 80025ca:	f443 7380 	orr.w	r3, r3, #256	; 0x100
 80025ce:	f8c4 3440 	str.w	r3, [r4, #1088]	; 0x440
 80025d2:	200a      	movs	r0, #10
 80025d4:	f7fd fe92 	bl	80002fc <HAL_Delay>
 80025d8:	9b01      	ldr	r3, [sp, #4]
 80025da:	2000      	movs	r0, #0
 80025dc:	f423 7380 	bic.w	r3, r3, #256	; 0x100
 80025e0:	f8c4 3440 	str.w	r3, [r4, #1088]	; 0x440
 80025e4:	b002      	add	sp, #8
 80025e6:	bd10      	pop	{r4, pc}

080025e8 <USB_DriveVbus>:
 80025e8:	b082      	sub	sp, #8
 80025ea:	f8d0 3440 	ldr.w	r3, [r0, #1088]	; 0x440
 80025ee:	9301      	str	r3, [sp, #4]
 80025f0:	9b01      	ldr	r3, [sp, #4]
 80025f2:	f023 032e 	bic.w	r3, r3, #46	; 0x2e
 80025f6:	9301      	str	r3, [sp, #4]
 80025f8:	9b01      	ldr	r3, [sp, #4]
 80025fa:	f413 5f80 	tst.w	r3, #4096	; 0x1000
 80025fe:	9b01      	ldr	r3, [sp, #4]
 8002600:	d101      	bne.n	8002606 <USB_DriveVbus+0x1e>
 8002602:	2901      	cmp	r1, #1
 8002604:	d00a      	beq.n	800261c <USB_DriveVbus+0x34>
 8002606:	04db      	lsls	r3, r3, #19
 8002608:	d505      	bpl.n	8002616 <USB_DriveVbus+0x2e>
 800260a:	b921      	cbnz	r1, 8002616 <USB_DriveVbus+0x2e>
 800260c:	9b01      	ldr	r3, [sp, #4]
 800260e:	f423 5380 	bic.w	r3, r3, #4096	; 0x1000
 8002612:	f8c0 3440 	str.w	r3, [r0, #1088]	; 0x440
 8002616:	2000      	movs	r0, #0
 8002618:	b002      	add	sp, #8
 800261a:	4770      	bx	lr
 800261c:	f443 5380 	orr.w	r3, r3, #4096	; 0x1000
 8002620:	f8c0 3440 	str.w	r3, [r0, #1088]	; 0x440
 8002624:	9b01      	ldr	r3, [sp, #4]
 8002626:	2000      	movs	r0, #0
 8002628:	b002      	add	sp, #8
 800262a:	4770      	bx	lr

0800262c <USB_GetHostSpeed>:
 800262c:	b082      	sub	sp, #8
 800262e:	f8d0 3440 	ldr.w	r3, [r0, #1088]	; 0x440
 8002632:	9301      	str	r3, [sp, #4]
 8002634:	9801      	ldr	r0, [sp, #4]
 8002636:	f3c0 4041 	ubfx	r0, r0, #17, #2
 800263a:	b002      	add	sp, #8
 800263c:	4770      	bx	lr
 800263e:	bf00      	nop

08002640 <USB_GetCurrentFrame>:
 8002640:	f500 6080 	add.w	r0, r0, #1024	; 0x400
 8002644:	6880      	ldr	r0, [r0, #8]
 8002646:	b280      	uxth	r0, r0
 8002648:	4770      	bx	lr
 800264a:	bf00      	nop

0800264c <USB_HC_Init>:
 800264c:	e92d 4170 	stmdb	sp!, {r4, r5, r6, r8, lr}
 8002650:	f500 6ca0 	add.w	ip, r0, #1280	; 0x500
 8002654:	eb0c 1c41 	add.w	ip, ip, r1, lsl #5
 8002658:	f89d e018 	ldrb.w	lr, [sp, #24]
 800265c:	f89d 4014 	ldrb.w	r4, [sp, #20]
 8002660:	f8bd 601c 	ldrh.w	r6, [sp, #28]
 8002664:	f04f 35ff 	mov.w	r5, #4294967295	; 0xffffffff
 8002668:	f8cc 5008 	str.w	r5, [ip, #8]
 800266c:	f1be 0f03 	cmp.w	lr, #3
 8002670:	d868      	bhi.n	8002744 <USB_HC_Init+0xf8>
 8002672:	e8df f00e 	tbb	[pc, lr]
 8002676:	5902      	.short	0x5902
 8002678:	4b02      	.short	0x4b02
 800267a:	f240 459d 	movw	r5, #1181	; 0x49d
 800267e:	f8cc 500c 	str.w	r5, [ip, #12]
 8002682:	b255      	sxtb	r5, r2
 8002684:	2d00      	cmp	r5, #0
 8002686:	db48      	blt.n	800271a <USB_HC_Init+0xce>
 8002688:	f1b0 4fa0 	cmp.w	r0, #1342177280	; 0x50000000
 800268c:	d005      	beq.n	800269a <USB_HC_Init+0x4e>
 800268e:	f8dc 800c 	ldr.w	r8, [ip, #12]
 8002692:	f048 0860 	orr.w	r8, r8, #96	; 0x60
 8002696:	f8cc 800c 	str.w	r8, [ip, #12]
 800269a:	059b      	lsls	r3, r3, #22
 800269c:	2c02      	cmp	r4, #2
 800269e:	ea4f 22c2 	mov.w	r2, r2, lsl #11
 80026a2:	f003 54fe 	and.w	r4, r3, #532676608	; 0x1fc00000
 80026a6:	f3c6 030a 	ubfx	r3, r6, #0, #11
 80026aa:	ea43 0304 	orr.w	r3, r3, r4
 80026ae:	f402 42f0 	and.w	r2, r2, #30720	; 0x7800
 80026b2:	ea43 0302 	orr.w	r3, r3, r2
 80026b6:	f405 4400 	and.w	r4, r5, #32768	; 0x8000
 80026ba:	f04f 0201 	mov.w	r2, #1
 80026be:	f8d0 5418 	ldr.w	r5, [r0, #1048]	; 0x418
 80026c2:	fa02 f101 	lsl.w	r1, r2, r1
 80026c6:	ea41 0105 	orr.w	r1, r1, r5
 80026ca:	f8c0 1418 	str.w	r1, [r0, #1048]	; 0x418
 80026ce:	6982      	ldr	r2, [r0, #24]
 80026d0:	f042 7200 	orr.w	r2, r2, #33554432	; 0x2000000
 80026d4:	6182      	str	r2, [r0, #24]
 80026d6:	ea4f 428e 	mov.w	r2, lr, lsl #18
 80026da:	f402 2240 	and.w	r2, r2, #786432	; 0xc0000
 80026de:	ea43 0302 	orr.w	r3, r3, r2
 80026e2:	ea43 0304 	orr.w	r3, r3, r4
 80026e6:	bf0c      	ite	eq
 80026e8:	f44f 3200 	moveq.w	r2, #131072	; 0x20000
 80026ec:	2200      	movne	r2, #0
 80026ee:	4313      	orrs	r3, r2
 80026f0:	f1be 0f03 	cmp.w	lr, #3
 80026f4:	f8cc 3000 	str.w	r3, [ip]
 80026f8:	d105      	bne.n	8002706 <USB_HC_Init+0xba>
 80026fa:	f8dc 3000 	ldr.w	r3, [ip]
 80026fe:	f043 5300 	orr.w	r3, r3, #536870912	; 0x20000000
 8002702:	f8cc 3000 	str.w	r3, [ip]
 8002706:	2000      	movs	r0, #0
 8002708:	e8bd 8170 	ldmia.w	sp!, {r4, r5, r6, r8, pc}
 800270c:	f240 659d 	movw	r5, #1693	; 0x69d
 8002710:	f8cc 500c 	str.w	r5, [ip, #12]
 8002714:	b255      	sxtb	r5, r2
 8002716:	2d00      	cmp	r5, #0
 8002718:	dabf      	bge.n	800269a <USB_HC_Init+0x4e>
 800271a:	f8dc 800c 	ldr.w	r8, [ip, #12]
 800271e:	f448 7880 	orr.w	r8, r8, #256	; 0x100
 8002722:	f8cc 800c 	str.w	r8, [ip, #12]
 8002726:	e7b8      	b.n	800269a <USB_HC_Init+0x4e>
 8002728:	f240 2525 	movw	r5, #549	; 0x225
 800272c:	f8cc 500c 	str.w	r5, [ip, #12]
 8002730:	b255      	sxtb	r5, r2
 8002732:	2d00      	cmp	r5, #0
 8002734:	dab1      	bge.n	800269a <USB_HC_Init+0x4e>
 8002736:	f8dc 800c 	ldr.w	r8, [ip, #12]
 800273a:	f448 78c0 	orr.w	r8, r8, #384	; 0x180
 800273e:	f8cc 800c 	str.w	r8, [ip, #12]
 8002742:	e7aa      	b.n	800269a <USB_HC_Init+0x4e>
 8002744:	b255      	sxtb	r5, r2
 8002746:	e7a8      	b.n	800269a <USB_HC_Init+0x4e>

08002748 <USBH_HID_SOFProcess>:
 8002748:	f890 3227 	ldrb.w	r3, [r0, #551]	; 0x227
 800274c:	f103 02b8 	add.w	r2, r3, #184	; 0xb8
 8002750:	f850 2022 	ldr.w	r2, [r0, r2, lsl #2]
 8002754:	7891      	ldrb	r1, [r2, #2]
 8002756:	2906      	cmp	r1, #6
 8002758:	d001      	beq.n	800275e <USBH_HID_SOFProcess+0x16>
 800275a:	2000      	movs	r0, #0
 800275c:	4770      	bx	lr
 800275e:	b410      	push	{r4}
 8002760:	f8d0 12c8 	ldr.w	r1, [r0, #712]	; 0x2c8
 8002764:	6a54      	ldr	r4, [r2, #36]	; 0x24
 8002766:	f8b2 c01e 	ldrh.w	ip, [r2, #30]
 800276a:	1b09      	subs	r1, r1, r4
 800276c:	4561      	cmp	r1, ip
 800276e:	d30c      	bcc.n	800278a <USBH_HID_SOFProcess+0x42>
 8002770:	2104      	movs	r1, #4
 8002772:	7091      	strb	r1, [r2, #2]
 8002774:	f890 22dd 	ldrb.w	r2, [r0, #733]	; 0x2dd
 8002778:	3301      	adds	r3, #1
 800277a:	b2db      	uxtb	r3, r3
 800277c:	429a      	cmp	r2, r3
 800277e:	f880 3227 	strb.w	r3, [r0, #551]	; 0x227
 8002782:	bf9c      	itt	ls
 8002784:	2300      	movls	r3, #0
 8002786:	f880 3227 	strbls.w	r3, [r0, #551]	; 0x227
 800278a:	2000      	movs	r0, #0
 800278c:	f85d 4b04 	ldr.w	r4, [sp], #4
 8002790:	4770      	bx	lr
 8002792:	bf00      	nop

08002794 <USBH_HID_InterfaceDeInit>:
 8002794:	e92d 41f0 	stmdb	sp!, {r4, r5, r6, r7, r8, lr}
 8002798:	4606      	mov	r6, r0
 800279a:	4824      	ldr	r0, [pc, #144]	; (800282c <USBH_HID_InterfaceDeInit+0x98>)
 800279c:	f896 12db 	ldrb.w	r1, [r6, #731]	; 0x2db
 80027a0:	f002 fd12 	bl	80051c8 <LOG>
 80027a4:	f896 32dd 	ldrb.w	r3, [r6, #733]	; 0x2dd
 80027a8:	2b00      	cmp	r3, #0
 80027aa:	d039      	beq.n	8002820 <USBH_HID_InterfaceDeInit+0x8c>
 80027ac:	2700      	movs	r7, #0
 80027ae:	463c      	mov	r4, r7
 80027b0:	46b8      	mov	r8, r7
 80027b2:	e00c      	b.n	80027ce <USBH_HID_InterfaceDeInit+0x3a>
 80027b4:	7829      	ldrb	r1, [r5, #0]
 80027b6:	bb29      	cbnz	r1, 8002804 <USBH_HID_InterfaceDeInit+0x70>
 80027b8:	4628      	mov	r0, r5
 80027ba:	f003 f95b 	bl	8005a74 <free>
 80027be:	f8c4 82e0 	str.w	r8, [r4, #736]	; 0x2e0
 80027c2:	f896 32dd 	ldrb.w	r3, [r6, #733]	; 0x2dd
 80027c6:	3701      	adds	r7, #1
 80027c8:	b2fc      	uxtb	r4, r7
 80027ca:	42a3      	cmp	r3, r4
 80027cc:	d928      	bls.n	8002820 <USBH_HID_InterfaceDeInit+0x8c>
 80027ce:	eb06 0484 	add.w	r4, r6, r4, lsl #2
 80027d2:	f8d4 52e0 	ldr.w	r5, [r4, #736]	; 0x2e0
 80027d6:	7869      	ldrb	r1, [r5, #1]
 80027d8:	2900      	cmp	r1, #0
 80027da:	d0eb      	beq.n	80027b4 <USBH_HID_InterfaceDeInit+0x20>
 80027dc:	4630      	mov	r0, r6
 80027de:	f002 fff3 	bl	80057c8 <USBH_LL_StopHC>
 80027e2:	7869      	ldrb	r1, [r5, #1]
 80027e4:	4630      	mov	r0, r6
 80027e6:	f002 fba9 	bl	8004f3c <USBH_ClosePipe>
 80027ea:	7869      	ldrb	r1, [r5, #1]
 80027ec:	4630      	mov	r0, r6
 80027ee:	f002 fc25 	bl	800503c <USBH_FreePipe>
 80027f2:	7829      	ldrb	r1, [r5, #0]
 80027f4:	f885 8001 	strb.w	r8, [r5, #1]
 80027f8:	b921      	cbnz	r1, 8002804 <USBH_HID_InterfaceDeInit+0x70>
 80027fa:	f8d4 52e0 	ldr.w	r5, [r4, #736]	; 0x2e0
 80027fe:	2d00      	cmp	r5, #0
 8002800:	d0dd      	beq.n	80027be <USBH_HID_InterfaceDeInit+0x2a>
 8002802:	e7d9      	b.n	80027b8 <USBH_HID_InterfaceDeInit+0x24>
 8002804:	4630      	mov	r0, r6
 8002806:	f002 ffdf 	bl	80057c8 <USBH_LL_StopHC>
 800280a:	7829      	ldrb	r1, [r5, #0]
 800280c:	4630      	mov	r0, r6
 800280e:	f002 fb95 	bl	8004f3c <USBH_ClosePipe>
 8002812:	7829      	ldrb	r1, [r5, #0]
 8002814:	4630      	mov	r0, r6
 8002816:	f002 fc11 	bl	800503c <USBH_FreePipe>
 800281a:	f885 8000 	strb.w	r8, [r5]
 800281e:	e7ec      	b.n	80027fa <USBH_HID_InterfaceDeInit+0x66>
 8002820:	2000      	movs	r0, #0
 8002822:	f886 02dd 	strb.w	r0, [r6, #733]	; 0x2dd
 8002826:	e8bd 81f0 	ldmia.w	sp!, {r4, r5, r6, r7, r8, pc}
 800282a:	bf00      	nop
 800282c:	0800675c 	.word	0x0800675c

08002830 <create_handle>:
 8002830:	b538      	push	{r3, r4, r5, lr}
 8002832:	2101      	movs	r1, #1
 8002834:	f890 52dd 	ldrb.w	r5, [r0, #733]	; 0x2dd
 8002838:	4604      	mov	r4, r0
 800283a:	2058      	movs	r0, #88	; 0x58
 800283c:	f003 f8e0 	bl	8005a00 <calloc>
 8002840:	f105 02b8 	add.w	r2, r5, #184	; 0xb8
 8002844:	3501      	adds	r5, #1
 8002846:	f844 0022 	str.w	r0, [r4, r2, lsl #2]
 800284a:	2207      	movs	r2, #7
 800284c:	7082      	strb	r2, [r0, #2]
 800284e:	f884 52dd 	strb.w	r5, [r4, #733]	; 0x2dd
 8002852:	bd38      	pop	{r3, r4, r5, pc}

08002854 <USBH_HID_ClassRequest>:
 8002854:	b538      	push	{r3, r4, r5, lr}
 8002856:	f8d0 52e0 	ldr.w	r5, [r0, #736]	; 0x2e0
 800285a:	796b      	ldrb	r3, [r5, #5]
 800285c:	4604      	mov	r4, r0
 800285e:	2b05      	cmp	r3, #5
 8002860:	d82b      	bhi.n	80028ba <USBH_HID_ClassRequest+0x66>
 8002862:	e8df f003 	tbb	[pc, r3]
 8002866:	2a03      	.short	0x2a03
 8002868:	071b0303 	.word	0x071b0303
 800286c:	2304      	movs	r3, #4
 800286e:	716b      	strb	r3, [r5, #5]
 8002870:	2001      	movs	r0, #1
 8002872:	bd38      	pop	{r3, r4, r5, pc}
 8002874:	4b13      	ldr	r3, [pc, #76]	; (80028c4 <USBH_HID_ClassRequest+0x70>)
 8002876:	2200      	movs	r2, #0
 8002878:	e9c0 3205 	strd	r3, r2, [r0, #20]
 800287c:	4611      	mov	r1, r2
 800287e:	f002 fa27 	bl	8004cd0 <USBH_CtlReq>
 8002882:	b9e0      	cbnz	r0, 80028be <USBH_HID_ClassRequest+0x6a>
 8002884:	2301      	movs	r3, #1
 8002886:	716b      	strb	r3, [r5, #5]
 8002888:	f8d4 32d4 	ldr.w	r3, [r4, #724]	; 0x2d4
 800288c:	b113      	cbz	r3, 8002894 <USBH_HID_ClassRequest+0x40>
 800288e:	2102      	movs	r1, #2
 8002890:	4620      	mov	r0, r4
 8002892:	4798      	blx	r3
 8002894:	2000      	movs	r0, #0
 8002896:	f884 02d9 	strb.w	r0, [r4, #729]	; 0x2d9
 800289a:	bd38      	pop	{r3, r4, r5, pc}
 800289c:	2200      	movs	r2, #0
 800289e:	f640 2321 	movw	r3, #2593	; 0xa21
 80028a2:	e9c0 3205 	strd	r3, r2, [r0, #20]
 80028a6:	4611      	mov	r1, r2
 80028a8:	f002 fa12 	bl	8004cd0 <USBH_CtlReq>
 80028ac:	b918      	cbnz	r0, 80028b6 <USBH_HID_ClassRequest+0x62>
 80028ae:	2305      	movs	r3, #5
 80028b0:	716b      	strb	r3, [r5, #5]
 80028b2:	2001      	movs	r0, #1
 80028b4:	bd38      	pop	{r3, r4, r5, pc}
 80028b6:	2803      	cmp	r0, #3
 80028b8:	d0f9      	beq.n	80028ae <USBH_HID_ClassRequest+0x5a>
 80028ba:	2001      	movs	r0, #1
 80028bc:	bd38      	pop	{r3, r4, r5, pc}
 80028be:	2803      	cmp	r0, #3
 80028c0:	d1fb      	bne.n	80028ba <USBH_HID_ClassRequest+0x66>
 80028c2:	e7df      	b.n	8002884 <USBH_HID_ClassRequest+0x30>
 80028c4:	00010b21 	.word	0x00010b21

080028c8 <USBH_HID_Parameter>:
 80028c8:	2922      	cmp	r1, #34	; 0x22
 80028ca:	b508      	push	{r3, lr}
 80028cc:	d137      	bne.n	800293e <USBH_HID_Parameter+0x76>
 80028ce:	b3a2      	cbz	r2, 800293a <USBH_HID_Parameter+0x72>
 80028d0:	b39b      	cbz	r3, 800293a <USBH_HID_Parameter+0x72>
 80028d2:	f890 12dd 	ldrb.w	r1, [r0, #733]	; 0x2dd
 80028d6:	f8b3 c000 	ldrh.w	ip, [r3]
 80028da:	ebbc 0f81 	cmp.w	ip, r1, lsl #2
 80028de:	db33      	blt.n	8002948 <USBH_HID_Parameter+0x80>
 80028e0:	8019      	strh	r1, [r3, #0]
 80028e2:	b341      	cbz	r1, 8002936 <USBH_HID_Parameter+0x6e>
 80028e4:	2300      	movs	r3, #0
 80028e6:	7013      	strb	r3, [r2, #0]
 80028e8:	f890 3249 	ldrb.w	r3, [r0, #585]	; 0x249
 80028ec:	7053      	strb	r3, [r2, #1]
 80028ee:	f890 324a 	ldrb.w	r3, [r0, #586]	; 0x24a
 80028f2:	7093      	strb	r3, [r2, #2]
 80028f4:	f890 324b 	ldrb.w	r3, [r0, #587]	; 0x24b
 80028f8:	70d3      	strb	r3, [r2, #3]
 80028fa:	f890 32dd 	ldrb.w	r3, [r0, #733]	; 0x2dd
 80028fe:	2b01      	cmp	r3, #1
 8002900:	d919      	bls.n	8002936 <USBH_HID_Parameter+0x6e>
 8002902:	2301      	movs	r3, #1
 8002904:	7113      	strb	r3, [r2, #4]
 8002906:	f890 326b 	ldrb.w	r3, [r0, #619]	; 0x26b
 800290a:	7153      	strb	r3, [r2, #5]
 800290c:	f890 326c 	ldrb.w	r3, [r0, #620]	; 0x26c
 8002910:	7193      	strb	r3, [r2, #6]
 8002912:	f890 326d 	ldrb.w	r3, [r0, #621]	; 0x26d
 8002916:	71d3      	strb	r3, [r2, #7]
 8002918:	f890 32dd 	ldrb.w	r3, [r0, #733]	; 0x2dd
 800291c:	2b02      	cmp	r3, #2
 800291e:	d90a      	bls.n	8002936 <USBH_HID_Parameter+0x6e>
 8002920:	2302      	movs	r3, #2
 8002922:	7213      	strb	r3, [r2, #8]
 8002924:	f890 328d 	ldrb.w	r3, [r0, #653]	; 0x28d
 8002928:	7253      	strb	r3, [r2, #9]
 800292a:	f890 328e 	ldrb.w	r3, [r0, #654]	; 0x28e
 800292e:	7293      	strb	r3, [r2, #10]
 8002930:	f890 328f 	ldrb.w	r3, [r0, #655]	; 0x28f
 8002934:	72d3      	strb	r3, [r2, #11]
 8002936:	2000      	movs	r0, #0
 8002938:	bd08      	pop	{r3, pc}
 800293a:	2003      	movs	r0, #3
 800293c:	bd08      	pop	{r3, pc}
 800293e:	4805      	ldr	r0, [pc, #20]	; (8002954 <USBH_HID_Parameter+0x8c>)
 8002940:	f002 fc42 	bl	80051c8 <LOG>
 8002944:	2003      	movs	r0, #3
 8002946:	bd08      	pop	{r3, pc}
 8002948:	4803      	ldr	r0, [pc, #12]	; (8002958 <USBH_HID_Parameter+0x90>)
 800294a:	f002 fc3d 	bl	80051c8 <LOG>
 800294e:	2002      	movs	r0, #2
 8002950:	bd08      	pop	{r3, pc}
 8002952:	bf00      	nop
 8002954:	0800679c 	.word	0x0800679c
 8002958:	08006778 	.word	0x08006778

0800295c <USBH_HID_InterfaceInit>:
 800295c:	e92d 4ff0 	stmdb	sp!, {r4, r5, r6, r7, r8, r9, sl, fp, lr}
 8002960:	4dbe      	ldr	r5, [pc, #760]	; (8002c5c <USBH_HID_InterfaceInit+0x300>)
 8002962:	782e      	ldrb	r6, [r5, #0]
 8002964:	b085      	sub	sp, #20
 8002966:	4604      	mov	r4, r0
 8002968:	2e05      	cmp	r6, #5
 800296a:	d812      	bhi.n	8002992 <USBH_HID_InterfaceInit+0x36>
 800296c:	e8df f006 	tbb	[pc, r6]
 8002970:	63033320 	.word	0x63033320
 8002974:	168e      	.short	0x168e
 8002976:	2109      	movs	r1, #9
 8002978:	f100 0224 	add.w	r2, r0, #36	; 0x24
 800297c:	e9cd 2100 	strd	r2, r1, [sp]
 8002980:	7a2b      	ldrb	r3, [r5, #8]
 8002982:	f44f 5204 	mov.w	r2, #8448	; 0x2100
 8002986:	2101      	movs	r1, #1
 8002988:	f001 fdfa 	bl	8004580 <USBH_GetDescriptor>
 800298c:	2800      	cmp	r0, #0
 800298e:	f000 8117 	beq.w	8002bc0 <USBH_HID_InterfaceInit+0x264>
 8002992:	2601      	movs	r6, #1
 8002994:	4630      	mov	r0, r6
 8002996:	b005      	add	sp, #20
 8002998:	e8bd 8ff0 	ldmia.w	sp!, {r4, r5, r6, r7, r8, r9, sl, fp, pc}
 800299c:	f890 1246 	ldrb.w	r1, [r0, #582]	; 0x246
 80029a0:	f000 ffa2 	bl	80038e8 <USBH_SelectInterface>
 80029a4:	2600      	movs	r6, #0
 80029a6:	4630      	mov	r0, r6
 80029a8:	702e      	strb	r6, [r5, #0]
 80029aa:	b005      	add	sp, #20
 80029ac:	e8bd 8ff0 	ldmia.w	sp!, {r4, r5, r6, r7, r8, r9, sl, fp, pc}
 80029b0:	f890 123e 	ldrb.w	r1, [r0, #574]	; 0x23e
 80029b4:	48aa      	ldr	r0, [pc, #680]	; (8002c60 <USBH_HID_InterfaceInit+0x304>)
 80029b6:	2300      	movs	r3, #0
 80029b8:	706b      	strb	r3, [r5, #1]
 80029ba:	f002 fc05 	bl	80051c8 <LOG>
 80029be:	f894 323e 	ldrb.w	r3, [r4, #574]	; 0x23e
 80029c2:	2601      	movs	r6, #1
 80029c4:	2b03      	cmp	r3, #3
 80029c6:	bf88      	it	hi
 80029c8:	2303      	movhi	r3, #3
 80029ca:	4630      	mov	r0, r6
 80029cc:	70ab      	strb	r3, [r5, #2]
 80029ce:	702e      	strb	r6, [r5, #0]
 80029d0:	b005      	add	sp, #20
 80029d2:	e8bd 8ff0 	ldmia.w	sp!, {r4, r5, r6, r7, r8, r9, sl, fp, pc}
 80029d6:	786b      	ldrb	r3, [r5, #1]
 80029d8:	eb03 1303 	add.w	r3, r3, r3, lsl #4
 80029dc:	eb00 0343 	add.w	r3, r0, r3, lsl #1
 80029e0:	2200      	movs	r2, #0
 80029e2:	f893 1246 	ldrb.w	r1, [r3, #582]	; 0x246
 80029e6:	606a      	str	r2, [r5, #4]
 80029e8:	7229      	strb	r1, [r5, #8]
 80029ea:	f000 ff7d 	bl	80038e8 <USBH_SelectInterface>
 80029ee:	786b      	ldrb	r3, [r5, #1]
 80029f0:	489c      	ldr	r0, [pc, #624]	; (8002c64 <USBH_HID_InterfaceInit+0x308>)
 80029f2:	eb03 1303 	add.w	r3, r3, r3, lsl #4
 80029f6:	eb04 0343 	add.w	r3, r4, r3, lsl #1
 80029fa:	2202      	movs	r2, #2
 80029fc:	f893 1249 	ldrb.w	r1, [r3, #585]	; 0x249
 8002a00:	702a      	strb	r2, [r5, #0]
 8002a02:	f002 fbe1 	bl	80051c8 <LOG>
 8002a06:	786b      	ldrb	r3, [r5, #1]
 8002a08:	4897      	ldr	r0, [pc, #604]	; (8002c68 <USBH_HID_InterfaceInit+0x30c>)
 8002a0a:	eb03 1303 	add.w	r3, r3, r3, lsl #4
 8002a0e:	eb04 0343 	add.w	r3, r4, r3, lsl #1
 8002a12:	f893 124a 	ldrb.w	r1, [r3, #586]	; 0x24a
 8002a16:	f002 fbd7 	bl	80051c8 <LOG>
 8002a1a:	786b      	ldrb	r3, [r5, #1]
 8002a1c:	4893      	ldr	r0, [pc, #588]	; (8002c6c <USBH_HID_InterfaceInit+0x310>)
 8002a1e:	eb03 1303 	add.w	r3, r3, r3, lsl #4
 8002a22:	eb04 0443 	add.w	r4, r4, r3, lsl #1
 8002a26:	f894 124b 	ldrb.w	r1, [r4, #587]	; 0x24b
 8002a2a:	f002 fbcd 	bl	80051c8 <LOG>
 8002a2e:	4630      	mov	r0, r6
 8002a30:	b005      	add	sp, #20
 8002a32:	e8bd 8ff0 	ldmia.w	sp!, {r4, r5, r6, r7, r8, r9, sl, fp, pc}
 8002a36:	8aa9      	ldrh	r1, [r5, #20]
 8002a38:	7a2b      	ldrb	r3, [r5, #8]
 8002a3a:	f100 0224 	add.w	r2, r0, #36	; 0x24
 8002a3e:	e9cd 2100 	strd	r2, r1, [sp]
 8002a42:	f44f 5208 	mov.w	r2, #8704	; 0x2200
 8002a46:	2101      	movs	r1, #1
 8002a48:	f001 fd9a 	bl	8004580 <USBH_GetDescriptor>
 8002a4c:	2800      	cmp	r0, #0
 8002a4e:	d1a0      	bne.n	8002992 <USBH_HID_InterfaceInit+0x36>
 8002a50:	786a      	ldrb	r2, [r5, #1]
 8002a52:	eb02 1302 	add.w	r3, r2, r2, lsl #4
 8002a56:	eb04 0343 	add.w	r3, r4, r3, lsl #1
 8002a5a:	f893 1249 	ldrb.w	r1, [r3, #585]	; 0x249
 8002a5e:	2903      	cmp	r1, #3
 8002a60:	f000 80d9 	beq.w	8002c16 <USBH_HID_InterfaceInit+0x2ba>
 8002a64:	686b      	ldr	r3, [r5, #4]
 8002a66:	2a00      	cmp	r2, #0
 8002a68:	f000 80d1 	beq.w	8002c0e <USBH_HID_InterfaceInit+0x2b2>
 8002a6c:	2b00      	cmp	r3, #0
 8002a6e:	f000 810b 	beq.w	8002c88 <USBH_HID_InterfaceInit+0x32c>
 8002a72:	4a7f      	ldr	r2, [pc, #508]	; (8002c70 <USBH_HID_InterfaceInit+0x314>)
 8002a74:	ca03      	ldmia	r2!, {r0, r1}
 8002a76:	7812      	ldrb	r2, [r2, #0]
 8002a78:	f8c3 002a 	str.w	r0, [r3, #42]	; 0x2a
 8002a7c:	f8c3 102e 	str.w	r1, [r3, #46]	; 0x2e
 8002a80:	f883 2032 	strb.w	r2, [r3, #50]	; 0x32
 8002a84:	2304      	movs	r3, #4
 8002a86:	702b      	strb	r3, [r5, #0]
 8002a88:	2601      	movs	r6, #1
 8002a8a:	e783      	b.n	8002994 <USBH_HID_InterfaceInit+0x38>
 8002a8c:	686f      	ldr	r7, [r5, #4]
 8002a8e:	786e      	ldrb	r6, [r5, #1]
 8002a90:	2f00      	cmp	r7, #0
 8002a92:	d055      	beq.n	8002b40 <USBH_HID_InterfaceInit+0x1e4>
 8002a94:	eb06 1306 	add.w	r3, r6, r6, lsl #4
 8002a98:	f04f 0800 	mov.w	r8, #0
 8002a9c:	eb00 0343 	add.w	r3, r0, r3, lsl #1
 8002aa0:	f887 8002 	strb.w	r8, [r7, #2]
 8002aa4:	f887 8005 	strb.w	r8, [r7, #5]
 8002aa8:	f893 3248 	ldrb.w	r3, [r3, #584]	; 0x248
 8002aac:	2b00      	cmp	r3, #0
 8002aae:	d047      	beq.n	8002b40 <USBH_HID_InterfaceInit+0x1e4>
 8002ab0:	2b03      	cmp	r3, #3
 8002ab2:	eb06 1606 	add.w	r6, r6, r6, lsl #4
 8002ab6:	bf28      	it	cs
 8002ab8:	2303      	movcs	r3, #3
 8002aba:	f8df b1c8 	ldr.w	fp, [pc, #456]	; 8002c84 <USBH_HID_InterfaceInit+0x328>
 8002abe:	4699      	mov	r9, r3
 8002ac0:	eb00 0646 	add.w	r6, r0, r6, lsl #1
 8002ac4:	f04f 0a03 	mov.w	sl, #3
 8002ac8:	f996 2250 	ldrsb.w	r2, [r6, #592]	; 0x250
 8002acc:	f896 3250 	ldrb.w	r3, [r6, #592]	; 0x250
 8002ad0:	2a00      	cmp	r2, #0
 8002ad2:	4620      	mov	r0, r4
 8002ad4:	4619      	mov	r1, r3
 8002ad6:	db3f      	blt.n	8002b58 <USBH_HID_InterfaceInit+0x1fc>
 8002ad8:	70fb      	strb	r3, [r7, #3]
 8002ada:	f002 fa35 	bl	8004f48 <USBH_AllocPipe>
 8002ade:	7038      	strb	r0, [r7, #0]
 8002ae0:	f896 3250 	ldrb.w	r3, [r6, #592]	; 0x250
 8002ae4:	777b      	strb	r3, [r7, #29]
 8002ae6:	f896 2254 	ldrb.w	r2, [r6, #596]	; 0x254
 8002aea:	f8b6 3252 	ldrh.w	r3, [r6, #594]	; 0x252
 8002aee:	837b      	strh	r3, [r7, #26]
 8002af0:	2a01      	cmp	r2, #1
 8002af2:	f04f 0102 	mov.w	r1, #2
 8002af6:	bf8c      	ite	hi
 8002af8:	843a      	strhhi	r2, [r7, #32]
 8002afa:	8439      	strhls	r1, [r7, #32]
 8002afc:	78fa      	ldrb	r2, [r7, #3]
 8002afe:	e9cd a301 	strd	sl, r3, [sp, #4]
 8002b02:	f894 3225 	ldrb.w	r3, [r4, #549]	; 0x225
 8002b06:	9300      	str	r3, [sp, #0]
 8002b08:	f894 3224 	ldrb.w	r3, [r4, #548]	; 0x224
 8002b0c:	4601      	mov	r1, r0
 8002b0e:	4620      	mov	r0, r4
 8002b10:	f002 fa04 	bl	8004f1c <USBH_OpenPipe>
 8002b14:	7839      	ldrb	r1, [r7, #0]
 8002b16:	2200      	movs	r2, #0
 8002b18:	4620      	mov	r0, r4
 8002b1a:	f002 fef1 	bl	8005900 <USBH_LL_SetToggle>
 8002b1e:	8c38      	ldrh	r0, [r7, #32]
 8002b20:	7f7b      	ldrb	r3, [r7, #29]
 8002b22:	783a      	ldrb	r2, [r7, #0]
 8002b24:	8b79      	ldrh	r1, [r7, #26]
 8002b26:	9000      	str	r0, [sp, #0]
 8002b28:	4658      	mov	r0, fp
 8002b2a:	f002 fb4d 	bl	80051c8 <LOG>
 8002b2e:	f108 0801 	add.w	r8, r8, #1
 8002b32:	fa5f f388 	uxtb.w	r3, r8
 8002b36:	4599      	cmp	r9, r3
 8002b38:	f106 0608 	add.w	r6, r6, #8
 8002b3c:	d8c4      	bhi.n	8002ac8 <USBH_HID_InterfaceInit+0x16c>
 8002b3e:	786e      	ldrb	r6, [r5, #1]
 8002b40:	78aa      	ldrb	r2, [r5, #2]
 8002b42:	1c73      	adds	r3, r6, #1
 8002b44:	b2db      	uxtb	r3, r3
 8002b46:	2601      	movs	r6, #1
 8002b48:	429a      	cmp	r2, r3
 8002b4a:	702e      	strb	r6, [r5, #0]
 8002b4c:	706b      	strb	r3, [r5, #1]
 8002b4e:	f63f af20 	bhi.w	8002992 <USBH_HID_InterfaceInit+0x36>
 8002b52:	2305      	movs	r3, #5
 8002b54:	702b      	strb	r3, [r5, #0]
 8002b56:	e71d      	b.n	8002994 <USBH_HID_InterfaceInit+0x38>
 8002b58:	713b      	strb	r3, [r7, #4]
 8002b5a:	f002 f9f5 	bl	8004f48 <USBH_AllocPipe>
 8002b5e:	7078      	strb	r0, [r7, #1]
 8002b60:	f896 3250 	ldrb.w	r3, [r6, #592]	; 0x250
 8002b64:	773b      	strb	r3, [r7, #28]
 8002b66:	f896 2254 	ldrb.w	r2, [r6, #596]	; 0x254
 8002b6a:	f8b6 3252 	ldrh.w	r3, [r6, #594]	; 0x252
 8002b6e:	833b      	strh	r3, [r7, #24]
 8002b70:	2a01      	cmp	r2, #1
 8002b72:	f04f 0102 	mov.w	r1, #2
 8002b76:	bf8c      	ite	hi
 8002b78:	83fa      	strhhi	r2, [r7, #30]
 8002b7a:	83f9      	strhls	r1, [r7, #30]
 8002b7c:	793a      	ldrb	r2, [r7, #4]
 8002b7e:	e9cd a301 	strd	sl, r3, [sp, #4]
 8002b82:	f894 3225 	ldrb.w	r3, [r4, #549]	; 0x225
 8002b86:	9300      	str	r3, [sp, #0]
 8002b88:	f894 3224 	ldrb.w	r3, [r4, #548]	; 0x224
 8002b8c:	4601      	mov	r1, r0
 8002b8e:	4620      	mov	r0, r4
 8002b90:	f002 f9c4 	bl	8004f1c <USBH_OpenPipe>
 8002b94:	7879      	ldrb	r1, [r7, #1]
 8002b96:	2200      	movs	r2, #0
 8002b98:	4620      	mov	r0, r4
 8002b9a:	f002 feb1 	bl	8005900 <USBH_LL_SetToggle>
 8002b9e:	f894 0225 	ldrb.w	r0, [r4, #549]	; 0x225
 8002ba2:	7f3b      	ldrb	r3, [r7, #28]
 8002ba4:	787a      	ldrb	r2, [r7, #1]
 8002ba6:	8b39      	ldrh	r1, [r7, #24]
 8002ba8:	f1a0 0002 	sub.w	r0, r0, #2
 8002bac:	fab0 f080 	clz	r0, r0
 8002bb0:	0940      	lsrs	r0, r0, #5
 8002bb2:	9001      	str	r0, [sp, #4]
 8002bb4:	8bf8      	ldrh	r0, [r7, #30]
 8002bb6:	9000      	str	r0, [sp, #0]
 8002bb8:	482e      	ldr	r0, [pc, #184]	; (8002c74 <USBH_HID_InterfaceInit+0x318>)
 8002bba:	f002 fb05 	bl	80051c8 <LOG>
 8002bbe:	e7b6      	b.n	8002b2e <USBH_HID_InterfaceInit+0x1d2>
 8002bc0:	f894 302c 	ldrb.w	r3, [r4, #44]	; 0x2c
 8002bc4:	f894 102b 	ldrb.w	r1, [r4, #43]	; 0x2b
 8002bc8:	f894 0027 	ldrb.w	r0, [r4, #39]	; 0x27
 8002bcc:	f894 2227 	ldrb.w	r2, [r4, #551]	; 0x227
 8002bd0:	eb01 2103 	add.w	r1, r1, r3, lsl #8
 8002bd4:	f894 3024 	ldrb.w	r3, [r4, #36]	; 0x24
 8002bd8:	732b      	strb	r3, [r5, #12]
 8002bda:	f894 3026 	ldrb.w	r3, [r4, #38]	; 0x26
 8002bde:	eb03 2300 	add.w	r3, r3, r0, lsl #8
 8002be2:	81eb      	strh	r3, [r5, #14]
 8002be4:	f894 3028 	ldrb.w	r3, [r4, #40]	; 0x28
 8002be8:	f894 0025 	ldrb.w	r0, [r4, #37]	; 0x25
 8002bec:	742b      	strb	r3, [r5, #16]
 8002bee:	f894 3029 	ldrb.w	r3, [r4, #41]	; 0x29
 8002bf2:	746b      	strb	r3, [r5, #17]
 8002bf4:	b289      	uxth	r1, r1
 8002bf6:	f894 302a 	ldrb.w	r3, [r4, #42]	; 0x2a
 8002bfa:	7368      	strb	r0, [r5, #13]
 8002bfc:	481e      	ldr	r0, [pc, #120]	; (8002c78 <USBH_HID_InterfaceInit+0x31c>)
 8002bfe:	74ab      	strb	r3, [r5, #18]
 8002c00:	82a9      	strh	r1, [r5, #20]
 8002c02:	f002 fae1 	bl	80051c8 <LOG>
 8002c06:	2303      	movs	r3, #3
 8002c08:	702b      	strb	r3, [r5, #0]
 8002c0a:	2601      	movs	r6, #1
 8002c0c:	e6c2      	b.n	8002994 <USBH_HID_InterfaceInit+0x38>
 8002c0e:	2b00      	cmp	r3, #0
 8002c10:	f43f af38 	beq.w	8002a84 <USBH_HID_InterfaceInit+0x128>
 8002c14:	e72d      	b.n	8002a72 <USBH_HID_InterfaceInit+0x116>
 8002c16:	f8b3 324a 	ldrh.w	r3, [r3, #586]	; 0x24a
 8002c1a:	f240 1101 	movw	r1, #257	; 0x101
 8002c1e:	428b      	cmp	r3, r1
 8002c20:	d051      	beq.n	8002cc6 <USBH_HID_InterfaceInit+0x36a>
 8002c22:	f240 2101 	movw	r1, #513	; 0x201
 8002c26:	428b      	cmp	r3, r1
 8002c28:	f47f af1c 	bne.w	8002a64 <USBH_HID_InterfaceInit+0x108>
 8002c2c:	4813      	ldr	r0, [pc, #76]	; (8002c7c <USBH_HID_InterfaceInit+0x320>)
 8002c2e:	f002 facb 	bl	80051c8 <LOG>
 8002c32:	f894 62dd 	ldrb.w	r6, [r4, #733]	; 0x2dd
 8002c36:	2101      	movs	r1, #1
 8002c38:	2058      	movs	r0, #88	; 0x58
 8002c3a:	f002 fee1 	bl	8005a00 <calloc>
 8002c3e:	f106 02b8 	add.w	r2, r6, #184	; 0xb8
 8002c42:	3601      	adds	r6, #1
 8002c44:	f844 0022 	str.w	r0, [r4, r2, lsl #2]
 8002c48:	2207      	movs	r2, #7
 8002c4a:	7082      	strb	r2, [r0, #2]
 8002c4c:	4a0c      	ldr	r2, [pc, #48]	; (8002c80 <USBH_HID_InterfaceInit+0x324>)
 8002c4e:	f884 62dd 	strb.w	r6, [r4, #733]	; 0x2dd
 8002c52:	6068      	str	r0, [r5, #4]
 8002c54:	4603      	mov	r3, r0
 8002c56:	6342      	str	r2, [r0, #52]	; 0x34
 8002c58:	e70b      	b.n	8002a72 <USBH_HID_InterfaceInit+0x116>
 8002c5a:	bf00      	nop
 8002c5c:	200000e8 	.word	0x200000e8
 8002c60:	080067c4 	.word	0x080067c4
 8002c64:	080067d4 	.word	0x080067d4
 8002c68:	080067e4 	.word	0x080067e4
 8002c6c:	080067f4 	.word	0x080067f4
 8002c70:	200000f4 	.word	0x200000f4
 8002c74:	08006834 	.word	0x08006834
 8002c78:	08006804 	.word	0x08006804
 8002c7c:	08006824 	.word	0x08006824
 8002c80:	08003001 	.word	0x08003001
 8002c84:	0800686c 	.word	0x0800686c
 8002c88:	8ca3      	ldrh	r3, [r4, #36]	; 0x24
 8002c8a:	ba5b      	rev16	r3, r3
 8002c8c:	f240 5201 	movw	r2, #1281	; 0x501
 8002c90:	b29b      	uxth	r3, r3
 8002c92:	4293      	cmp	r3, r2
 8002c94:	f47f aef6 	bne.w	8002a84 <USBH_HID_InterfaceInit+0x128>
 8002c98:	8ce3      	ldrh	r3, [r4, #38]	; 0x26
 8002c9a:	ba5b      	rev16	r3, r3
 8002c9c:	f640 1206 	movw	r2, #2310	; 0x906
 8002ca0:	b29b      	uxth	r3, r3
 8002ca2:	4293      	cmp	r3, r2
 8002ca4:	d026      	beq.n	8002cf4 <USBH_HID_InterfaceInit+0x398>
 8002ca6:	f640 1202 	movw	r2, #2306	; 0x902
 8002caa:	4293      	cmp	r3, r2
 8002cac:	f47f aeea 	bne.w	8002a84 <USBH_HID_InterfaceInit+0x128>
 8002cb0:	4816      	ldr	r0, [pc, #88]	; (8002d0c <USBH_HID_InterfaceInit+0x3b0>)
 8002cb2:	f002 fa89 	bl	80051c8 <LOG>
 8002cb6:	4620      	mov	r0, r4
 8002cb8:	f7ff fdba 	bl	8002830 <create_handle>
 8002cbc:	4a14      	ldr	r2, [pc, #80]	; (8002d10 <USBH_HID_InterfaceInit+0x3b4>)
 8002cbe:	6068      	str	r0, [r5, #4]
 8002cc0:	4603      	mov	r3, r0
 8002cc2:	6342      	str	r2, [r0, #52]	; 0x34
 8002cc4:	e6d5      	b.n	8002a72 <USBH_HID_InterfaceInit+0x116>
 8002cc6:	4813      	ldr	r0, [pc, #76]	; (8002d14 <USBH_HID_InterfaceInit+0x3b8>)
 8002cc8:	f002 fa7e 	bl	80051c8 <LOG>
 8002ccc:	f894 62dd 	ldrb.w	r6, [r4, #733]	; 0x2dd
 8002cd0:	2101      	movs	r1, #1
 8002cd2:	2058      	movs	r0, #88	; 0x58
 8002cd4:	f002 fe94 	bl	8005a00 <calloc>
 8002cd8:	f106 02b8 	add.w	r2, r6, #184	; 0xb8
 8002cdc:	3601      	adds	r6, #1
 8002cde:	f844 0022 	str.w	r0, [r4, r2, lsl #2]
 8002ce2:	2207      	movs	r2, #7
 8002ce4:	7082      	strb	r2, [r0, #2]
 8002ce6:	4a0c      	ldr	r2, [pc, #48]	; (8002d18 <USBH_HID_InterfaceInit+0x3bc>)
 8002ce8:	f884 62dd 	strb.w	r6, [r4, #733]	; 0x2dd
 8002cec:	6068      	str	r0, [r5, #4]
 8002cee:	4603      	mov	r3, r0
 8002cf0:	6342      	str	r2, [r0, #52]	; 0x34
 8002cf2:	e6be      	b.n	8002a72 <USBH_HID_InterfaceInit+0x116>
 8002cf4:	4807      	ldr	r0, [pc, #28]	; (8002d14 <USBH_HID_InterfaceInit+0x3b8>)
 8002cf6:	f002 fa67 	bl	80051c8 <LOG>
 8002cfa:	4620      	mov	r0, r4
 8002cfc:	f7ff fd98 	bl	8002830 <create_handle>
 8002d00:	4a05      	ldr	r2, [pc, #20]	; (8002d18 <USBH_HID_InterfaceInit+0x3bc>)
 8002d02:	6068      	str	r0, [r5, #4]
 8002d04:	4603      	mov	r3, r0
 8002d06:	6342      	str	r2, [r0, #52]	; 0x34
 8002d08:	e6b3      	b.n	8002a72 <USBH_HID_InterfaceInit+0x116>
 8002d0a:	bf00      	nop
 8002d0c:	08006824 	.word	0x08006824
 8002d10:	08003001 	.word	0x08003001
 8002d14:	08006814 	.word	0x08006814
 8002d18:	08002ee5 	.word	0x08002ee5

08002d1c <USBH_HID_GetDeviceType>:
 8002d1c:	7803      	ldrb	r3, [r0, #0]
 8002d1e:	2b0a      	cmp	r3, #10
 8002d20:	d001      	beq.n	8002d26 <USBH_HID_GetDeviceType+0xa>
 8002d22:	20ff      	movs	r0, #255	; 0xff
 8002d24:	4770      	bx	lr
 8002d26:	f890 3227 	ldrb.w	r3, [r0, #551]	; 0x227
 8002d2a:	eb03 1303 	add.w	r3, r3, r3, lsl #4
 8002d2e:	eb00 0043 	add.w	r0, r0, r3, lsl #1
 8002d32:	f890 324b 	ldrb.w	r3, [r0, #587]	; 0x24b
 8002d36:	2b01      	cmp	r3, #1
 8002d38:	d004      	beq.n	8002d44 <USBH_HID_GetDeviceType+0x28>
 8002d3a:	2b02      	cmp	r3, #2
 8002d3c:	bf14      	ite	ne
 8002d3e:	20ff      	movne	r0, #255	; 0xff
 8002d40:	2001      	moveq	r0, #1
 8002d42:	4770      	bx	lr
 8002d44:	2002      	movs	r0, #2
 8002d46:	4770      	bx	lr

08002d48 <fifo_init>:
 8002d48:	2300      	movs	r3, #0
 8002d4a:	6043      	str	r3, [r0, #4]
 8002d4c:	7283      	strb	r3, [r0, #10]
 8002d4e:	8102      	strh	r2, [r0, #8]
 8002d50:	6001      	str	r1, [r0, #0]
 8002d52:	4770      	bx	lr

08002d54 <fifo_read>:
 8002d54:	7a83      	ldrb	r3, [r0, #10]
 8002d56:	4684      	mov	ip, r0
 8002d58:	b123      	cbz	r3, 8002d64 <fifo_read+0x10>
 8002d5a:	2300      	movs	r3, #0
 8002d5c:	f88c 300a 	strb.w	r3, [ip, #10]
 8002d60:	4610      	mov	r0, r2
 8002d62:	4770      	bx	lr
 8002d64:	2001      	movs	r0, #1
 8002d66:	f88c 000a 	strb.w	r0, [ip, #10]
 8002d6a:	2a00      	cmp	r2, #0
 8002d6c:	d0f5      	beq.n	8002d5a <fifo_read+0x6>
 8002d6e:	b530      	push	{r4, r5, lr}
 8002d70:	469e      	mov	lr, r3
 8002d72:	f8bc 3006 	ldrh.w	r3, [ip, #6]
 8002d76:	4670      	mov	r0, lr
 8002d78:	4675      	mov	r5, lr
 8002d7a:	f8bc 4004 	ldrh.w	r4, [ip, #4]
 8002d7e:	429c      	cmp	r4, r3
 8002d80:	d022      	beq.n	8002dc8 <fifo_read+0x74>
 8002d82:	f8dc 0000 	ldr.w	r0, [ip]
 8002d86:	5cc3      	ldrb	r3, [r0, r3]
 8002d88:	f801 3b01 	strb.w	r3, [r1], #1
 8002d8c:	f8bc 3006 	ldrh.w	r3, [ip, #6]
 8002d90:	f8bc 0008 	ldrh.w	r0, [ip, #8]
 8002d94:	3301      	adds	r3, #1
 8002d96:	b29b      	uxth	r3, r3
 8002d98:	f10e 0e01 	add.w	lr, lr, #1
 8002d9c:	4298      	cmp	r0, r3
 8002d9e:	f8ac 3006 	strh.w	r3, [ip, #6]
 8002da2:	fa1f f08e 	uxth.w	r0, lr
 8002da6:	d006      	beq.n	8002db6 <fifo_read+0x62>
 8002da8:	4290      	cmp	r0, r2
 8002daa:	d3e6      	bcc.n	8002d7a <fifo_read+0x26>
 8002dac:	2300      	movs	r3, #0
 8002dae:	f88c 300a 	strb.w	r3, [ip, #10]
 8002db2:	4610      	mov	r0, r2
 8002db4:	bd30      	pop	{r4, r5, pc}
 8002db6:	4282      	cmp	r2, r0
 8002db8:	f8ac 5006 	strh.w	r5, [ip, #6]
 8002dbc:	d9f6      	bls.n	8002dac <fifo_read+0x58>
 8002dbe:	f8bc 4004 	ldrh.w	r4, [ip, #4]
 8002dc2:	2300      	movs	r3, #0
 8002dc4:	429c      	cmp	r4, r3
 8002dc6:	d1dc      	bne.n	8002d82 <fifo_read+0x2e>
 8002dc8:	2300      	movs	r3, #0
 8002dca:	f88c 300a 	strb.w	r3, [ip, #10]
 8002dce:	bd30      	pop	{r4, r5, pc}

08002dd0 <USBH_HID_EventCallback>:
 8002dd0:	4770      	bx	lr
 8002dd2:	bf00      	nop

08002dd4 <USBH_HID_Process>:
 8002dd4:	b570      	push	{r4, r5, r6, lr}
 8002dd6:	f890 3227 	ldrb.w	r3, [r0, #551]	; 0x227
 8002dda:	33b8      	adds	r3, #184	; 0xb8
 8002ddc:	4604      	mov	r4, r0
 8002dde:	f850 5023 	ldr.w	r5, [r0, r3, lsl #2]
 8002de2:	78ab      	ldrb	r3, [r5, #2]
 8002de4:	2b06      	cmp	r3, #6
 8002de6:	d812      	bhi.n	8002e0e <USBH_HID_Process+0x3a>
 8002de8:	e8df f003 	tbb	[pc, r3]
 8002dec:	1111114b 	.word	0x1111114b
 8002df0:	4304      	.short	0x4304
 8002df2:	13          	.byte	0x13
 8002df3:	00          	.byte	0x00
 8002df4:	786b      	ldrb	r3, [r5, #1]
 8002df6:	8b2a      	ldrh	r2, [r5, #24]
 8002df8:	6969      	ldr	r1, [r5, #20]
 8002dfa:	f002 f87f 	bl	8004efc <USBH_InterruptReceiveData>
 8002dfe:	2306      	movs	r3, #6
 8002e00:	70ab      	strb	r3, [r5, #2]
 8002e02:	f8d4 22c8 	ldr.w	r2, [r4, #712]	; 0x2c8
 8002e06:	626a      	str	r2, [r5, #36]	; 0x24
 8002e08:	2300      	movs	r3, #0
 8002e0a:	f885 3028 	strb.w	r3, [r5, #40]	; 0x28
 8002e0e:	2000      	movs	r0, #0
 8002e10:	bd70      	pop	{r4, r5, r6, pc}
 8002e12:	7869      	ldrb	r1, [r5, #1]
 8002e14:	f002 fd2a 	bl	800586c <USBH_LL_GetURBState>
 8002e18:	2801      	cmp	r0, #1
 8002e1a:	d13a      	bne.n	8002e92 <USBH_HID_Process+0xbe>
 8002e1c:	f895 3028 	ldrb.w	r3, [r5, #40]	; 0x28
 8002e20:	2b00      	cmp	r3, #0
 8002e22:	d1f4      	bne.n	8002e0e <USBH_HID_Process+0x3a>
 8002e24:	7cae      	ldrb	r6, [r5, #18]
 8002e26:	b9de      	cbnz	r6, 8002e60 <USBH_HID_Process+0x8c>
 8002e28:	8b2b      	ldrh	r3, [r5, #24]
 8002e2a:	696a      	ldr	r2, [r5, #20]
 8002e2c:	74a8      	strb	r0, [r5, #18]
 8002e2e:	b1bb      	cbz	r3, 8002e60 <USBH_HID_Process+0x8c>
 8002e30:	eb02 0e03 	add.w	lr, r2, r3
 8002e34:	89ab      	ldrh	r3, [r5, #12]
 8002e36:	89e8      	ldrh	r0, [r5, #14]
 8002e38:	1c59      	adds	r1, r3, #1
 8002e3a:	4281      	cmp	r1, r0
 8002e3c:	d010      	beq.n	8002e60 <USBH_HID_Process+0x8c>
 8002e3e:	f8b5 c010 	ldrh.w	ip, [r5, #16]
 8002e42:	4561      	cmp	r1, ip
 8002e44:	d030      	beq.n	8002ea8 <USBH_HID_Process+0xd4>
 8002e46:	68a9      	ldr	r1, [r5, #8]
 8002e48:	f812 0b01 	ldrb.w	r0, [r2], #1
 8002e4c:	54c8      	strb	r0, [r1, r3]
 8002e4e:	89ab      	ldrh	r3, [r5, #12]
 8002e50:	8a29      	ldrh	r1, [r5, #16]
 8002e52:	3301      	adds	r3, #1
 8002e54:	b29b      	uxth	r3, r3
 8002e56:	4299      	cmp	r1, r3
 8002e58:	81ab      	strh	r3, [r5, #12]
 8002e5a:	d028      	beq.n	8002eae <USBH_HID_Process+0xda>
 8002e5c:	4572      	cmp	r2, lr
 8002e5e:	d1ea      	bne.n	8002e36 <USBH_HID_Process+0x62>
 8002e60:	2300      	movs	r3, #0
 8002e62:	74ab      	strb	r3, [r5, #18]
 8002e64:	2301      	movs	r3, #1
 8002e66:	f885 3028 	strb.w	r3, [r5, #40]	; 0x28
 8002e6a:	4620      	mov	r0, r4
 8002e6c:	f7ff ffb0 	bl	8002dd0 <USBH_HID_EventCallback>
 8002e70:	e7cd      	b.n	8002e0e <USBH_HID_Process+0x3a>
 8002e72:	f8d0 32c8 	ldr.w	r3, [r0, #712]	; 0x2c8
 8002e76:	07db      	lsls	r3, r3, #31
 8002e78:	d5c9      	bpl.n	8002e0e <USBH_HID_Process+0x3a>
 8002e7a:	2304      	movs	r3, #4
 8002e7c:	70ab      	strb	r3, [r5, #2]
 8002e7e:	2000      	movs	r0, #0
 8002e80:	bd70      	pop	{r4, r5, r6, pc}
 8002e82:	6b6b      	ldr	r3, [r5, #52]	; 0x34
 8002e84:	4798      	blx	r3
 8002e86:	2800      	cmp	r0, #0
 8002e88:	d1c1      	bne.n	8002e0e <USBH_HID_Process+0x3a>
 8002e8a:	2305      	movs	r3, #5
 8002e8c:	70ab      	strb	r3, [r5, #2]
 8002e8e:	2000      	movs	r0, #0
 8002e90:	bd70      	pop	{r4, r5, r6, pc}
 8002e92:	7869      	ldrb	r1, [r5, #1]
 8002e94:	4620      	mov	r0, r4
 8002e96:	f002 fce9 	bl	800586c <USBH_LL_GetURBState>
 8002e9a:	2805      	cmp	r0, #5
 8002e9c:	d00c      	beq.n	8002eb8 <USBH_HID_Process+0xe4>
 8002e9e:	7869      	ldrb	r1, [r5, #1]
 8002ea0:	4620      	mov	r0, r4
 8002ea2:	f002 fce3 	bl	800586c <USBH_LL_GetURBState>
 8002ea6:	e7b2      	b.n	8002e0e <USBH_HID_Process+0x3a>
 8002ea8:	2800      	cmp	r0, #0
 8002eaa:	d1cc      	bne.n	8002e46 <USBH_HID_Process+0x72>
 8002eac:	e7d8      	b.n	8002e60 <USBH_HID_Process+0x8c>
 8002eae:	4572      	cmp	r2, lr
 8002eb0:	81ae      	strh	r6, [r5, #12]
 8002eb2:	d0d5      	beq.n	8002e60 <USBH_HID_Process+0x8c>
 8002eb4:	2300      	movs	r3, #0
 8002eb6:	e7be      	b.n	8002e36 <USBH_HID_Process+0x62>
 8002eb8:	7f29      	ldrb	r1, [r5, #28]
 8002eba:	4620      	mov	r0, r4
 8002ebc:	f001 fe24 	bl	8004b08 <USBH_ClrFeature>
 8002ec0:	2800      	cmp	r0, #0
 8002ec2:	d1a4      	bne.n	8002e0e <USBH_HID_Process+0x3a>
 8002ec4:	2304      	movs	r3, #4
 8002ec6:	70ab      	strb	r3, [r5, #2]
 8002ec8:	f894 3227 	ldrb.w	r3, [r4, #551]	; 0x227
 8002ecc:	f894 22dd 	ldrb.w	r2, [r4, #733]	; 0x2dd
 8002ed0:	3301      	adds	r3, #1
 8002ed2:	b2db      	uxtb	r3, r3
 8002ed4:	429a      	cmp	r2, r3
 8002ed6:	f884 3227 	strb.w	r3, [r4, #551]	; 0x227
 8002eda:	d898      	bhi.n	8002e0e <USBH_HID_Process+0x3a>
 8002edc:	f884 0227 	strb.w	r0, [r4, #551]	; 0x227
 8002ee0:	e795      	b.n	8002e0e <USBH_HID_Process+0x3a>
 8002ee2:	bf00      	nop

08002ee4 <USBH_HID_KeybdInit>:
 8002ee4:	b510      	push	{r4, lr}
 8002ee6:	4601      	mov	r1, r0
 8002ee8:	f890 0227 	ldrb.w	r0, [r0, #551]	; 0x227
 8002eec:	4b0c      	ldr	r3, [pc, #48]	; (8002f20 <USBH_HID_KeybdInit+0x3c>)
 8002eee:	30b8      	adds	r0, #184	; 0xb8
 8002ef0:	2200      	movs	r2, #0
 8002ef2:	f851 4020 	ldr.w	r4, [r1, r0, lsl #2]
 8002ef6:	f8c3 2001 	str.w	r2, [r3, #1]
 8002efa:	8b20      	ldrh	r0, [r4, #24]
 8002efc:	f8c3 2005 	str.w	r2, [r3, #5]
 8002f00:	2802      	cmp	r0, #2
 8002f02:	e9c3 2204 	strd	r2, r2, [r3, #16]
 8002f06:	bf84      	itt	hi
 8002f08:	2302      	movhi	r3, #2
 8002f0a:	8323      	strhhi	r3, [r4, #24]
 8002f0c:	4b05      	ldr	r3, [pc, #20]	; (8002f24 <USBH_HID_KeybdInit+0x40>)
 8002f0e:	6163      	str	r3, [r4, #20]
 8002f10:	f104 0008 	add.w	r0, r4, #8
 8002f14:	2250      	movs	r2, #80	; 0x50
 8002f16:	3124      	adds	r1, #36	; 0x24
 8002f18:	f7ff ff16 	bl	8002d48 <fifo_init>
 8002f1c:	2000      	movs	r0, #0
 8002f1e:	bd10      	pop	{r4, pc}
 8002f20:	20000100 	.word	0x20000100
 8002f24:	20000110 	.word	0x20000110

08002f28 <USBH_HID_GetKeybdInfo>:
 8002f28:	b570      	push	{r4, r5, r6, lr}
 8002f2a:	4604      	mov	r4, r0
 8002f2c:	f7ff fef6 	bl	8002d1c <USBH_HID_GetDeviceType>
 8002f30:	2802      	cmp	r0, #2
 8002f32:	d001      	beq.n	8002f38 <USBH_HID_GetKeybdInfo+0x10>
 8002f34:	2000      	movs	r0, #0
 8002f36:	bd70      	pop	{r4, r5, r6, pc}
 8002f38:	f894 3227 	ldrb.w	r3, [r4, #551]	; 0x227
 8002f3c:	33b8      	adds	r3, #184	; 0xb8
 8002f3e:	f854 4023 	ldr.w	r4, [r4, r3, lsl #2]
 8002f42:	8b22      	ldrh	r2, [r4, #24]
 8002f44:	2a00      	cmp	r2, #0
 8002f46:	d0f5      	beq.n	8002f34 <USBH_HID_GetKeybdInfo+0xc>
 8002f48:	4d23      	ldr	r5, [pc, #140]	; (8002fd8 <USBH_HID_GetKeybdInfo+0xb0>)
 8002f4a:	f104 0008 	add.w	r0, r4, #8
 8002f4e:	f105 0110 	add.w	r1, r5, #16
 8002f52:	f7ff feff 	bl	8002d54 <fifo_read>
 8002f56:	8b23      	ldrh	r3, [r4, #24]
 8002f58:	4283      	cmp	r3, r0
 8002f5a:	d1eb      	bne.n	8002f34 <USBH_HID_GetKeybdInfo+0xc>
 8002f5c:	2100      	movs	r1, #0
 8002f5e:	481f      	ldr	r0, [pc, #124]	; (8002fdc <USBH_HID_GetKeybdInfo+0xb4>)
 8002f60:	f000 f8b6 	bl	80030d0 <HID_ReadItem>
 8002f64:	2100      	movs	r1, #0
 8002f66:	4603      	mov	r3, r0
 8002f68:	481d      	ldr	r0, [pc, #116]	; (8002fe0 <USBH_HID_GetKeybdInfo+0xb8>)
 8002f6a:	706b      	strb	r3, [r5, #1]
 8002f6c:	f000 f8b0 	bl	80030d0 <HID_ReadItem>
 8002f70:	2100      	movs	r1, #0
 8002f72:	4603      	mov	r3, r0
 8002f74:	481b      	ldr	r0, [pc, #108]	; (8002fe4 <USBH_HID_GetKeybdInfo+0xbc>)
 8002f76:	70ab      	strb	r3, [r5, #2]
 8002f78:	f000 f8aa 	bl	80030d0 <HID_ReadItem>
 8002f7c:	2100      	movs	r1, #0
 8002f7e:	4603      	mov	r3, r0
 8002f80:	4819      	ldr	r0, [pc, #100]	; (8002fe8 <USBH_HID_GetKeybdInfo+0xc0>)
 8002f82:	70eb      	strb	r3, [r5, #3]
 8002f84:	f000 f8a4 	bl	80030d0 <HID_ReadItem>
 8002f88:	2100      	movs	r1, #0
 8002f8a:	4603      	mov	r3, r0
 8002f8c:	4817      	ldr	r0, [pc, #92]	; (8002fec <USBH_HID_GetKeybdInfo+0xc4>)
 8002f8e:	712b      	strb	r3, [r5, #4]
 8002f90:	f000 f89e 	bl	80030d0 <HID_ReadItem>
 8002f94:	2100      	movs	r1, #0
 8002f96:	4603      	mov	r3, r0
 8002f98:	4815      	ldr	r0, [pc, #84]	; (8002ff0 <USBH_HID_GetKeybdInfo+0xc8>)
 8002f9a:	716b      	strb	r3, [r5, #5]
 8002f9c:	f000 f898 	bl	80030d0 <HID_ReadItem>
 8002fa0:	2100      	movs	r1, #0
 8002fa2:	4603      	mov	r3, r0
 8002fa4:	4813      	ldr	r0, [pc, #76]	; (8002ff4 <USBH_HID_GetKeybdInfo+0xcc>)
 8002fa6:	71ab      	strb	r3, [r5, #6]
 8002fa8:	f000 f892 	bl	80030d0 <HID_ReadItem>
 8002fac:	2100      	movs	r1, #0
 8002fae:	4603      	mov	r3, r0
 8002fb0:	4811      	ldr	r0, [pc, #68]	; (8002ff8 <USBH_HID_GetKeybdInfo+0xd0>)
 8002fb2:	71eb      	strb	r3, [r5, #7]
 8002fb4:	f000 f88c 	bl	80030d0 <HID_ReadItem>
 8002fb8:	462e      	mov	r6, r5
 8002fba:	4d10      	ldr	r5, [pc, #64]	; (8002ffc <USBH_HID_GetKeybdInfo+0xd4>)
 8002fbc:	f806 0f08 	strb.w	r0, [r6, #8]!
 8002fc0:	2400      	movs	r4, #0
 8002fc2:	b2e1      	uxtb	r1, r4
 8002fc4:	4628      	mov	r0, r5
 8002fc6:	f000 f883 	bl	80030d0 <HID_ReadItem>
 8002fca:	3401      	adds	r4, #1
 8002fcc:	2c06      	cmp	r4, #6
 8002fce:	f806 0f01 	strb.w	r0, [r6, #1]!
 8002fd2:	d1f6      	bne.n	8002fc2 <USBH_HID_GetKeybdInfo+0x9a>
 8002fd4:	4800      	ldr	r0, [pc, #0]	; (8002fd8 <USBH_HID_GetKeybdInfo+0xb0>)
 8002fd6:	bd70      	pop	{r4, r5, r6, pc}
 8002fd8:	20000100 	.word	0x20000100
 8002fdc:	080063ac 	.word	0x080063ac
 8002fe0:	080063cc 	.word	0x080063cc
 8002fe4:	080063ec 	.word	0x080063ec
 8002fe8:	0800640c 	.word	0x0800640c
 8002fec:	0800642c 	.word	0x0800642c
 8002ff0:	0800644c 	.word	0x0800644c
 8002ff4:	0800646c 	.word	0x0800646c
 8002ff8:	0800648c 	.word	0x0800648c
 8002ffc:	080064ac 	.word	0x080064ac

08003000 <USBH_HID_MouseInit>:
 8003000:	b508      	push	{r3, lr}
 8003002:	f890 3227 	ldrb.w	r3, [r0, #551]	; 0x227
 8003006:	4a0d      	ldr	r2, [pc, #52]	; (800303c <USBH_HID_MouseInit+0x3c>)
 8003008:	4601      	mov	r1, r0
 800300a:	33b8      	adds	r3, #184	; 0xb8
 800300c:	2000      	movs	r0, #0
 800300e:	f851 3023 	ldr.w	r3, [r1, r3, lsl #2]
 8003012:	6010      	str	r0, [r2, #0]
 8003014:	f8b3 c018 	ldrh.w	ip, [r3, #24]
 8003018:	7110      	strb	r0, [r2, #4]
 800301a:	f1bc 0f04 	cmp.w	ip, #4
 800301e:	6090      	str	r0, [r2, #8]
 8003020:	bf84      	itt	hi
 8003022:	2204      	movhi	r2, #4
 8003024:	831a      	strhhi	r2, [r3, #24]
 8003026:	4a06      	ldr	r2, [pc, #24]	; (8003040 <USBH_HID_MouseInit+0x40>)
 8003028:	615a      	str	r2, [r3, #20]
 800302a:	f103 0008 	add.w	r0, r3, #8
 800302e:	2228      	movs	r2, #40	; 0x28
 8003030:	3124      	adds	r1, #36	; 0x24
 8003032:	f7ff fe89 	bl	8002d48 <fifo_init>
 8003036:	2000      	movs	r0, #0
 8003038:	bd08      	pop	{r3, pc}
 800303a:	bf00      	nop
 800303c:	20000118 	.word	0x20000118
 8003040:	20000120 	.word	0x20000120

08003044 <USBH_HID_GetMouseInfo>:
 8003044:	b538      	push	{r3, r4, r5, lr}
 8003046:	4604      	mov	r4, r0
 8003048:	f7ff fe68 	bl	8002d1c <USBH_HID_GetDeviceType>
 800304c:	2801      	cmp	r0, #1
 800304e:	d001      	beq.n	8003054 <USBH_HID_GetMouseInfo+0x10>
 8003050:	2000      	movs	r0, #0
 8003052:	bd38      	pop	{r3, r4, r5, pc}
 8003054:	f894 3227 	ldrb.w	r3, [r4, #551]	; 0x227
 8003058:	33b8      	adds	r3, #184	; 0xb8
 800305a:	f854 5023 	ldr.w	r5, [r4, r3, lsl #2]
 800305e:	8b2a      	ldrh	r2, [r5, #24]
 8003060:	2a00      	cmp	r2, #0
 8003062:	d0f5      	beq.n	8003050 <USBH_HID_GetMouseInfo+0xc>
 8003064:	4c14      	ldr	r4, [pc, #80]	; (80030b8 <USBH_HID_GetMouseInfo+0x74>)
 8003066:	f105 0008 	add.w	r0, r5, #8
 800306a:	f104 0108 	add.w	r1, r4, #8
 800306e:	f7ff fe71 	bl	8002d54 <fifo_read>
 8003072:	8b2b      	ldrh	r3, [r5, #24]
 8003074:	4283      	cmp	r3, r0
 8003076:	d1eb      	bne.n	8003050 <USBH_HID_GetMouseInfo+0xc>
 8003078:	2100      	movs	r1, #0
 800307a:	4810      	ldr	r0, [pc, #64]	; (80030bc <USBH_HID_GetMouseInfo+0x78>)
 800307c:	f000 f828 	bl	80030d0 <HID_ReadItem>
 8003080:	2100      	movs	r1, #0
 8003082:	4603      	mov	r3, r0
 8003084:	480e      	ldr	r0, [pc, #56]	; (80030c0 <USBH_HID_GetMouseInfo+0x7c>)
 8003086:	7023      	strb	r3, [r4, #0]
 8003088:	f000 f822 	bl	80030d0 <HID_ReadItem>
 800308c:	2100      	movs	r1, #0
 800308e:	4603      	mov	r3, r0
 8003090:	480c      	ldr	r0, [pc, #48]	; (80030c4 <USBH_HID_GetMouseInfo+0x80>)
 8003092:	7063      	strb	r3, [r4, #1]
 8003094:	f000 f81c 	bl	80030d0 <HID_ReadItem>
 8003098:	4603      	mov	r3, r0
 800309a:	70a3      	strb	r3, [r4, #2]
 800309c:	2100      	movs	r1, #0
 800309e:	480a      	ldr	r0, [pc, #40]	; (80030c8 <USBH_HID_GetMouseInfo+0x84>)
 80030a0:	f000 f816 	bl	80030d0 <HID_ReadItem>
 80030a4:	4603      	mov	r3, r0
 80030a6:	2100      	movs	r1, #0
 80030a8:	70e3      	strb	r3, [r4, #3]
 80030aa:	4808      	ldr	r0, [pc, #32]	; (80030cc <USBH_HID_GetMouseInfo+0x88>)
 80030ac:	f000 f810 	bl	80030d0 <HID_ReadItem>
 80030b0:	7120      	strb	r0, [r4, #4]
 80030b2:	4620      	mov	r0, r4
 80030b4:	bd38      	pop	{r3, r4, r5, pc}
 80030b6:	bf00      	nop
 80030b8:	20000118 	.word	0x20000118
 80030bc:	080066bc 	.word	0x080066bc
 80030c0:	080066dc 	.word	0x080066dc
 80030c4:	080066fc 	.word	0x080066fc
 80030c8:	0800671c 	.word	0x0800671c
 80030cc:	0800673c 	.word	0x0800673c

080030d0 <HID_ReadItem>:
 80030d0:	b570      	push	{r4, r5, r6, lr}
 80030d2:	7a43      	ldrb	r3, [r0, #9]
 80030d4:	6806      	ldr	r6, [r0, #0]
 80030d6:	7a05      	ldrb	r5, [r0, #8]
 80030d8:	4684      	mov	ip, r0
 80030da:	bbd3      	cbnz	r3, 8003152 <HID_ReadItem+0x82>
 80030dc:	6844      	ldr	r4, [r0, #4]
 80030de:	08e2      	lsrs	r2, r4, #3
 80030e0:	f014 0f07 	tst.w	r4, #7
 80030e4:	f102 0001 	add.w	r0, r2, #1
 80030e8:	bf08      	it	eq
 80030ea:	4610      	moveq	r0, r2
 80030ec:	b340      	cbz	r0, 8003140 <HID_ReadItem+0x70>
 80030ee:	f896 e000 	ldrb.w	lr, [r6]
 80030f2:	00c2      	lsls	r2, r0, #3
 80030f4:	2300      	movs	r3, #0
 80030f6:	fa0e f103 	lsl.w	r1, lr, r3
 80030fa:	3308      	adds	r3, #8
 80030fc:	429a      	cmp	r2, r3
 80030fe:	d1fa      	bne.n	80030f6 <HID_ReadItem+0x26>
 8003100:	2001      	movs	r0, #1
 8003102:	fa00 f304 	lsl.w	r3, r0, r4
 8003106:	1e5a      	subs	r2, r3, #1
 8003108:	40e9      	lsrs	r1, r5
 800310a:	4011      	ands	r1, r2
 800310c:	f8dc 200c 	ldr.w	r2, [ip, #12]
 8003110:	428a      	cmp	r2, r1
 8003112:	d813      	bhi.n	800313c <HID_ReadItem+0x6c>
 8003114:	f8dc 2010 	ldr.w	r2, [ip, #16]
 8003118:	428a      	cmp	r2, r1
 800311a:	d30f      	bcc.n	800313c <HID_ReadItem+0x6c>
 800311c:	f89c 200a 	ldrb.w	r2, [ip, #10]
 8003120:	b192      	cbz	r2, 8003148 <HID_ReadItem+0x78>
 8003122:	3c01      	subs	r4, #1
 8003124:	fa00 f404 	lsl.w	r4, r0, r4
 8003128:	420c      	tst	r4, r1
 800312a:	d00d      	beq.n	8003148 <HID_ReadItem+0x78>
 800312c:	f8dc 001c 	ldr.w	r0, [ip, #28]
 8003130:	425b      	negs	r3, r3
 8003132:	ea43 0201 	orr.w	r2, r3, r1
 8003136:	fb02 f000 	mul.w	r0, r2, r0
 800313a:	bd70      	pop	{r4, r5, r6, pc}
 800313c:	2000      	movs	r0, #0
 800313e:	bd70      	pop	{r4, r5, r6, pc}
 8003140:	f8dc 100c 	ldr.w	r1, [ip, #12]
 8003144:	2900      	cmp	r1, #0
 8003146:	d1f8      	bne.n	800313a <HID_ReadItem+0x6a>
 8003148:	f8dc 001c 	ldr.w	r0, [ip, #28]
 800314c:	fb01 f000 	mul.w	r0, r1, r0
 8003150:	bd70      	pop	{r4, r5, r6, pc}
 8003152:	428b      	cmp	r3, r1
 8003154:	d9f2      	bls.n	800313c <HID_ReadItem+0x6c>
 8003156:	6844      	ldr	r4, [r0, #4]
 8003158:	fb04 5101 	mla	r1, r4, r1, r5
 800315c:	eb06 06d1 	add.w	r6, r6, r1, lsr #3
 8003160:	f001 0507 	and.w	r5, r1, #7
 8003164:	e7bb      	b.n	80030de <HID_ReadItem+0xe>
 8003166:	bf00      	nop

08003168 <USBH_HUB_SOFProcess>:
 8003168:	f8d0 32e0 	ldr.w	r3, [r0, #736]	; 0x2e0
 800316c:	785a      	ldrb	r2, [r3, #1]
 800316e:	2a04      	cmp	r2, #4
 8003170:	d108      	bne.n	8003184 <USBH_HUB_SOFProcess+0x1c>
 8003172:	f8d0 22c8 	ldr.w	r2, [r0, #712]	; 0x2c8
 8003176:	6a18      	ldr	r0, [r3, #32]
 8003178:	8b99      	ldrh	r1, [r3, #28]
 800317a:	1a12      	subs	r2, r2, r0
 800317c:	428a      	cmp	r2, r1
 800317e:	bf24      	itt	cs
 8003180:	2203      	movcs	r2, #3
 8003182:	705a      	strbcs	r2, [r3, #1]
 8003184:	2000      	movs	r0, #0
 8003186:	4770      	bx	lr

08003188 <USBH_HUB_ClassRequest>:
 8003188:	b570      	push	{r4, r5, r6, lr}
 800318a:	f8d0 42e0 	ldr.w	r4, [r0, #736]	; 0x2e0
 800318e:	78e2      	ldrb	r2, [r4, #3]
 8003190:	4603      	mov	r3, r0
 8003192:	2a04      	cmp	r2, #4
 8003194:	d80a      	bhi.n	80031ac <USBH_HUB_ClassRequest+0x24>
 8003196:	e8df f002 	tbb	[pc, r2]
 800319a:	0b0b      	.short	0x0b0b
 800319c:	032e      	.short	0x032e
 800319e:	21          	.byte	0x21
 800319f:	00          	.byte	0x00
 80031a0:	4b29      	ldr	r3, [pc, #164]	; (8003248 <USBH_HUB_ClassRequest+0xc0>)
 80031a2:	8858      	ldrh	r0, [r3, #2]
 80031a4:	f002 fbc6 	bl	8005934 <USBH_Delay>
 80031a8:	2304      	movs	r3, #4
 80031aa:	70e3      	strb	r3, [r4, #3]
 80031ac:	2001      	movs	r0, #1
 80031ae:	bd70      	pop	{r4, r5, r6, pc}
 80031b0:	4d25      	ldr	r5, [pc, #148]	; (8003248 <USBH_HUB_ClassRequest+0xc0>)
 80031b2:	4a26      	ldr	r2, [pc, #152]	; (800324c <USBH_HUB_ClassRequest+0xc4>)
 80031b4:	7828      	ldrb	r0, [r5, #0]
 80031b6:	2601      	movs	r6, #1
 80031b8:	7016      	strb	r6, [r2, #0]
 80031ba:	2800      	cmp	r0, #0
 80031bc:	d031      	beq.n	8003222 <USBH_HUB_ClassRequest+0x9a>
 80031be:	42b0      	cmp	r0, r6
 80031c0:	d1f4      	bne.n	80031ac <USBH_HUB_ClassRequest+0x24>
 80031c2:	79a2      	ldrb	r2, [r4, #6]
 80031c4:	7a63      	ldrb	r3, [r4, #9]
 80031c6:	2a04      	cmp	r2, #4
 80031c8:	bf28      	it	cs
 80031ca:	2204      	movcs	r2, #4
 80031cc:	005b      	lsls	r3, r3, #1
 80031ce:	706a      	strb	r2, [r5, #1]
 80031d0:	806b      	strh	r3, [r5, #2]
 80031d2:	2200      	movs	r2, #0
 80031d4:	2302      	movs	r3, #2
 80031d6:	702a      	strb	r2, [r5, #0]
 80031d8:	70e3      	strb	r3, [r4, #3]
 80031da:	bd70      	pop	{r4, r5, r6, pc}
 80031dc:	4a1a      	ldr	r2, [pc, #104]	; (8003248 <USBH_HUB_ClassRequest+0xc0>)
 80031de:	481c      	ldr	r0, [pc, #112]	; (8003250 <USBH_HUB_ClassRequest+0xc8>)
 80031e0:	7851      	ldrb	r1, [r2, #1]
 80031e2:	2400      	movs	r4, #0
 80031e4:	f883 42d9 	strb.w	r4, [r3, #729]	; 0x2d9
 80031e8:	f001 ffee 	bl	80051c8 <LOG>
 80031ec:	4819      	ldr	r0, [pc, #100]	; (8003254 <USBH_HUB_ClassRequest+0xcc>)
 80031ee:	f001 ffeb 	bl	80051c8 <LOG>
 80031f2:	4620      	mov	r0, r4
 80031f4:	bd70      	pop	{r4, r5, r6, pc}
 80031f6:	4d15      	ldr	r5, [pc, #84]	; (800324c <USBH_HUB_ClassRequest+0xc4>)
 80031f8:	4817      	ldr	r0, [pc, #92]	; (8003258 <USBH_HUB_ClassRequest+0xd0>)
 80031fa:	7829      	ldrb	r1, [r5, #0]
 80031fc:	6158      	str	r0, [r3, #20]
 80031fe:	2200      	movs	r2, #0
 8003200:	7619      	strb	r1, [r3, #24]
 8003202:	765a      	strb	r2, [r3, #25]
 8003204:	835a      	strh	r2, [r3, #26]
 8003206:	4611      	mov	r1, r2
 8003208:	4618      	mov	r0, r3
 800320a:	f001 fd61 	bl	8004cd0 <USBH_CtlReq>
 800320e:	2800      	cmp	r0, #0
 8003210:	d1cc      	bne.n	80031ac <USBH_HUB_ClassRequest+0x24>
 8003212:	4a0d      	ldr	r2, [pc, #52]	; (8003248 <USBH_HUB_ClassRequest+0xc0>)
 8003214:	782b      	ldrb	r3, [r5, #0]
 8003216:	7852      	ldrb	r2, [r2, #1]
 8003218:	429a      	cmp	r2, r3
 800321a:	d011      	beq.n	8003240 <USBH_HUB_ClassRequest+0xb8>
 800321c:	3301      	adds	r3, #1
 800321e:	702b      	strb	r3, [r5, #0]
 8003220:	e7c4      	b.n	80031ac <USBH_HUB_ClassRequest+0x24>
 8003222:	490e      	ldr	r1, [pc, #56]	; (800325c <USBH_HUB_ClassRequest+0xd4>)
 8003224:	f44f 2210 	mov.w	r2, #589824	; 0x90000
 8003228:	e9c3 1205 	strd	r1, r2, [r3, #20]
 800322c:	4618      	mov	r0, r3
 800322e:	2209      	movs	r2, #9
 8003230:	1d21      	adds	r1, r4, #4
 8003232:	f001 fd4d 	bl	8004cd0 <USBH_CtlReq>
 8003236:	2800      	cmp	r0, #0
 8003238:	d1b8      	bne.n	80031ac <USBH_HUB_ClassRequest+0x24>
 800323a:	702e      	strb	r6, [r5, #0]
 800323c:	4630      	mov	r0, r6
 800323e:	bd70      	pop	{r4, r5, r6, pc}
 8003240:	2303      	movs	r3, #3
 8003242:	70e3      	strb	r3, [r4, #3]
 8003244:	2001      	movs	r0, #1
 8003246:	bd70      	pop	{r4, r5, r6, pc}
 8003248:	20000124 	.word	0x20000124
 800324c:	20000020 	.word	0x20000020
 8003250:	0800689c 	.word	0x0800689c
 8003254:	080068b4 	.word	0x080068b4
 8003258:	00080323 	.word	0x00080323
 800325c:	290006a0 	.word	0x290006a0

08003260 <USBH_HUB_InterfaceDeInit>:
 8003260:	b538      	push	{r3, r4, r5, lr}
 8003262:	4604      	mov	r4, r0
 8003264:	480e      	ldr	r0, [pc, #56]	; (80032a0 <USBH_HUB_InterfaceDeInit+0x40>)
 8003266:	f894 12db 	ldrb.w	r1, [r4, #731]	; 0x2db
 800326a:	f001 ffad 	bl	80051c8 <LOG>
 800326e:	f8d4 52e0 	ldr.w	r5, [r4, #736]	; 0x2e0
 8003272:	7829      	ldrb	r1, [r5, #0]
 8003274:	b921      	cbnz	r1, 8003280 <USBH_HUB_InterfaceDeInit+0x20>
 8003276:	4628      	mov	r0, r5
 8003278:	f002 fbfc 	bl	8005a74 <free>
 800327c:	2000      	movs	r0, #0
 800327e:	bd38      	pop	{r3, r4, r5, pc}
 8003280:	4620      	mov	r0, r4
 8003282:	f001 fe5b 	bl	8004f3c <USBH_ClosePipe>
 8003286:	7829      	ldrb	r1, [r5, #0]
 8003288:	4620      	mov	r0, r4
 800328a:	f001 fed7 	bl	800503c <USBH_FreePipe>
 800328e:	2300      	movs	r3, #0
 8003290:	702b      	strb	r3, [r5, #0]
 8003292:	f8d4 52e0 	ldr.w	r5, [r4, #736]	; 0x2e0
 8003296:	2d00      	cmp	r5, #0
 8003298:	d1ed      	bne.n	8003276 <USBH_HUB_InterfaceDeInit+0x16>
 800329a:	2000      	movs	r0, #0
 800329c:	bd38      	pop	{r3, r4, r5, pc}
 800329e:	bf00      	nop
 80032a0:	080068e4 	.word	0x080068e4

080032a4 <USBH_HUB_InterfaceInit>:
 80032a4:	b570      	push	{r4, r5, r6, lr}
 80032a6:	4b3d      	ldr	r3, [pc, #244]	; (800339c <USBH_HUB_InterfaceInit+0xf8>)
 80032a8:	4c3d      	ldr	r4, [pc, #244]	; (80033a0 <USBH_HUB_InterfaceInit+0xfc>)
 80032aa:	2200      	movs	r2, #0
 80032ac:	b084      	sub	sp, #16
 80032ae:	4605      	mov	r5, r0
 80032b0:	705a      	strb	r2, [r3, #1]
 80032b2:	805a      	strh	r2, [r3, #2]
 80032b4:	605a      	str	r2, [r3, #4]
 80032b6:	721a      	strb	r2, [r3, #8]
 80032b8:	f504 663b 	add.w	r6, r4, #2992	; 0xbb0
 80032bc:	f44f 723b 	mov.w	r2, #748	; 0x2ec
 80032c0:	4620      	mov	r0, r4
 80032c2:	2100      	movs	r1, #0
 80032c4:	4414      	add	r4, r2
 80032c6:	f002 fbdd 	bl	8005a84 <memset>
 80032ca:	42a6      	cmp	r6, r4
 80032cc:	d1f6      	bne.n	80032bc <USBH_HUB_InterfaceInit+0x18>
 80032ce:	f8d5 22bc 	ldr.w	r2, [r5, #700]	; 0x2bc
 80032d2:	2300      	movs	r3, #0
 80032d4:	7911      	ldrb	r1, [r2, #4]
 80032d6:	4628      	mov	r0, r5
 80032d8:	461a      	mov	r2, r3
 80032da:	f000 fb35 	bl	8003948 <USBH_FindInterface>
 80032de:	28ff      	cmp	r0, #255	; 0xff
 80032e0:	4606      	mov	r6, r0
 80032e2:	d039      	beq.n	8003358 <USBH_HUB_InterfaceInit+0xb4>
 80032e4:	2101      	movs	r1, #1
 80032e6:	2028      	movs	r0, #40	; 0x28
 80032e8:	f002 fb8a 	bl	8005a00 <calloc>
 80032ec:	2301      	movs	r3, #1
 80032ee:	4604      	mov	r4, r0
 80032f0:	f8c5 02e0 	str.w	r0, [r5, #736]	; 0x2e0
 80032f4:	f885 32dd 	strb.w	r3, [r5, #733]	; 0x2dd
 80032f8:	4631      	mov	r1, r6
 80032fa:	4628      	mov	r0, r5
 80032fc:	f000 faf4 	bl	80038e8 <USBH_SelectInterface>
 8003300:	f895 3227 	ldrb.w	r3, [r5, #551]	; 0x227
 8003304:	4827      	ldr	r0, [pc, #156]	; (80033a4 <USBH_HUB_InterfaceInit+0x100>)
 8003306:	eb03 1303 	add.w	r3, r3, r3, lsl #4
 800330a:	eb05 0343 	add.w	r3, r5, r3, lsl #1
 800330e:	2200      	movs	r2, #0
 8003310:	f893 1250 	ldrb.w	r1, [r3, #592]	; 0x250
 8003314:	76a1      	strb	r1, [r4, #26]
 8003316:	f893 1254 	ldrb.w	r1, [r3, #596]	; 0x254
 800331a:	7062      	strb	r2, [r4, #1]
 800331c:	29c7      	cmp	r1, #199	; 0xc7
 800331e:	70e2      	strb	r2, [r4, #3]
 8003320:	f8b3 2252 	ldrh.w	r2, [r3, #594]	; 0x252
 8003324:	8322      	strh	r2, [r4, #24]
 8003326:	b28b      	uxth	r3, r1
 8003328:	bf96      	itet	ls
 800332a:	21c8      	movls	r1, #200	; 0xc8
 800332c:	83a3      	strhhi	r3, [r4, #28]
 800332e:	83a1      	strhls	r1, [r4, #28]
 8003330:	f001 ff4a 	bl	80051c8 <LOG>
 8003334:	f895 3227 	ldrb.w	r3, [r5, #551]	; 0x227
 8003338:	eb03 1303 	add.w	r3, r3, r3, lsl #4
 800333c:	eb05 0343 	add.w	r3, r5, r3, lsl #1
 8003340:	f993 2250 	ldrsb.w	r2, [r3, #592]	; 0x250
 8003344:	f893 1250 	ldrb.w	r1, [r3, #592]	; 0x250
 8003348:	2a00      	cmp	r2, #0
 800334a:	db0e      	blt.n	800336a <USBH_HUB_InterfaceInit+0xc6>
 800334c:	2301      	movs	r3, #1
 800334e:	2000      	movs	r0, #0
 8003350:	f885 32da 	strb.w	r3, [r5, #730]	; 0x2da
 8003354:	b004      	add	sp, #16
 8003356:	bd70      	pop	{r4, r5, r6, pc}
 8003358:	f8d5 32bc 	ldr.w	r3, [r5, #700]	; 0x2bc
 800335c:	4812      	ldr	r0, [pc, #72]	; (80033a8 <USBH_HUB_InterfaceInit+0x104>)
 800335e:	6819      	ldr	r1, [r3, #0]
 8003360:	f001 ff32 	bl	80051c8 <LOG>
 8003364:	2002      	movs	r0, #2
 8003366:	b004      	add	sp, #16
 8003368:	bd70      	pop	{r4, r5, r6, pc}
 800336a:	70a1      	strb	r1, [r4, #2]
 800336c:	4628      	mov	r0, r5
 800336e:	f001 fdeb 	bl	8004f48 <USBH_AllocPipe>
 8003372:	8b22      	ldrh	r2, [r4, #24]
 8003374:	f895 3225 	ldrb.w	r3, [r5, #549]	; 0x225
 8003378:	9300      	str	r3, [sp, #0]
 800337a:	2103      	movs	r1, #3
 800337c:	e9cd 1201 	strd	r1, r2, [sp, #4]
 8003380:	4601      	mov	r1, r0
 8003382:	78a2      	ldrb	r2, [r4, #2]
 8003384:	7020      	strb	r0, [r4, #0]
 8003386:	f895 3224 	ldrb.w	r3, [r5, #548]	; 0x224
 800338a:	4628      	mov	r0, r5
 800338c:	f001 fdc6 	bl	8004f1c <USBH_OpenPipe>
 8003390:	7821      	ldrb	r1, [r4, #0]
 8003392:	2200      	movs	r2, #0
 8003394:	4628      	mov	r0, r5
 8003396:	f002 fab3 	bl	8005900 <USBH_LL_SetToggle>
 800339a:	e7d7      	b.n	800334c <USBH_HUB_InterfaceInit+0xa8>
 800339c:	20000124 	.word	0x20000124
 80033a0:	20000460 	.word	0x20000460
 80033a4:	08006928 	.word	0x08006928
 80033a8:	08006900 	.word	0x08006900

080033ac <detach.constprop.0>:
 80033ac:	e92d 43f8 	stmdb	sp!, {r3, r4, r5, r6, r7, r8, r9, lr}
 80033b0:	4f2a      	ldr	r7, [pc, #168]	; (800345c <detach.constprop.0+0xb0>)
 80033b2:	f44f 743b 	mov.w	r4, #748	; 0x2ec
 80033b6:	fb00 f404 	mul.w	r4, r0, r4
 80033ba:	193d      	adds	r5, r7, r4
 80033bc:	f895 32d8 	ldrb.w	r3, [r5, #728]	; 0x2d8
 80033c0:	b90b      	cbnz	r3, 80033c6 <detach.constprop.0+0x1a>
 80033c2:	e8bd 83f8 	ldmia.w	sp!, {r3, r4, r5, r6, r7, r8, r9, pc}
 80033c6:	f895 12db 	ldrb.w	r1, [r5, #731]	; 0x2db
 80033ca:	4606      	mov	r6, r0
 80033cc:	4824      	ldr	r0, [pc, #144]	; (8003460 <detach.constprop.0+0xb4>)
 80033ce:	f001 fefb 	bl	80051c8 <LOG>
 80033d2:	f8d5 32d4 	ldr.w	r3, [r5, #724]	; 0x2d4
 80033d6:	b113      	cbz	r3, 80033de <detach.constprop.0+0x32>
 80033d8:	2105      	movs	r1, #5
 80033da:	4628      	mov	r0, r5
 80033dc:	4798      	blx	r3
 80033de:	f44f 783b 	mov.w	r8, #748	; 0x2ec
 80033e2:	fb08 7806 	mla	r8, r8, r6, r7
 80033e6:	f8d8 32bc 	ldr.w	r3, [r8, #700]	; 0x2bc
 80033ea:	b12b      	cbz	r3, 80033f8 <detach.constprop.0+0x4c>
 80033ec:	68db      	ldr	r3, [r3, #12]
 80033ee:	4628      	mov	r0, r5
 80033f0:	4798      	blx	r3
 80033f2:	2300      	movs	r3, #0
 80033f4:	f8c8 32bc 	str.w	r3, [r8, #700]	; 0x2bc
 80033f8:	f44f 783b 	mov.w	r8, #748	; 0x2ec
 80033fc:	fb08 7806 	mla	r8, r8, r6, r7
 8003400:	2500      	movs	r5, #0
 8003402:	f104 0024 	add.w	r0, r4, #36	; 0x24
 8003406:	f888 52d9 	strb.w	r5, [r8, #729]	; 0x2d9
 800340a:	f888 52db 	strb.w	r5, [r8, #731]	; 0x2db
 800340e:	f8c8 52c0 	str.w	r5, [r8, #704]	; 0x2c0
 8003412:	f888 52d8 	strb.w	r5, [r8, #728]	; 0x2d8
 8003416:	4438      	add	r0, r7
 8003418:	f44f 7200 	mov.w	r2, #512	; 0x200
 800341c:	4629      	mov	r1, r5
 800341e:	f002 fb31 	bl	8005a84 <memset>
 8003422:	f898 32dd 	ldrb.w	r3, [r8, #733]	; 0x2dd
 8003426:	b16b      	cbz	r3, 8003444 <detach.constprop.0+0x98>
 8003428:	f504 7438 	add.w	r4, r4, #736	; 0x2e0
 800342c:	443c      	add	r4, r7
 800342e:	46a9      	mov	r9, r5
 8003430:	6820      	ldr	r0, [r4, #0]
 8003432:	f002 fb1f 	bl	8005a74 <free>
 8003436:	f844 9b04 	str.w	r9, [r4], #4
 800343a:	f898 32dd 	ldrb.w	r3, [r8, #733]	; 0x2dd
 800343e:	3501      	adds	r5, #1
 8003440:	429d      	cmp	r5, r3
 8003442:	d3f5      	bcc.n	8003430 <detach.constprop.0+0x84>
 8003444:	f44f 733b 	mov.w	r3, #748	; 0x2ec
 8003448:	fb03 7606 	mla	r6, r3, r6, r7
 800344c:	2300      	movs	r3, #0
 800344e:	f886 32dd 	strb.w	r3, [r6, #733]	; 0x2dd
 8003452:	f886 3226 	strb.w	r3, [r6, #550]	; 0x226
 8003456:	e8bd 83f8 	ldmia.w	sp!, {r3, r4, r5, r6, r7, r8, r9, pc}
 800345a:	bf00      	nop
 800345c:	20000174 	.word	0x20000174
 8003460:	08006940 	.word	0x08006940

08003464 <USBH_HUB_Process>:
 8003464:	e92d 4ff8 	stmdb	sp!, {r3, r4, r5, r6, r7, r8, r9, sl, fp, lr}
 8003468:	f8d0 52e0 	ldr.w	r5, [r0, #736]	; 0x2e0
 800346c:	786b      	ldrb	r3, [r5, #1]
 800346e:	4604      	mov	r4, r0
 8003470:	2b0e      	cmp	r3, #14
 8003472:	d81f      	bhi.n	80034b4 <USBH_HUB_Process+0x50>
 8003474:	e8df f013 	tbh	[pc, r3, lsl #1]
 8003478:	00270021 	.word	0x00270021
 800347c:	002c001e 	.word	0x002c001e
 8003480:	00530040 	.word	0x00530040
 8003484:	0080007a 	.word	0x0080007a
 8003488:	009f009a 	.word	0x009f009a
 800348c:	00b600a4 	.word	0x00b600a4
 8003490:	014a013c 	.word	0x014a013c
 8003494:	000f      	.short	0x000f
 8003496:	4bba      	ldr	r3, [pc, #744]	; (8003780 <USBH_HUB_Process+0x31c>)
 8003498:	49ba      	ldr	r1, [pc, #744]	; (8003784 <USBH_HUB_Process+0x320>)
 800349a:	7a1b      	ldrb	r3, [r3, #8]
 800349c:	2200      	movs	r2, #0
 800349e:	6161      	str	r1, [r4, #20]
 80034a0:	7623      	strb	r3, [r4, #24]
 80034a2:	7662      	strb	r2, [r4, #25]
 80034a4:	8362      	strh	r2, [r4, #26]
 80034a6:	4611      	mov	r1, r2
 80034a8:	4620      	mov	r0, r4
 80034aa:	f001 fc11 	bl	8004cd0 <USBH_CtlReq>
 80034ae:	b908      	cbnz	r0, 80034b4 <USBH_HUB_Process+0x50>
 80034b0:	2307      	movs	r3, #7
 80034b2:	706b      	strb	r3, [r5, #1]
 80034b4:	2000      	movs	r0, #0
 80034b6:	e8bd 8ff8 	ldmia.w	sp!, {r3, r4, r5, r6, r7, r8, r9, sl, fp, pc}
 80034ba:	4ab1      	ldr	r2, [pc, #708]	; (8003780 <USBH_HUB_Process+0x31c>)
 80034bc:	2100      	movs	r1, #0
 80034be:	2301      	movs	r3, #1
 80034c0:	7211      	strb	r1, [r2, #8]
 80034c2:	706b      	strb	r3, [r5, #1]
 80034c4:	e7f6      	b.n	80034b4 <USBH_HUB_Process+0x50>
 80034c6:	f8d0 32c8 	ldr.w	r3, [r0, #712]	; 0x2c8
 80034ca:	07d9      	lsls	r1, r3, #31
 80034cc:	d5f2      	bpl.n	80034b4 <USBH_HUB_Process+0x50>
 80034ce:	e023      	b.n	8003518 <USBH_HUB_Process+0xb4>
 80034d0:	4bad      	ldr	r3, [pc, #692]	; (8003788 <USBH_HUB_Process+0x324>)
 80034d2:	f893 35c5 	ldrb.w	r3, [r3, #1477]	; 0x5c5
 80034d6:	f003 06ff 	and.w	r6, r3, #255	; 0xff
 80034da:	2b00      	cmp	r3, #0
 80034dc:	d1ea      	bne.n	80034b4 <USBH_HUB_Process+0x50>
 80034de:	782b      	ldrb	r3, [r5, #0]
 80034e0:	8b2a      	ldrh	r2, [r5, #24]
 80034e2:	1d29      	adds	r1, r5, #4
 80034e4:	f001 fd0a 	bl	8004efc <USBH_InterruptReceiveData>
 80034e8:	2304      	movs	r3, #4
 80034ea:	706b      	strb	r3, [r5, #1]
 80034ec:	f8d4 32c8 	ldr.w	r3, [r4, #712]	; 0x2c8
 80034f0:	622b      	str	r3, [r5, #32]
 80034f2:	f885 6024 	strb.w	r6, [r5, #36]	; 0x24
 80034f6:	e7dd      	b.n	80034b4 <USBH_HUB_Process+0x50>
 80034f8:	7829      	ldrb	r1, [r5, #0]
 80034fa:	f002 f9b7 	bl	800586c <USBH_LL_GetURBState>
 80034fe:	2801      	cmp	r0, #1
 8003500:	f040 8109 	bne.w	8003716 <USBH_HUB_Process+0x2b2>
 8003504:	f895 2024 	ldrb.w	r2, [r5, #36]	; 0x24
 8003508:	2a00      	cmp	r2, #0
 800350a:	d1d3      	bne.n	80034b4 <USBH_HUB_Process+0x50>
 800350c:	7929      	ldrb	r1, [r5, #4]
 800350e:	f885 0024 	strb.w	r0, [r5, #36]	; 0x24
 8003512:	2900      	cmp	r1, #0
 8003514:	f040 815e 	bne.w	80037d4 <USBH_HUB_Process+0x370>
 8003518:	2303      	movs	r3, #3
 800351a:	706b      	strb	r3, [r5, #1]
 800351c:	e7ca      	b.n	80034b4 <USBH_HUB_Process+0x50>
 800351e:	4b98      	ldr	r3, [pc, #608]	; (8003780 <USBH_HUB_Process+0x31c>)
 8003520:	7b1a      	ldrb	r2, [r3, #12]
 8003522:	07d0      	lsls	r0, r2, #31
 8003524:	f100 8102 	bmi.w	800372c <USBH_HUB_Process+0x2c8>
 8003528:	7b1a      	ldrb	r2, [r3, #12]
 800352a:	0791      	lsls	r1, r2, #30
 800352c:	f100 8125 	bmi.w	800377a <USBH_HUB_Process+0x316>
 8003530:	7b1a      	ldrb	r2, [r3, #12]
 8003532:	0752      	lsls	r2, r2, #29
 8003534:	f100 8146 	bmi.w	80037c4 <USBH_HUB_Process+0x360>
 8003538:	7b1a      	ldrb	r2, [r3, #12]
 800353a:	f012 0f08 	tst.w	r2, #8
 800353e:	bf0c      	ite	eq
 8003540:	2200      	moveq	r2, #0
 8003542:	2204      	movne	r2, #4
 8003544:	721a      	strb	r2, [r3, #8]
 8003546:	7a1a      	ldrb	r2, [r3, #8]
 8003548:	f002 01ff 	and.w	r1, r2, #255	; 0xff
 800354c:	2a00      	cmp	r2, #0
 800354e:	f000 810a 	beq.w	8003766 <USBH_HUB_Process+0x302>
 8003552:	2201      	movs	r2, #1
 8003554:	f884 22d9 	strb.w	r2, [r4, #729]	; 0x2d9
 8003558:	7a1a      	ldrb	r2, [r3, #8]
 800355a:	3a01      	subs	r2, #1
 800355c:	2a03      	cmp	r2, #3
 800355e:	d8a7      	bhi.n	80034b0 <USBH_HUB_Process+0x4c>
 8003560:	e8df f012 	tbh	[pc, r2, lsl #1]
 8003564:	00f700fc 	.word	0x00f700fc
 8003568:	00ed00f2 	.word	0x00ed00f2
 800356c:	200a      	movs	r0, #10
 800356e:	f002 f9e1 	bl	8005934 <USBH_Delay>
 8003572:	2305      	movs	r3, #5
 8003574:	706b      	strb	r3, [r5, #1]
 8003576:	e79d      	b.n	80034b4 <USBH_HUB_Process+0x50>
 8003578:	4e81      	ldr	r6, [pc, #516]	; (8003780 <USBH_HUB_Process+0x31c>)
 800357a:	7a33      	ldrb	r3, [r6, #8]
 800357c:	7603      	strb	r3, [r0, #24]
 800357e:	2300      	movs	r3, #0
 8003580:	1d2f      	adds	r7, r5, #4
 8003582:	7643      	strb	r3, [r0, #25]
 8003584:	2204      	movs	r2, #4
 8003586:	23a3      	movs	r3, #163	; 0xa3
 8003588:	8342      	strh	r2, [r0, #26]
 800358a:	6143      	str	r3, [r0, #20]
 800358c:	4639      	mov	r1, r7
 800358e:	f001 fb9f 	bl	8004cd0 <USBH_CtlReq>
 8003592:	2800      	cmp	r0, #0
 8003594:	d18e      	bne.n	80034b4 <USBH_HUB_Process+0x50>
 8003596:	6077      	str	r7, [r6, #4]
 8003598:	796b      	ldrb	r3, [r5, #5]
 800359a:	07db      	lsls	r3, r3, #31
 800359c:	d58a      	bpl.n	80034b4 <USBH_HUB_Process+0x50>
 800359e:	79ab      	ldrb	r3, [r5, #6]
 80035a0:	071f      	lsls	r7, r3, #28
 80035a2:	f140 8109 	bpl.w	80037b8 <USBH_HUB_Process+0x354>
 80035a6:	230d      	movs	r3, #13
 80035a8:	706b      	strb	r3, [r5, #1]
 80035aa:	e783      	b.n	80034b4 <USBH_HUB_Process+0x50>
 80035ac:	4b74      	ldr	r3, [pc, #464]	; (8003780 <USBH_HUB_Process+0x31c>)
 80035ae:	4977      	ldr	r1, [pc, #476]	; (800378c <USBH_HUB_Process+0x328>)
 80035b0:	7a1b      	ldrb	r3, [r3, #8]
 80035b2:	2200      	movs	r2, #0
 80035b4:	e773      	b.n	800349e <USBH_HUB_Process+0x3a>
 80035b6:	4b72      	ldr	r3, [pc, #456]	; (8003780 <USBH_HUB_Process+0x31c>)
 80035b8:	4975      	ldr	r1, [pc, #468]	; (8003790 <USBH_HUB_Process+0x32c>)
 80035ba:	7a1b      	ldrb	r3, [r3, #8]
 80035bc:	2200      	movs	r2, #0
 80035be:	e76e      	b.n	800349e <USBH_HUB_Process+0x3a>
 80035c0:	4b6f      	ldr	r3, [pc, #444]	; (8003780 <USBH_HUB_Process+0x31c>)
 80035c2:	4974      	ldr	r1, [pc, #464]	; (8003794 <USBH_HUB_Process+0x330>)
 80035c4:	7a1b      	ldrb	r3, [r3, #8]
 80035c6:	6141      	str	r1, [r0, #20]
 80035c8:	2200      	movs	r2, #0
 80035ca:	7603      	strb	r3, [r0, #24]
 80035cc:	7642      	strb	r2, [r0, #25]
 80035ce:	8342      	strh	r2, [r0, #26]
 80035d0:	4611      	mov	r1, r2
 80035d2:	f001 fb7d 	bl	8004cd0 <USBH_CtlReq>
 80035d6:	2800      	cmp	r0, #0
 80035d8:	f47f af6c 	bne.w	80034b4 <USBH_HUB_Process+0x50>
 80035dc:	2096      	movs	r0, #150	; 0x96
 80035de:	f002 f9a9 	bl	8005934 <USBH_Delay>
 80035e2:	e765      	b.n	80034b0 <USBH_HUB_Process+0x4c>
 80035e4:	4e66      	ldr	r6, [pc, #408]	; (8003780 <USBH_HUB_Process+0x31c>)
 80035e6:	486c      	ldr	r0, [pc, #432]	; (8003798 <USBH_HUB_Process+0x334>)
 80035e8:	6873      	ldr	r3, [r6, #4]
 80035ea:	7a31      	ldrb	r1, [r6, #8]
 80035ec:	785a      	ldrb	r2, [r3, #1]
 80035ee:	f8df 9198 	ldr.w	r9, [pc, #408]	; 8003788 <USBH_HUB_Process+0x324>
 80035f2:	f3c2 0240 	ubfx	r2, r2, #1, #1
 80035f6:	f001 fde7 	bl	80051c8 <LOG>
 80035fa:	f896 a008 	ldrb.w	sl, [r6, #8]
 80035fe:	6872      	ldr	r2, [r6, #4]
 8003600:	4866      	ldr	r0, [pc, #408]	; (800379c <USBH_HUB_Process+0x338>)
 8003602:	2306      	movs	r3, #6
 8003604:	706b      	strb	r3, [r5, #1]
 8003606:	f44f 733b 	mov.w	r3, #748	; 0x2ec
 800360a:	fa5f f78a 	uxtb.w	r7, sl
 800360e:	fb03 9a0a 	mla	sl, r3, sl, r9
 8003612:	4639      	mov	r1, r7
 8003614:	7855      	ldrb	r5, [r2, #1]
 8003616:	f001 fdd7 	bl	80051c8 <LOG>
 800361a:	f89a 32d8 	ldrb.w	r3, [sl, #728]	; 0x2d8
 800361e:	f3c5 0540 	ubfx	r5, r5, #1, #1
 8003622:	2b00      	cmp	r3, #0
 8003624:	f040 8084 	bne.w	8003730 <USBH_HUB_Process+0x2cc>
 8003628:	f44f 783b 	mov.w	r8, #748	; 0x2ec
 800362c:	fb08 f807 	mul.w	r8, r8, r7
 8003630:	2600      	movs	r6, #0
 8003632:	2d00      	cmp	r5, #0
 8003634:	eb09 0508 	add.w	r5, r9, r8
 8003638:	e9c5 66af 	strd	r6, r6, [r5, #700]	; 0x2bc
 800363c:	f899 12cc 	ldrb.w	r1, [r9, #716]	; 0x2cc
 8003640:	f885 12cc 	strb.w	r1, [r5, #716]	; 0x2cc
 8003644:	f885 72db 	strb.w	r7, [r5, #731]	; 0x2db
 8003648:	f885 62da 	strb.w	r6, [r5, #730]	; 0x2da
 800364c:	f8d4 32c4 	ldr.w	r3, [r4, #708]	; 0x2c4
 8003650:	4a53      	ldr	r2, [pc, #332]	; (80037a0 <USBH_HUB_Process+0x33c>)
 8003652:	f8c5 32c4 	str.w	r3, [r5, #708]	; 0x2c4
 8003656:	4b53      	ldr	r3, [pc, #332]	; (80037a4 <USBH_HUB_Process+0x340>)
 8003658:	f44f 7026 	mov.w	r0, #664	; 0x298
 800365c:	fb00 3001 	mla	r0, r0, r1, r3
 8003660:	eb02 0e08 	add.w	lr, r2, r8
 8003664:	f8d4 32d4 	ldr.w	r3, [r4, #724]	; 0x2d4
 8003668:	f8c5 32d4 	str.w	r3, [r5, #724]	; 0x2d4
 800366c:	bf18      	it	ne
 800366e:	2102      	movne	r1, #2
 8003670:	f04f 0301 	mov.w	r3, #1
 8003674:	bf0a      	itet	eq
 8003676:	2101      	moveq	r1, #1
 8003678:	f04f 0c08 	movne.w	ip, #8
 800367c:	f04f 0c40 	moveq.w	ip, #64	; 0x40
 8003680:	f44f 7b80 	mov.w	fp, #256	; 0x100
 8003684:	f828 b002 	strh.w	fp, [r8, r2]
 8003688:	f8c5 62c8 	str.w	r6, [r5, #712]	; 0x2c8
 800368c:	f8ae 301b 	strh.w	r3, [lr, #27]
 8003690:	f885 3226 	strb.w	r3, [r5, #550]	; 0x226
 8003694:	f885 c006 	strb.w	ip, [r5, #6]
 8003698:	f885 1225 	strb.w	r1, [r5, #549]	; 0x225
 800369c:	f885 6224 	strb.w	r6, [r5, #548]	; 0x224
 80036a0:	f7fd fd14 	bl	80010cc <HAL_HCD_GetCurrentFrame>
 80036a4:	4601      	mov	r1, r0
 80036a6:	4650      	mov	r0, sl
 80036a8:	f000 fc98 	bl	8003fdc <USBH_LL_SetTimer>
 80036ac:	f8d5 32c0 	ldr.w	r3, [r5, #704]	; 0x2c0
 80036b0:	22bb      	movs	r2, #187	; 0xbb
 80036b2:	fb02 3707 	mla	r7, r2, r7, r3
 80036b6:	3301      	adds	r3, #1
 80036b8:	f8c5 32c0 	str.w	r3, [r5, #704]	; 0x2c0
 80036bc:	eb09 0787 	add.w	r7, r9, r7, lsl #2
 80036c0:	2305      	movs	r3, #5
 80036c2:	f809 3008 	strb.w	r3, [r9, r8]
 80036c6:	4b38      	ldr	r3, [pc, #224]	; (80037a8 <USBH_HUB_Process+0x344>)
 80036c8:	f8c7 32ac 	str.w	r3, [r7, #684]	; 0x2ac
 80036cc:	7963      	ldrb	r3, [r4, #5]
 80036ce:	716b      	strb	r3, [r5, #5]
 80036d0:	7922      	ldrb	r2, [r4, #4]
 80036d2:	712a      	strb	r2, [r5, #4]
 80036d4:	2303      	movs	r3, #3
 80036d6:	f885 62d9 	strb.w	r6, [r5, #729]	; 0x2d9
 80036da:	e9c5 66b8 	strd	r6, r6, [r5, #736]	; 0x2e0
 80036de:	f8c5 62e8 	str.w	r6, [r5, #744]	; 0x2e8
 80036e2:	f885 62dd 	strb.w	r6, [r5, #733]	; 0x2dd
 80036e6:	f885 32d8 	strb.w	r3, [r5, #728]	; 0x2d8
 80036ea:	f884 62d9 	strb.w	r6, [r4, #729]	; 0x2d9
 80036ee:	e6e1      	b.n	80034b4 <USBH_HUB_Process+0x50>
 80036f0:	4e23      	ldr	r6, [pc, #140]	; (8003780 <USBH_HUB_Process+0x31c>)
 80036f2:	482e      	ldr	r0, [pc, #184]	; (80037ac <USBH_HUB_Process+0x348>)
 80036f4:	7a31      	ldrb	r1, [r6, #8]
 80036f6:	f001 fd67 	bl	80051c8 <LOG>
 80036fa:	2306      	movs	r3, #6
 80036fc:	706b      	strb	r3, [r5, #1]
 80036fe:	7a30      	ldrb	r0, [r6, #8]
 8003700:	f7ff fe54 	bl	80033ac <detach.constprop.0>
 8003704:	2300      	movs	r3, #0
 8003706:	f884 32d9 	strb.w	r3, [r4, #729]	; 0x2d9
 800370a:	e6d3      	b.n	80034b4 <USBH_HUB_Process+0x50>
 800370c:	4b1c      	ldr	r3, [pc, #112]	; (8003780 <USBH_HUB_Process+0x31c>)
 800370e:	4928      	ldr	r1, [pc, #160]	; (80037b0 <USBH_HUB_Process+0x34c>)
 8003710:	7a1b      	ldrb	r3, [r3, #8]
 8003712:	2200      	movs	r2, #0
 8003714:	e6c3      	b.n	800349e <USBH_HUB_Process+0x3a>
 8003716:	7829      	ldrb	r1, [r5, #0]
 8003718:	4620      	mov	r0, r4
 800371a:	f002 f8a7 	bl	800586c <USBH_LL_GetURBState>
 800371e:	2805      	cmp	r0, #5
 8003720:	d023      	beq.n	800376a <USBH_HUB_Process+0x306>
 8003722:	7829      	ldrb	r1, [r5, #0]
 8003724:	4620      	mov	r0, r4
 8003726:	f002 f8a1 	bl	800586c <USBH_LL_GetURBState>
 800372a:	e6c3      	b.n	80034b4 <USBH_HUB_Process+0x50>
 800372c:	2201      	movs	r2, #1
 800372e:	e709      	b.n	8003544 <USBH_HUB_Process+0xe0>
 8003730:	4820      	ldr	r0, [pc, #128]	; (80037b4 <USBH_HUB_Process+0x350>)
 8003732:	f001 fd49 	bl	80051c8 <LOG>
 8003736:	4638      	mov	r0, r7
 8003738:	f7ff fe38 	bl	80033ac <detach.constprop.0>
 800373c:	e774      	b.n	8003628 <USBH_HUB_Process+0x1c4>
 800373e:	7b1a      	ldrb	r2, [r3, #12]
 8003740:	f36f 02c3 	bfc	r2, #3, #1
 8003744:	731a      	strb	r2, [r3, #12]
 8003746:	e6b3      	b.n	80034b0 <USBH_HUB_Process+0x4c>
 8003748:	7b1a      	ldrb	r2, [r3, #12]
 800374a:	f36f 0282 	bfc	r2, #2, #1
 800374e:	731a      	strb	r2, [r3, #12]
 8003750:	e6ae      	b.n	80034b0 <USBH_HUB_Process+0x4c>
 8003752:	7b1a      	ldrb	r2, [r3, #12]
 8003754:	f36f 0241 	bfc	r2, #1, #1
 8003758:	731a      	strb	r2, [r3, #12]
 800375a:	e6a9      	b.n	80034b0 <USBH_HUB_Process+0x4c>
 800375c:	7b1a      	ldrb	r2, [r3, #12]
 800375e:	f36f 0200 	bfc	r2, #0, #1
 8003762:	731a      	strb	r2, [r3, #12]
 8003764:	e6a4      	b.n	80034b0 <USBH_HUB_Process+0x4c>
 8003766:	7069      	strb	r1, [r5, #1]
 8003768:	e6a4      	b.n	80034b4 <USBH_HUB_Process+0x50>
 800376a:	7ea9      	ldrb	r1, [r5, #26]
 800376c:	4620      	mov	r0, r4
 800376e:	f001 f9cb 	bl	8004b08 <USBH_ClrFeature>
 8003772:	2800      	cmp	r0, #0
 8003774:	f47f ae9e 	bne.w	80034b4 <USBH_HUB_Process+0x50>
 8003778:	e6ce      	b.n	8003518 <USBH_HUB_Process+0xb4>
 800377a:	2202      	movs	r2, #2
 800377c:	e6e2      	b.n	8003544 <USBH_HUB_Process+0xe0>
 800377e:	bf00      	nop
 8003780:	20000124 	.word	0x20000124
 8003784:	00120123 	.word	0x00120123
 8003788:	20000174 	.word	0x20000174
 800378c:	00100123 	.word	0x00100123
 8003790:	00140123 	.word	0x00140123
 8003794:	00040323 	.word	0x00040323
 8003798:	0800694c 	.word	0x0800694c
 800379c:	08006970 	.word	0x08006970
 80037a0:	20000175 	.word	0x20000175
 80037a4:	20001020 	.word	0x20001020
 80037a8:	20000000 	.word	0x20000000
 80037ac:	0800699c 	.word	0x0800699c
 80037b0:	00130123 	.word	0x00130123
 80037b4:	0800697c 	.word	0x0800697c
 80037b8:	79ab      	ldrb	r3, [r5, #6]
 80037ba:	075e      	lsls	r6, r3, #29
 80037bc:	d504      	bpl.n	80037c8 <USBH_HUB_Process+0x364>
 80037be:	230e      	movs	r3, #14
 80037c0:	706b      	strb	r3, [r5, #1]
 80037c2:	e677      	b.n	80034b4 <USBH_HUB_Process+0x50>
 80037c4:	2203      	movs	r2, #3
 80037c6:	e6bd      	b.n	8003544 <USBH_HUB_Process+0xe0>
 80037c8:	79ab      	ldrb	r3, [r5, #6]
 80037ca:	07dc      	lsls	r4, r3, #31
 80037cc:	d521      	bpl.n	8003812 <USBH_HUB_Process+0x3ae>
 80037ce:	2308      	movs	r3, #8
 80037d0:	706b      	strb	r3, [r5, #1]
 80037d2:	e66f      	b.n	80034b4 <USBH_HUB_Process+0x50>
 80037d4:	4b1a      	ldr	r3, [pc, #104]	; (8003840 <USBH_HUB_Process+0x3dc>)
 80037d6:	731a      	strb	r2, [r3, #12]
 80037d8:	078a      	lsls	r2, r1, #30
 80037da:	d503      	bpl.n	80037e4 <USBH_HUB_Process+0x380>
 80037dc:	7b1a      	ldrb	r2, [r3, #12]
 80037de:	f042 0201 	orr.w	r2, r2, #1
 80037e2:	731a      	strb	r2, [r3, #12]
 80037e4:	074f      	lsls	r7, r1, #29
 80037e6:	d503      	bpl.n	80037f0 <USBH_HUB_Process+0x38c>
 80037e8:	7b1a      	ldrb	r2, [r3, #12]
 80037ea:	f042 0202 	orr.w	r2, r2, #2
 80037ee:	731a      	strb	r2, [r3, #12]
 80037f0:	070e      	lsls	r6, r1, #28
 80037f2:	d503      	bpl.n	80037fc <USBH_HUB_Process+0x398>
 80037f4:	7b1a      	ldrb	r2, [r3, #12]
 80037f6:	f042 0204 	orr.w	r2, r2, #4
 80037fa:	731a      	strb	r2, [r3, #12]
 80037fc:	06cc      	lsls	r4, r1, #27
 80037fe:	d503      	bpl.n	8003808 <USBH_HUB_Process+0x3a4>
 8003800:	7b1a      	ldrb	r2, [r3, #12]
 8003802:	f042 0208 	orr.w	r2, r2, #8
 8003806:	731a      	strb	r2, [r3, #12]
 8003808:	7b1b      	ldrb	r3, [r3, #12]
 800380a:	2b00      	cmp	r3, #0
 800380c:	f47f aeb1 	bne.w	8003572 <USBH_HUB_Process+0x10e>
 8003810:	e682      	b.n	8003518 <USBH_HUB_Process+0xb4>
 8003812:	792b      	ldrb	r3, [r5, #4]
 8003814:	07d8      	lsls	r0, r3, #31
 8003816:	d509      	bpl.n	800382c <USBH_HUB_Process+0x3c8>
 8003818:	792b      	ldrb	r3, [r5, #4]
 800381a:	06d9      	lsls	r1, r3, #27
 800381c:	f53f ae48 	bmi.w	80034b0 <USBH_HUB_Process+0x4c>
 8003820:	79ab      	ldrb	r3, [r5, #6]
 8003822:	06da      	lsls	r2, r3, #27
 8003824:	d505      	bpl.n	8003832 <USBH_HUB_Process+0x3ce>
 8003826:	2309      	movs	r3, #9
 8003828:	706b      	strb	r3, [r5, #1]
 800382a:	e643      	b.n	80034b4 <USBH_HUB_Process+0x50>
 800382c:	230c      	movs	r3, #12
 800382e:	706b      	strb	r3, [r5, #1]
 8003830:	e640      	b.n	80034b4 <USBH_HUB_Process+0x50>
 8003832:	792b      	ldrb	r3, [r5, #4]
 8003834:	079b      	lsls	r3, r3, #30
 8003836:	bf4c      	ite	mi
 8003838:	230b      	movmi	r3, #11
 800383a:	230a      	movpl	r3, #10
 800383c:	706b      	strb	r3, [r5, #1]
 800383e:	e639      	b.n	80034b4 <USBH_HUB_Process+0x50>
 8003840:	20000124 	.word	0x20000124

08003844 <USBH_Init>:
 8003844:	b570      	push	{r4, r5, r6, lr}
 8003846:	b348      	cbz	r0, 800389c <USBH_Init+0x58>
 8003848:	4613      	mov	r3, r2
 800384a:	2500      	movs	r5, #0
 800384c:	4604      	mov	r4, r0
 800384e:	f880 32cc 	strb.w	r3, [r0, #716]	; 0x2cc
 8003852:	e9c0 55af 	strd	r5, r5, [r0, #700]	; 0x2bc
 8003856:	223c      	movs	r2, #60	; 0x3c
 8003858:	f8d0 02c4 	ldr.w	r0, [r0, #708]	; 0x2c4
 800385c:	460e      	mov	r6, r1
 800385e:	4629      	mov	r1, r5
 8003860:	f002 f910 	bl	8005a84 <memset>
 8003864:	f44f 7200 	mov.w	r2, #512	; 0x200
 8003868:	4629      	mov	r1, r5
 800386a:	f104 0024 	add.w	r0, r4, #36	; 0x24
 800386e:	f002 f909 	bl	8005a84 <memset>
 8003872:	2240      	movs	r2, #64	; 0x40
 8003874:	f44f 7380 	mov.w	r3, #256	; 0x100
 8003878:	71a2      	strb	r2, [r4, #6]
 800387a:	2201      	movs	r2, #1
 800387c:	7025      	strb	r5, [r4, #0]
 800387e:	f8a4 3001 	strh.w	r3, [r4, #1]
 8003882:	f8c4 52c8 	str.w	r5, [r4, #712]	; 0x2c8
 8003886:	83a2      	strh	r2, [r4, #28]
 8003888:	f8a4 3224 	strh.w	r3, [r4, #548]	; 0x224
 800388c:	b10e      	cbz	r6, 8003892 <USBH_Init+0x4e>
 800388e:	f8c4 62d4 	str.w	r6, [r4, #724]	; 0x2d4
 8003892:	4620      	mov	r0, r4
 8003894:	f001 ff50 	bl	8005738 <USBH_LL_Init>
 8003898:	2000      	movs	r0, #0
 800389a:	bd70      	pop	{r4, r5, r6, pc}
 800389c:	4802      	ldr	r0, [pc, #8]	; (80038a8 <USBH_Init+0x64>)
 800389e:	f001 fc93 	bl	80051c8 <LOG>
 80038a2:	2002      	movs	r0, #2
 80038a4:	bd70      	pop	{r4, r5, r6, pc}
 80038a6:	bf00      	nop
 80038a8:	080069b4 	.word	0x080069b4

080038ac <USBH_RegisterClass>:
 80038ac:	b508      	push	{r3, lr}
 80038ae:	b189      	cbz	r1, 80038d4 <USBH_RegisterClass+0x28>
 80038b0:	f8d0 32c0 	ldr.w	r3, [r0, #704]	; 0x2c0
 80038b4:	2b03      	cmp	r3, #3
 80038b6:	d808      	bhi.n	80038ca <USBH_RegisterClass+0x1e>
 80038b8:	eb00 0283 	add.w	r2, r0, r3, lsl #2
 80038bc:	3301      	adds	r3, #1
 80038be:	f8c0 32c0 	str.w	r3, [r0, #704]	; 0x2c0
 80038c2:	2000      	movs	r0, #0
 80038c4:	f8c2 12ac 	str.w	r1, [r2, #684]	; 0x2ac
 80038c8:	bd08      	pop	{r3, pc}
 80038ca:	4805      	ldr	r0, [pc, #20]	; (80038e0 <USBH_RegisterClass+0x34>)
 80038cc:	f001 fc7c 	bl	80051c8 <LOG>
 80038d0:	2002      	movs	r0, #2
 80038d2:	bd08      	pop	{r3, pc}
 80038d4:	4803      	ldr	r0, [pc, #12]	; (80038e4 <USBH_RegisterClass+0x38>)
 80038d6:	f001 fc77 	bl	80051c8 <LOG>
 80038da:	2002      	movs	r0, #2
 80038dc:	bd08      	pop	{r3, pc}
 80038de:	bf00      	nop
 80038e0:	080069c8 	.word	0x080069c8
 80038e4:	080069e4 	.word	0x080069e4

080038e8 <USBH_SelectInterface>:
 80038e8:	b538      	push	{r3, r4, r5, lr}
 80038ea:	4604      	mov	r4, r0
 80038ec:	4814      	ldr	r0, [pc, #80]	; (8003940 <USBH_SelectInterface+0x58>)
 80038ee:	460d      	mov	r5, r1
 80038f0:	f001 fc6a 	bl	80051c8 <LOG>
 80038f4:	f894 3227 	ldrb.w	r3, [r4, #551]	; 0x227
 80038f8:	42ab      	cmp	r3, r5
 80038fa:	d01a      	beq.n	8003932 <USBH_SelectInterface+0x4a>
 80038fc:	f894 323e 	ldrb.w	r3, [r4, #574]	; 0x23e
 8003900:	b17b      	cbz	r3, 8003922 <USBH_SelectInterface+0x3a>
 8003902:	f894 2246 	ldrb.w	r2, [r4, #582]	; 0x246
 8003906:	42aa      	cmp	r2, r5
 8003908:	d010      	beq.n	800392c <USBH_SelectInterface+0x44>
 800390a:	2b01      	cmp	r3, #1
 800390c:	d009      	beq.n	8003922 <USBH_SelectInterface+0x3a>
 800390e:	f894 2268 	ldrb.w	r2, [r4, #616]	; 0x268
 8003912:	42aa      	cmp	r2, r5
 8003914:	d00f      	beq.n	8003936 <USBH_SelectInterface+0x4e>
 8003916:	2b02      	cmp	r3, #2
 8003918:	d003      	beq.n	8003922 <USBH_SelectInterface+0x3a>
 800391a:	f894 328a 	ldrb.w	r3, [r4, #650]	; 0x28a
 800391e:	42ab      	cmp	r3, r5
 8003920:	d00b      	beq.n	800393a <USBH_SelectInterface+0x52>
 8003922:	4808      	ldr	r0, [pc, #32]	; (8003944 <USBH_SelectInterface+0x5c>)
 8003924:	f001 fc50 	bl	80051c8 <LOG>
 8003928:	2002      	movs	r0, #2
 800392a:	bd38      	pop	{r3, r4, r5, pc}
 800392c:	2300      	movs	r3, #0
 800392e:	f884 3227 	strb.w	r3, [r4, #551]	; 0x227
 8003932:	2000      	movs	r0, #0
 8003934:	bd38      	pop	{r3, r4, r5, pc}
 8003936:	2301      	movs	r3, #1
 8003938:	e7f9      	b.n	800392e <USBH_SelectInterface+0x46>
 800393a:	2302      	movs	r3, #2
 800393c:	e7f7      	b.n	800392e <USBH_SelectInterface+0x46>
 800393e:	bf00      	nop
 8003940:	080069fc 	.word	0x080069fc
 8003944:	08006a1c 	.word	0x08006a1c

08003948 <USBH_FindInterface>:
 8003948:	2bff      	cmp	r3, #255	; 0xff
 800394a:	d071      	beq.n	8003a30 <USBH_FindInterface+0xe8>
 800394c:	2aff      	cmp	r2, #255	; 0xff
 800394e:	d022      	beq.n	8003996 <USBH_FindInterface+0x4e>
 8003950:	29ff      	cmp	r1, #255	; 0xff
 8003952:	d00d      	beq.n	8003970 <USBH_FindInterface+0x28>
 8003954:	f890 c249 	ldrb.w	ip, [r0, #585]	; 0x249
 8003958:	458c      	cmp	ip, r1
 800395a:	d02c      	beq.n	80039b6 <USBH_FindInterface+0x6e>
 800395c:	f890 c26b 	ldrb.w	ip, [r0, #619]	; 0x26b
 8003960:	458c      	cmp	ip, r1
 8003962:	d032      	beq.n	80039ca <USBH_FindInterface+0x82>
 8003964:	f890 c28d 	ldrb.w	ip, [r0, #653]	; 0x28d
 8003968:	458c      	cmp	ip, r1
 800396a:	d009      	beq.n	8003980 <USBH_FindInterface+0x38>
 800396c:	20ff      	movs	r0, #255	; 0xff
 800396e:	4770      	bx	lr
 8003970:	f890 124a 	ldrb.w	r1, [r0, #586]	; 0x24a
 8003974:	4291      	cmp	r1, r2
 8003976:	d03b      	beq.n	80039f0 <USBH_FindInterface+0xa8>
 8003978:	f890 126c 	ldrb.w	r1, [r0, #620]	; 0x26c
 800397c:	4291      	cmp	r1, r2
 800397e:	d045      	beq.n	8003a0c <USBH_FindInterface+0xc4>
 8003980:	f890 128e 	ldrb.w	r1, [r0, #654]	; 0x28e
 8003984:	4291      	cmp	r1, r2
 8003986:	d1f1      	bne.n	800396c <USBH_FindInterface+0x24>
 8003988:	f890 228f 	ldrb.w	r2, [r0, #655]	; 0x28f
 800398c:	429a      	cmp	r2, r3
 800398e:	d1ed      	bne.n	800396c <USBH_FindInterface+0x24>
 8003990:	2102      	movs	r1, #2
 8003992:	b2c8      	uxtb	r0, r1
 8003994:	4770      	bx	lr
 8003996:	29ff      	cmp	r1, #255	; 0xff
 8003998:	d03d      	beq.n	8003a16 <USBH_FindInterface+0xce>
 800399a:	f890 2249 	ldrb.w	r2, [r0, #585]	; 0x249
 800399e:	428a      	cmp	r2, r1
 80039a0:	d01d      	beq.n	80039de <USBH_FindInterface+0x96>
 80039a2:	f890 226b 	ldrb.w	r2, [r0, #619]	; 0x26b
 80039a6:	428a      	cmp	r2, r1
 80039a8:	d027      	beq.n	80039fa <USBH_FindInterface+0xb2>
 80039aa:	f890 228d 	ldrb.w	r2, [r0, #653]	; 0x28d
 80039ae:	428a      	cmp	r2, r1
 80039b0:	d0ea      	beq.n	8003988 <USBH_FindInterface+0x40>
 80039b2:	20ff      	movs	r0, #255	; 0xff
 80039b4:	4770      	bx	lr
 80039b6:	f890 c24a 	ldrb.w	ip, [r0, #586]	; 0x24a
 80039ba:	4594      	cmp	ip, r2
 80039bc:	d1ce      	bne.n	800395c <USBH_FindInterface+0x14>
 80039be:	f890 c24b 	ldrb.w	ip, [r0, #587]	; 0x24b
 80039c2:	459c      	cmp	ip, r3
 80039c4:	d1ca      	bne.n	800395c <USBH_FindInterface+0x14>
 80039c6:	2100      	movs	r1, #0
 80039c8:	e7e3      	b.n	8003992 <USBH_FindInterface+0x4a>
 80039ca:	f890 c26c 	ldrb.w	ip, [r0, #620]	; 0x26c
 80039ce:	4594      	cmp	ip, r2
 80039d0:	d1c8      	bne.n	8003964 <USBH_FindInterface+0x1c>
 80039d2:	f890 c26d 	ldrb.w	ip, [r0, #621]	; 0x26d
 80039d6:	459c      	cmp	ip, r3
 80039d8:	d1c4      	bne.n	8003964 <USBH_FindInterface+0x1c>
 80039da:	2101      	movs	r1, #1
 80039dc:	e7d9      	b.n	8003992 <USBH_FindInterface+0x4a>
 80039de:	f890 224b 	ldrb.w	r2, [r0, #587]	; 0x24b
 80039e2:	429a      	cmp	r2, r3
 80039e4:	d0ef      	beq.n	80039c6 <USBH_FindInterface+0x7e>
 80039e6:	f890 226b 	ldrb.w	r2, [r0, #619]	; 0x26b
 80039ea:	428a      	cmp	r2, r1
 80039ec:	d1dd      	bne.n	80039aa <USBH_FindInterface+0x62>
 80039ee:	e004      	b.n	80039fa <USBH_FindInterface+0xb2>
 80039f0:	f890 124b 	ldrb.w	r1, [r0, #587]	; 0x24b
 80039f4:	4299      	cmp	r1, r3
 80039f6:	d1bf      	bne.n	8003978 <USBH_FindInterface+0x30>
 80039f8:	e7e5      	b.n	80039c6 <USBH_FindInterface+0x7e>
 80039fa:	f890 226d 	ldrb.w	r2, [r0, #621]	; 0x26d
 80039fe:	429a      	cmp	r2, r3
 8003a00:	d0eb      	beq.n	80039da <USBH_FindInterface+0x92>
 8003a02:	f890 228d 	ldrb.w	r2, [r0, #653]	; 0x28d
 8003a06:	428a      	cmp	r2, r1
 8003a08:	d1d3      	bne.n	80039b2 <USBH_FindInterface+0x6a>
 8003a0a:	e7bd      	b.n	8003988 <USBH_FindInterface+0x40>
 8003a0c:	f890 126d 	ldrb.w	r1, [r0, #621]	; 0x26d
 8003a10:	4299      	cmp	r1, r3
 8003a12:	d1b5      	bne.n	8003980 <USBH_FindInterface+0x38>
 8003a14:	e7e1      	b.n	80039da <USBH_FindInterface+0x92>
 8003a16:	f890 224b 	ldrb.w	r2, [r0, #587]	; 0x24b
 8003a1a:	429a      	cmp	r2, r3
 8003a1c:	d0d3      	beq.n	80039c6 <USBH_FindInterface+0x7e>
 8003a1e:	f890 226d 	ldrb.w	r2, [r0, #621]	; 0x26d
 8003a22:	429a      	cmp	r2, r3
 8003a24:	d0d9      	beq.n	80039da <USBH_FindInterface+0x92>
 8003a26:	f890 228f 	ldrb.w	r2, [r0, #655]	; 0x28f
 8003a2a:	429a      	cmp	r2, r3
 8003a2c:	d19e      	bne.n	800396c <USBH_FindInterface+0x24>
 8003a2e:	e7af      	b.n	8003990 <USBH_FindInterface+0x48>
 8003a30:	2aff      	cmp	r2, #255	; 0xff
 8003a32:	d012      	beq.n	8003a5a <USBH_FindInterface+0x112>
 8003a34:	29ff      	cmp	r1, #255	; 0xff
 8003a36:	d02a      	beq.n	8003a8e <USBH_FindInterface+0x146>
 8003a38:	f890 3249 	ldrb.w	r3, [r0, #585]	; 0x249
 8003a3c:	428b      	cmp	r3, r1
 8003a3e:	d01c      	beq.n	8003a7a <USBH_FindInterface+0x132>
 8003a40:	f890 326b 	ldrb.w	r3, [r0, #619]	; 0x26b
 8003a44:	428b      	cmp	r3, r1
 8003a46:	d01d      	beq.n	8003a84 <USBH_FindInterface+0x13c>
 8003a48:	f890 328d 	ldrb.w	r3, [r0, #653]	; 0x28d
 8003a4c:	428b      	cmp	r3, r1
 8003a4e:	d18d      	bne.n	800396c <USBH_FindInterface+0x24>
 8003a50:	f890 328e 	ldrb.w	r3, [r0, #654]	; 0x28e
 8003a54:	4293      	cmp	r3, r2
 8003a56:	d189      	bne.n	800396c <USBH_FindInterface+0x24>
 8003a58:	e79a      	b.n	8003990 <USBH_FindInterface+0x48>
 8003a5a:	29ff      	cmp	r1, #255	; 0xff
 8003a5c:	d0b3      	beq.n	80039c6 <USBH_FindInterface+0x7e>
 8003a5e:	f890 3249 	ldrb.w	r3, [r0, #585]	; 0x249
 8003a62:	428b      	cmp	r3, r1
 8003a64:	d0af      	beq.n	80039c6 <USBH_FindInterface+0x7e>
 8003a66:	f890 326b 	ldrb.w	r3, [r0, #619]	; 0x26b
 8003a6a:	428b      	cmp	r3, r1
 8003a6c:	d0b5      	beq.n	80039da <USBH_FindInterface+0x92>
 8003a6e:	f890 328d 	ldrb.w	r3, [r0, #653]	; 0x28d
 8003a72:	428b      	cmp	r3, r1
 8003a74:	f47f af7a 	bne.w	800396c <USBH_FindInterface+0x24>
 8003a78:	e78a      	b.n	8003990 <USBH_FindInterface+0x48>
 8003a7a:	f890 324a 	ldrb.w	r3, [r0, #586]	; 0x24a
 8003a7e:	4293      	cmp	r3, r2
 8003a80:	d1de      	bne.n	8003a40 <USBH_FindInterface+0xf8>
 8003a82:	e7a0      	b.n	80039c6 <USBH_FindInterface+0x7e>
 8003a84:	f890 326c 	ldrb.w	r3, [r0, #620]	; 0x26c
 8003a88:	4293      	cmp	r3, r2
 8003a8a:	d1dd      	bne.n	8003a48 <USBH_FindInterface+0x100>
 8003a8c:	e7a5      	b.n	80039da <USBH_FindInterface+0x92>
 8003a8e:	f890 324a 	ldrb.w	r3, [r0, #586]	; 0x24a
 8003a92:	4293      	cmp	r3, r2
 8003a94:	d097      	beq.n	80039c6 <USBH_FindInterface+0x7e>
 8003a96:	f890 326c 	ldrb.w	r3, [r0, #620]	; 0x26c
 8003a9a:	4293      	cmp	r3, r2
 8003a9c:	d1d8      	bne.n	8003a50 <USBH_FindInterface+0x108>
 8003a9e:	e79c      	b.n	80039da <USBH_FindInterface+0x92>

08003aa0 <USBH_Start>:
 8003aa0:	b510      	push	{r4, lr}
 8003aa2:	4604      	mov	r4, r0
 8003aa4:	f001 fe80 	bl	80057a8 <USBH_LL_Start>
 8003aa8:	2101      	movs	r1, #1
 8003aaa:	4620      	mov	r0, r4
 8003aac:	f001 fee2 	bl	8005874 <USBH_LL_DriverVBUS>
 8003ab0:	2000      	movs	r0, #0
 8003ab2:	bd10      	pop	{r4, pc}

08003ab4 <USBH_Process>:
 8003ab4:	e92d 43f0 	stmdb	sp!, {r4, r5, r6, r7, r8, r9, lr}
 8003ab8:	b087      	sub	sp, #28
 8003aba:	2302      	movs	r3, #2
 8003abc:	f88d 3017 	strb.w	r3, [sp, #23]
 8003ac0:	7803      	ldrb	r3, [r0, #0]
 8003ac2:	4604      	mov	r4, r0
 8003ac4:	2b0a      	cmp	r3, #10
 8003ac6:	d80c      	bhi.n	8003ae2 <USBH_Process+0x2e>
 8003ac8:	e8df f003 	tbb	[pc, r3]
 8003acc:	5a1c0b0f 	.word	0x5a1c0b0f
 8003ad0:	c4b3a50b 	.word	0xc4b3a50b
 8003ad4:	dbce      	.short	0xdbce
 8003ad6:	06          	.byte	0x06
 8003ad7:	00          	.byte	0x00
 8003ad8:	f8d0 32bc 	ldr.w	r3, [r0, #700]	; 0x2bc
 8003adc:	b10b      	cbz	r3, 8003ae2 <USBH_Process+0x2e>
 8003ade:	695b      	ldr	r3, [r3, #20]
 8003ae0:	4798      	blx	r3
 8003ae2:	2000      	movs	r0, #0
 8003ae4:	b007      	add	sp, #28
 8003ae6:	e8bd 83f0 	ldmia.w	sp!, {r4, r5, r6, r7, r8, r9, pc}
 8003aea:	f890 3226 	ldrb.w	r3, [r0, #550]	; 0x226
 8003aee:	2b00      	cmp	r3, #0
 8003af0:	d0f7      	beq.n	8003ae2 <USBH_Process+0x2e>
 8003af2:	2301      	movs	r3, #1
 8003af4:	7003      	strb	r3, [r0, #0]
 8003af6:	20c8      	movs	r0, #200	; 0xc8
 8003af8:	f001 ff1c 	bl	8005934 <USBH_Delay>
 8003afc:	4620      	mov	r0, r4
 8003afe:	f001 fe7f 	bl	8005800 <USBH_LL_ResetPort>
 8003b02:	e7ee      	b.n	8003ae2 <USBH_Process+0x2e>
 8003b04:	48bd      	ldr	r0, [pc, #756]	; (8003dfc <USBH_Process+0x348>)
 8003b06:	f001 fb5f 	bl	80051c8 <LOG>
 8003b0a:	2064      	movs	r0, #100	; 0x64
 8003b0c:	f001 ff12 	bl	8005934 <USBH_Delay>
 8003b10:	f894 3226 	ldrb.w	r3, [r4, #550]	; 0x226
 8003b14:	2b00      	cmp	r3, #0
 8003b16:	f000 81ef 	beq.w	8003ef8 <USBH_Process+0x444>
 8003b1a:	4620      	mov	r0, r4
 8003b1c:	f001 fe5c 	bl	80057d8 <USBH_LL_GetSpeed>
 8003b20:	2305      	movs	r3, #5
 8003b22:	7023      	strb	r3, [r4, #0]
 8003b24:	2100      	movs	r1, #0
 8003b26:	f884 0225 	strb.w	r0, [r4, #549]	; 0x225
 8003b2a:	4620      	mov	r0, r4
 8003b2c:	f001 fa0c 	bl	8004f48 <USBH_AllocPipe>
 8003b30:	2180      	movs	r1, #128	; 0x80
 8003b32:	7160      	strb	r0, [r4, #5]
 8003b34:	4620      	mov	r0, r4
 8003b36:	f001 fa07 	bl	8004f48 <USBH_AllocPipe>
 8003b3a:	f894 3225 	ldrb.w	r3, [r4, #549]	; 0x225
 8003b3e:	7120      	strb	r0, [r4, #4]
 8003b40:	2b02      	cmp	r3, #2
 8003b42:	bf14      	ite	ne
 8003b44:	79a2      	ldrbne	r2, [r4, #6]
 8003b46:	2208      	moveq	r2, #8
 8003b48:	f04f 0500 	mov.w	r5, #0
 8003b4c:	bf08      	it	eq
 8003b4e:	71a2      	strbeq	r2, [r4, #6]
 8003b50:	e9cd 5201 	strd	r5, r2, [sp, #4]
 8003b54:	9300      	str	r3, [sp, #0]
 8003b56:	f894 3224 	ldrb.w	r3, [r4, #548]	; 0x224
 8003b5a:	4601      	mov	r1, r0
 8003b5c:	2280      	movs	r2, #128	; 0x80
 8003b5e:	4620      	mov	r0, r4
 8003b60:	f001 f9dc 	bl	8004f1c <USBH_OpenPipe>
 8003b64:	79a1      	ldrb	r1, [r4, #6]
 8003b66:	f894 2225 	ldrb.w	r2, [r4, #549]	; 0x225
 8003b6a:	f894 3224 	ldrb.w	r3, [r4, #548]	; 0x224
 8003b6e:	9200      	str	r2, [sp, #0]
 8003b70:	e9cd 5101 	strd	r5, r1, [sp, #4]
 8003b74:	462a      	mov	r2, r5
 8003b76:	7961      	ldrb	r1, [r4, #5]
 8003b78:	4620      	mov	r0, r4
 8003b7a:	f001 f9cf 	bl	8004f1c <USBH_OpenPipe>
 8003b7e:	e7b0      	b.n	8003ae2 <USBH_Process+0x2e>
 8003b80:	f890 12db 	ldrb.w	r1, [r0, #731]	; 0x2db
 8003b84:	489e      	ldr	r0, [pc, #632]	; (8003e00 <USBH_Process+0x34c>)
 8003b86:	4e9f      	ldr	r6, [pc, #636]	; (8003e04 <USBH_Process+0x350>)
 8003b88:	f001 fb1e 	bl	80051c8 <LOG>
 8003b8c:	2501      	movs	r5, #1
 8003b8e:	f5a6 783b 	sub.w	r8, r6, #748	; 0x2ec
 8003b92:	f44f 773b 	mov.w	r7, #748	; 0x2ec
 8003b96:	f04f 0900 	mov.w	r9, #0
 8003b9a:	fb07 8305 	mla	r3, r7, r5, r8
 8003b9e:	3501      	adds	r5, #1
 8003ba0:	f893 32d8 	ldrb.w	r3, [r3, #728]	; 0x2d8
 8003ba4:	b16b      	cbz	r3, 8003bc2 <USBH_Process+0x10e>
 8003ba6:	f8d6 32bc 	ldr.w	r3, [r6, #700]	; 0x2bc
 8003baa:	b123      	cbz	r3, 8003bb6 <USBH_Process+0x102>
 8003bac:	68db      	ldr	r3, [r3, #12]
 8003bae:	4630      	mov	r0, r6
 8003bb0:	4798      	blx	r3
 8003bb2:	f8c6 92bc 	str.w	r9, [r6, #700]	; 0x2bc
 8003bb6:	f44f 723b 	mov.w	r2, #748	; 0x2ec
 8003bba:	4630      	mov	r0, r6
 8003bbc:	2100      	movs	r1, #0
 8003bbe:	f001 ff61 	bl	8005a84 <memset>
 8003bc2:	2d05      	cmp	r5, #5
 8003bc4:	f506 763b 	add.w	r6, r6, #748	; 0x2ec
 8003bc8:	d1e7      	bne.n	8003b9a <USBH_Process+0xe6>
 8003bca:	223c      	movs	r2, #60	; 0x3c
 8003bcc:	2100      	movs	r1, #0
 8003bce:	f8d4 02c4 	ldr.w	r0, [r4, #708]	; 0x2c4
 8003bd2:	f001 ff57 	bl	8005a84 <memset>
 8003bd6:	f44f 7200 	mov.w	r2, #512	; 0x200
 8003bda:	2100      	movs	r1, #0
 8003bdc:	f104 0024 	add.w	r0, r4, #36	; 0x24
 8003be0:	f001 ff50 	bl	8005a84 <memset>
 8003be4:	2140      	movs	r1, #64	; 0x40
 8003be6:	f8d4 22bc 	ldr.w	r2, [r4, #700]	; 0x2bc
 8003bea:	71a1      	strb	r1, [r4, #6]
 8003bec:	2500      	movs	r5, #0
 8003bee:	f44f 7380 	mov.w	r3, #256	; 0x100
 8003bf2:	2101      	movs	r1, #1
 8003bf4:	7025      	strb	r5, [r4, #0]
 8003bf6:	f8a4 3001 	strh.w	r3, [r4, #1]
 8003bfa:	f8c4 52c8 	str.w	r5, [r4, #712]	; 0x2c8
 8003bfe:	83a1      	strh	r1, [r4, #28]
 8003c00:	f8a4 3224 	strh.w	r3, [r4, #548]	; 0x224
 8003c04:	2a00      	cmp	r2, #0
 8003c06:	f43f af6c 	beq.w	8003ae2 <USBH_Process+0x2e>
 8003c0a:	68d3      	ldr	r3, [r2, #12]
 8003c0c:	4620      	mov	r0, r4
 8003c0e:	4798      	blx	r3
 8003c10:	f8c4 52bc 	str.w	r5, [r4, #700]	; 0x2bc
 8003c14:	e765      	b.n	8003ae2 <USBH_Process+0x2e>
 8003c16:	7843      	ldrb	r3, [r0, #1]
 8003c18:	2b07      	cmp	r3, #7
 8003c1a:	f63f af62 	bhi.w	8003ae2 <USBH_Process+0x2e>
 8003c1e:	e8df f013 	tbh	[pc, r3, lsl #1]
 8003c22:	00a1      	.short	0x00a1
 8003c24:	0131014f 	.word	0x0131014f
 8003c28:	01270162 	.word	0x01270162
 8003c2c:	00fd0112 	.word	0x00fd0112
 8003c30:	00cd      	.short	0x00cd
 8003c32:	f8d0 32bc 	ldr.w	r3, [r0, #700]	; 0x2bc
 8003c36:	2b00      	cmp	r3, #0
 8003c38:	f000 8191 	beq.w	8003f5e <USBH_Process+0x4aa>
 8003c3c:	691b      	ldr	r3, [r3, #16]
 8003c3e:	4798      	blx	r3
 8003c40:	f88d 0017 	strb.w	r0, [sp, #23]
 8003c44:	f89d 3017 	ldrb.w	r3, [sp, #23]
 8003c48:	2b00      	cmp	r3, #0
 8003c4a:	f47f af4a 	bne.w	8003ae2 <USBH_Process+0x2e>
 8003c4e:	230a      	movs	r3, #10
 8003c50:	7023      	strb	r3, [r4, #0]
 8003c52:	e746      	b.n	8003ae2 <USBH_Process+0x2e>
 8003c54:	f8d0 32d4 	ldr.w	r3, [r0, #724]	; 0x2d4
 8003c58:	2b00      	cmp	r3, #0
 8003c5a:	f43f af42 	beq.w	8003ae2 <USBH_Process+0x2e>
 8003c5e:	2101      	movs	r1, #1
 8003c60:	4798      	blx	r3
 8003c62:	2308      	movs	r3, #8
 8003c64:	7023      	strb	r3, [r4, #0]
 8003c66:	e73c      	b.n	8003ae2 <USBH_Process+0x2e>
 8003c68:	f890 123f 	ldrb.w	r1, [r0, #575]	; 0x23f
 8003c6c:	f000 fe68 	bl	8004940 <USBH_SetCfg>
 8003c70:	2800      	cmp	r0, #0
 8003c72:	f47f af36 	bne.w	8003ae2 <USBH_Process+0x2e>
 8003c76:	2309      	movs	r3, #9
 8003c78:	4863      	ldr	r0, [pc, #396]	; (8003e08 <USBH_Process+0x354>)
 8003c7a:	7023      	strb	r3, [r4, #0]
 8003c7c:	f001 faa4 	bl	80051c8 <LOG>
 8003c80:	e72f      	b.n	8003ae2 <USBH_Process+0x2e>
 8003c82:	f8d0 32c0 	ldr.w	r3, [r0, #704]	; 0x2c0
 8003c86:	2b00      	cmp	r3, #0
 8003c88:	f000 813c 	beq.w	8003f04 <USBH_Process+0x450>
 8003c8c:	f8d0 22ac 	ldr.w	r2, [r0, #684]	; 0x2ac
 8003c90:	f890 3227 	ldrb.w	r3, [r0, #551]	; 0x227
 8003c94:	2100      	movs	r1, #0
 8003c96:	f8c0 12bc 	str.w	r1, [r0, #700]	; 0x2bc
 8003c9a:	b182      	cbz	r2, 8003cbe <USBH_Process+0x20a>
 8003c9c:	eb03 1103 	add.w	r1, r3, r3, lsl #4
 8003ca0:	eb00 0141 	add.w	r1, r0, r1, lsl #1
 8003ca4:	7910      	ldrb	r0, [r2, #4]
 8003ca6:	f891 1249 	ldrb.w	r1, [r1, #585]	; 0x249
 8003caa:	4281      	cmp	r1, r0
 8003cac:	d005      	beq.n	8003cba <USBH_Process+0x206>
 8003cae:	2803      	cmp	r0, #3
 8003cb0:	d105      	bne.n	8003cbe <USBH_Process+0x20a>
 8003cb2:	f894 122c 	ldrb.w	r1, [r4, #556]	; 0x22c
 8003cb6:	29ff      	cmp	r1, #255	; 0xff
 8003cb8:	d101      	bne.n	8003cbe <USBH_Process+0x20a>
 8003cba:	f8c4 22bc 	str.w	r2, [r4, #700]	; 0x2bc
 8003cbe:	f8d4 22b0 	ldr.w	r2, [r4, #688]	; 0x2b0
 8003cc2:	b182      	cbz	r2, 8003ce6 <USBH_Process+0x232>
 8003cc4:	eb03 1103 	add.w	r1, r3, r3, lsl #4
 8003cc8:	eb04 0141 	add.w	r1, r4, r1, lsl #1
 8003ccc:	7910      	ldrb	r0, [r2, #4]
 8003cce:	f891 1249 	ldrb.w	r1, [r1, #585]	; 0x249
 8003cd2:	4281      	cmp	r1, r0
 8003cd4:	d005      	beq.n	8003ce2 <USBH_Process+0x22e>
 8003cd6:	2803      	cmp	r0, #3
 8003cd8:	d105      	bne.n	8003ce6 <USBH_Process+0x232>
 8003cda:	f894 122c 	ldrb.w	r1, [r4, #556]	; 0x22c
 8003cde:	29ff      	cmp	r1, #255	; 0xff
 8003ce0:	d101      	bne.n	8003ce6 <USBH_Process+0x232>
 8003ce2:	f8c4 22bc 	str.w	r2, [r4, #700]	; 0x2bc
 8003ce6:	f8d4 02b4 	ldr.w	r0, [r4, #692]	; 0x2b4
 8003cea:	b170      	cbz	r0, 8003d0a <USBH_Process+0x256>
 8003cec:	eb03 1203 	add.w	r2, r3, r3, lsl #4
 8003cf0:	eb04 0242 	add.w	r2, r4, r2, lsl #1
 8003cf4:	7905      	ldrb	r5, [r0, #4]
 8003cf6:	f892 2249 	ldrb.w	r2, [r2, #585]	; 0x249
 8003cfa:	42aa      	cmp	r2, r5
 8003cfc:	ea4f 1103 	mov.w	r1, r3, lsl #4
 8003d00:	f000 810b 	beq.w	8003f1a <USBH_Process+0x466>
 8003d04:	2d03      	cmp	r5, #3
 8003d06:	f000 8103 	beq.w	8003f10 <USBH_Process+0x45c>
 8003d0a:	f8d4 22b8 	ldr.w	r2, [r4, #696]	; 0x2b8
 8003d0e:	b162      	cbz	r2, 8003d2a <USBH_Process+0x276>
 8003d10:	0119      	lsls	r1, r3, #4
 8003d12:	440b      	add	r3, r1
 8003d14:	eb04 0343 	add.w	r3, r4, r3, lsl #1
 8003d18:	7911      	ldrb	r1, [r2, #4]
 8003d1a:	f893 3249 	ldrb.w	r3, [r3, #585]	; 0x249
 8003d1e:	428b      	cmp	r3, r1
 8003d20:	f000 8109 	beq.w	8003f36 <USBH_Process+0x482>
 8003d24:	2903      	cmp	r1, #3
 8003d26:	f000 8101 	beq.w	8003f2c <USBH_Process+0x478>
 8003d2a:	f8d4 22bc 	ldr.w	r2, [r4, #700]	; 0x2bc
 8003d2e:	2a00      	cmp	r2, #0
 8003d30:	f000 811b 	beq.w	8003f6a <USBH_Process+0x4b6>
 8003d34:	6893      	ldr	r3, [r2, #8]
 8003d36:	4620      	mov	r0, r4
 8003d38:	4798      	blx	r3
 8003d3a:	f88d 0017 	strb.w	r0, [sp, #23]
 8003d3e:	f89d 3017 	ldrb.w	r3, [sp, #23]
 8003d42:	2b00      	cmp	r3, #0
 8003d44:	f000 80fa 	beq.w	8003f3c <USBH_Process+0x488>
 8003d48:	f89d 3017 	ldrb.w	r3, [sp, #23]
 8003d4c:	2b01      	cmp	r3, #1
 8003d4e:	f43f aec8 	beq.w	8003ae2 <USBH_Process+0x2e>
 8003d52:	f8d4 32bc 	ldr.w	r3, [r4, #700]	; 0x2bc
 8003d56:	482d      	ldr	r0, [pc, #180]	; (8003e0c <USBH_Process+0x358>)
 8003d58:	220c      	movs	r2, #12
 8003d5a:	7022      	strb	r2, [r4, #0]
 8003d5c:	6819      	ldr	r1, [r3, #0]
 8003d5e:	f001 fa33 	bl	80051c8 <LOG>
 8003d62:	e6be      	b.n	8003ae2 <USBH_Process+0x2e>
 8003d64:	2108      	movs	r1, #8
 8003d66:	f000 fa71 	bl	800424c <USBH_Get_DevDesc>
 8003d6a:	4605      	mov	r5, r0
 8003d6c:	2800      	cmp	r0, #0
 8003d6e:	f47f aeb8 	bne.w	8003ae2 <USBH_Process+0x2e>
 8003d72:	f894 222f 	ldrb.w	r2, [r4, #559]	; 0x22f
 8003d76:	f894 1225 	ldrb.w	r1, [r4, #549]	; 0x225
 8003d7a:	71a2      	strb	r2, [r4, #6]
 8003d7c:	2301      	movs	r3, #1
 8003d7e:	7063      	strb	r3, [r4, #1]
 8003d80:	f894 3224 	ldrb.w	r3, [r4, #548]	; 0x224
 8003d84:	9100      	str	r1, [sp, #0]
 8003d86:	e9cd 0201 	strd	r0, r2, [sp, #4]
 8003d8a:	2280      	movs	r2, #128	; 0x80
 8003d8c:	7921      	ldrb	r1, [r4, #4]
 8003d8e:	4620      	mov	r0, r4
 8003d90:	f001 f8c4 	bl	8004f1c <USBH_OpenPipe>
 8003d94:	79a1      	ldrb	r1, [r4, #6]
 8003d96:	f894 0225 	ldrb.w	r0, [r4, #549]	; 0x225
 8003d9a:	f894 3224 	ldrb.w	r3, [r4, #548]	; 0x224
 8003d9e:	e9cd 5101 	strd	r5, r1, [sp, #4]
 8003da2:	462a      	mov	r2, r5
 8003da4:	7961      	ldrb	r1, [r4, #5]
 8003da6:	9000      	str	r0, [sp, #0]
 8003da8:	4620      	mov	r0, r4
 8003daa:	f001 f8b7 	bl	8004f1c <USBH_OpenPipe>
 8003dae:	f894 2224 	ldrb.w	r2, [r4, #548]	; 0x224
 8003db2:	79a1      	ldrb	r1, [r4, #6]
 8003db4:	4816      	ldr	r0, [pc, #88]	; (8003e10 <USBH_Process+0x35c>)
 8003db6:	f001 fa07 	bl	80051c8 <LOG>
 8003dba:	e692      	b.n	8003ae2 <USBH_Process+0x2e>
 8003dbc:	f890 1238 	ldrb.w	r1, [r0, #568]	; 0x238
 8003dc0:	2900      	cmp	r1, #0
 8003dc2:	f000 80de 	beq.w	8003f82 <USBH_Process+0x4ce>
 8003dc6:	f100 0524 	add.w	r5, r0, #36	; 0x24
 8003dca:	23ff      	movs	r3, #255	; 0xff
 8003dcc:	462a      	mov	r2, r5
 8003dce:	f000 fb99 	bl	8004504 <USBH_Get_StringDesc>
 8003dd2:	2800      	cmp	r0, #0
 8003dd4:	f47f ae85 	bne.w	8003ae2 <USBH_Process+0x2e>
 8003dd8:	480e      	ldr	r0, [pc, #56]	; (8003e14 <USBH_Process+0x360>)
 8003dda:	4629      	mov	r1, r5
 8003ddc:	f001 f9f4 	bl	80051c8 <LOG>
 8003de0:	480d      	ldr	r0, [pc, #52]	; (8003e18 <USBH_Process+0x364>)
 8003de2:	f001 f9f1 	bl	80051c8 <LOG>
 8003de6:	f894 3239 	ldrb.w	r3, [r4, #569]	; 0x239
 8003dea:	2200      	movs	r2, #0
 8003dec:	2b01      	cmp	r3, #1
 8003dee:	f884 2227 	strb.w	r2, [r4, #551]	; 0x227
 8003df2:	f000 80c0 	beq.w	8003f76 <USBH_Process+0x4c2>
 8003df6:	2307      	movs	r3, #7
 8003df8:	7023      	strb	r3, [r4, #0]
 8003dfa:	e672      	b.n	8003ae2 <USBH_Process+0x2e>
 8003dfc:	08006a3c 	.word	0x08006a3c
 8003e00:	08006c20 	.word	0x08006c20
 8003e04:	20000460 	.word	0x20000460
 8003e08:	08006b70 	.word	0x08006b70
 8003e0c:	08006bc0 	.word	0x08006bc0
 8003e10:	08006a7c 	.word	0x08006a7c
 8003e14:	08006b0c 	.word	0x08006b0c
 8003e18:	08006b34 	.word	0x08006b34
 8003e1c:	f890 1237 	ldrb.w	r1, [r0, #567]	; 0x237
 8003e20:	2900      	cmp	r1, #0
 8003e22:	f000 80b2 	beq.w	8003f8a <USBH_Process+0x4d6>
 8003e26:	f100 0524 	add.w	r5, r0, #36	; 0x24
 8003e2a:	23ff      	movs	r3, #255	; 0xff
 8003e2c:	462a      	mov	r2, r5
 8003e2e:	f000 fb69 	bl	8004504 <USBH_Get_StringDesc>
 8003e32:	2800      	cmp	r0, #0
 8003e34:	f47f ae55 	bne.w	8003ae2 <USBH_Process+0x2e>
 8003e38:	485a      	ldr	r0, [pc, #360]	; (8003fa4 <USBH_Process+0x4f0>)
 8003e3a:	4629      	mov	r1, r5
 8003e3c:	f001 f9c4 	bl	80051c8 <LOG>
 8003e40:	2307      	movs	r3, #7
 8003e42:	7063      	strb	r3, [r4, #1]
 8003e44:	e64d      	b.n	8003ae2 <USBH_Process+0x2e>
 8003e46:	f890 1236 	ldrb.w	r1, [r0, #566]	; 0x236
 8003e4a:	2900      	cmp	r1, #0
 8003e4c:	f000 80a3 	beq.w	8003f96 <USBH_Process+0x4e2>
 8003e50:	f100 0524 	add.w	r5, r0, #36	; 0x24
 8003e54:	23ff      	movs	r3, #255	; 0xff
 8003e56:	462a      	mov	r2, r5
 8003e58:	f000 fb54 	bl	8004504 <USBH_Get_StringDesc>
 8003e5c:	2800      	cmp	r0, #0
 8003e5e:	f47f ae40 	bne.w	8003ae2 <USBH_Process+0x2e>
 8003e62:	4851      	ldr	r0, [pc, #324]	; (8003fa8 <USBH_Process+0x4f4>)
 8003e64:	4629      	mov	r1, r5
 8003e66:	f001 f9af 	bl	80051c8 <LOG>
 8003e6a:	2306      	movs	r3, #6
 8003e6c:	7063      	strb	r3, [r4, #1]
 8003e6e:	e638      	b.n	8003ae2 <USBH_Process+0x2e>
 8003e70:	f8b0 123c 	ldrh.w	r1, [r0, #572]	; 0x23c
 8003e74:	f000 fa54 	bl	8004320 <USBH_Get_CfgDesc>
 8003e78:	2800      	cmp	r0, #0
 8003e7a:	f47f ae32 	bne.w	8003ae2 <USBH_Process+0x2e>
 8003e7e:	2305      	movs	r3, #5
 8003e80:	7063      	strb	r3, [r4, #1]
 8003e82:	e62e      	b.n	8003ae2 <USBH_Process+0x2e>
 8003e84:	f890 12db 	ldrb.w	r1, [r0, #731]	; 0x2db
 8003e88:	f000 fc76 	bl	8004778 <USBH_SetAddress>
 8003e8c:	4605      	mov	r5, r0
 8003e8e:	2800      	cmp	r0, #0
 8003e90:	f47f ae27 	bne.w	8003ae2 <USBH_Process+0x2e>
 8003e94:	2002      	movs	r0, #2
 8003e96:	f001 fd4d 	bl	8005934 <USBH_Delay>
 8003e9a:	f894 12db 	ldrb.w	r1, [r4, #731]	; 0x2db
 8003e9e:	f884 1224 	strb.w	r1, [r4, #548]	; 0x224
 8003ea2:	4842      	ldr	r0, [pc, #264]	; (8003fac <USBH_Process+0x4f8>)
 8003ea4:	f001 f990 	bl	80051c8 <LOG>
 8003ea8:	79a1      	ldrb	r1, [r4, #6]
 8003eaa:	f894 2225 	ldrb.w	r2, [r4, #549]	; 0x225
 8003eae:	2303      	movs	r3, #3
 8003eb0:	7063      	strb	r3, [r4, #1]
 8003eb2:	f894 3224 	ldrb.w	r3, [r4, #548]	; 0x224
 8003eb6:	9200      	str	r2, [sp, #0]
 8003eb8:	e9cd 5101 	strd	r5, r1, [sp, #4]
 8003ebc:	7921      	ldrb	r1, [r4, #4]
 8003ebe:	e64d      	b.n	8003b5c <USBH_Process+0xa8>
 8003ec0:	2112      	movs	r1, #18
 8003ec2:	f000 f9c3 	bl	800424c <USBH_Get_DevDesc>
 8003ec6:	2800      	cmp	r0, #0
 8003ec8:	f47f ae0b 	bne.w	8003ae2 <USBH_Process+0x2e>
 8003ecc:	f8b4 1232 	ldrh.w	r1, [r4, #562]	; 0x232
 8003ed0:	4837      	ldr	r0, [pc, #220]	; (8003fb0 <USBH_Process+0x4fc>)
 8003ed2:	f001 f979 	bl	80051c8 <LOG>
 8003ed6:	f8b4 1230 	ldrh.w	r1, [r4, #560]	; 0x230
 8003eda:	4836      	ldr	r0, [pc, #216]	; (8003fb4 <USBH_Process+0x500>)
 8003edc:	f001 f974 	bl	80051c8 <LOG>
 8003ee0:	2302      	movs	r3, #2
 8003ee2:	7063      	strb	r3, [r4, #1]
 8003ee4:	e5fd      	b.n	8003ae2 <USBH_Process+0x2e>
 8003ee6:	2109      	movs	r1, #9
 8003ee8:	f000 fa1a 	bl	8004320 <USBH_Get_CfgDesc>
 8003eec:	2800      	cmp	r0, #0
 8003eee:	f47f adf8 	bne.w	8003ae2 <USBH_Process+0x2e>
 8003ef2:	2304      	movs	r3, #4
 8003ef4:	7063      	strb	r3, [r4, #1]
 8003ef6:	e5f4      	b.n	8003ae2 <USBH_Process+0x2e>
 8003ef8:	482f      	ldr	r0, [pc, #188]	; (8003fb8 <USBH_Process+0x504>)
 8003efa:	f001 f965 	bl	80051c8 <LOG>
 8003efe:	2303      	movs	r3, #3
 8003f00:	7023      	strb	r3, [r4, #0]
 8003f02:	e5ee      	b.n	8003ae2 <USBH_Process+0x2e>
 8003f04:	482d      	ldr	r0, [pc, #180]	; (8003fbc <USBH_Process+0x508>)
 8003f06:	f001 f95f 	bl	80051c8 <LOG>
 8003f0a:	230c      	movs	r3, #12
 8003f0c:	7023      	strb	r3, [r4, #0]
 8003f0e:	e5e8      	b.n	8003ae2 <USBH_Process+0x2e>
 8003f10:	f894 222c 	ldrb.w	r2, [r4, #556]	; 0x22c
 8003f14:	2aff      	cmp	r2, #255	; 0xff
 8003f16:	f47f aef8 	bne.w	8003d0a <USBH_Process+0x256>
 8003f1a:	f8d4 22b8 	ldr.w	r2, [r4, #696]	; 0x2b8
 8003f1e:	f8c4 02bc 	str.w	r0, [r4, #700]	; 0x2bc
 8003f22:	2a00      	cmp	r2, #0
 8003f24:	f47f aef5 	bne.w	8003d12 <USBH_Process+0x25e>
 8003f28:	4602      	mov	r2, r0
 8003f2a:	e703      	b.n	8003d34 <USBH_Process+0x280>
 8003f2c:	f894 322c 	ldrb.w	r3, [r4, #556]	; 0x22c
 8003f30:	2bff      	cmp	r3, #255	; 0xff
 8003f32:	f47f aefa 	bne.w	8003d2a <USBH_Process+0x276>
 8003f36:	f8c4 22bc 	str.w	r2, [r4, #700]	; 0x2bc
 8003f3a:	e6fb      	b.n	8003d34 <USBH_Process+0x280>
 8003f3c:	f8d4 32bc 	ldr.w	r3, [r4, #700]	; 0x2bc
 8003f40:	481f      	ldr	r0, [pc, #124]	; (8003fc0 <USBH_Process+0x50c>)
 8003f42:	2206      	movs	r2, #6
 8003f44:	7022      	strb	r2, [r4, #0]
 8003f46:	6819      	ldr	r1, [r3, #0]
 8003f48:	f001 f93e 	bl	80051c8 <LOG>
 8003f4c:	f8d4 32d4 	ldr.w	r3, [r4, #724]	; 0x2d4
 8003f50:	2b00      	cmp	r3, #0
 8003f52:	f43f adc6 	beq.w	8003ae2 <USBH_Process+0x2e>
 8003f56:	2103      	movs	r1, #3
 8003f58:	4620      	mov	r0, r4
 8003f5a:	4798      	blx	r3
 8003f5c:	e5c1      	b.n	8003ae2 <USBH_Process+0x2e>
 8003f5e:	230c      	movs	r3, #12
 8003f60:	4818      	ldr	r0, [pc, #96]	; (8003fc4 <USBH_Process+0x510>)
 8003f62:	7023      	strb	r3, [r4, #0]
 8003f64:	f001 f930 	bl	80051c8 <LOG>
 8003f68:	e5bb      	b.n	8003ae2 <USBH_Process+0x2e>
 8003f6a:	230c      	movs	r3, #12
 8003f6c:	4816      	ldr	r0, [pc, #88]	; (8003fc8 <USBH_Process+0x514>)
 8003f6e:	7023      	strb	r3, [r4, #0]
 8003f70:	f001 f92a 	bl	80051c8 <LOG>
 8003f74:	e5b5      	b.n	8003ae2 <USBH_Process+0x2e>
 8003f76:	4815      	ldr	r0, [pc, #84]	; (8003fcc <USBH_Process+0x518>)
 8003f78:	f001 f926 	bl	80051c8 <LOG>
 8003f7c:	2308      	movs	r3, #8
 8003f7e:	7023      	strb	r3, [r4, #0]
 8003f80:	e5af      	b.n	8003ae2 <USBH_Process+0x2e>
 8003f82:	4813      	ldr	r0, [pc, #76]	; (8003fd0 <USBH_Process+0x51c>)
 8003f84:	f001 f920 	bl	80051c8 <LOG>
 8003f88:	e72a      	b.n	8003de0 <USBH_Process+0x32c>
 8003f8a:	4812      	ldr	r0, [pc, #72]	; (8003fd4 <USBH_Process+0x520>)
 8003f8c:	f001 f91c 	bl	80051c8 <LOG>
 8003f90:	2307      	movs	r3, #7
 8003f92:	7063      	strb	r3, [r4, #1]
 8003f94:	e5a5      	b.n	8003ae2 <USBH_Process+0x2e>
 8003f96:	4810      	ldr	r0, [pc, #64]	; (8003fd8 <USBH_Process+0x524>)
 8003f98:	f001 f916 	bl	80051c8 <LOG>
 8003f9c:	2306      	movs	r3, #6
 8003f9e:	7063      	strb	r3, [r4, #1]
 8003fa0:	e59f      	b.n	8003ae2 <USBH_Process+0x2e>
 8003fa2:	bf00      	nop
 8003fa4:	08006aec 	.word	0x08006aec
 8003fa8:	08006ac4 	.word	0x08006ac4
 8003fac:	08006aac 	.word	0x08006aac
 8003fb0:	08006a94 	.word	0x08006a94
 8003fb4:	08006aa0 	.word	0x08006aa0
 8003fb8:	08006a50 	.word	0x08006a50
 8003fbc:	08006b8c 	.word	0x08006b8c
 8003fc0:	08006bac 	.word	0x08006bac
 8003fc4:	08006c08 	.word	0x08006c08
 8003fc8:	08006be0 	.word	0x08006be0
 8003fcc:	08006b48 	.word	0x08006b48
 8003fd0:	08006b20 	.word	0x08006b20
 8003fd4:	08006afc 	.word	0x08006afc
 8003fd8:	08006ad8 	.word	0x08006ad8

08003fdc <USBH_LL_SetTimer>:
 8003fdc:	f8c0 12c8 	str.w	r1, [r0, #712]	; 0x2c8
 8003fe0:	4770      	bx	lr
 8003fe2:	bf00      	nop

08003fe4 <USBH_LL_IncTimer>:
 8003fe4:	f8d0 22c8 	ldr.w	r2, [r0, #712]	; 0x2c8
 8003fe8:	3201      	adds	r2, #1
 8003fea:	f8c0 22c8 	str.w	r2, [r0, #712]	; 0x2c8
 8003fee:	7802      	ldrb	r2, [r0, #0]
 8003ff0:	2a0a      	cmp	r2, #10
 8003ff2:	d000      	beq.n	8003ff6 <USBH_LL_IncTimer+0x12>
 8003ff4:	4770      	bx	lr
 8003ff6:	f8d0 32bc 	ldr.w	r3, [r0, #700]	; 0x2bc
 8003ffa:	2b00      	cmp	r3, #0
 8003ffc:	d0fa      	beq.n	8003ff4 <USBH_LL_IncTimer+0x10>
 8003ffe:	699b      	ldr	r3, [r3, #24]
 8004000:	4718      	bx	r3
 8004002:	bf00      	nop

08004004 <USBH_LL_Connect>:
 8004004:	b510      	push	{r4, lr}
 8004006:	7803      	ldrb	r3, [r0, #0]
 8004008:	4604      	mov	r4, r0
 800400a:	b963      	cbnz	r3, 8004026 <USBH_LL_Connect+0x22>
 800400c:	f003 02ff 	and.w	r2, r3, #255	; 0xff
 8004010:	f8d0 32d4 	ldr.w	r3, [r0, #724]	; 0x2d4
 8004014:	2101      	movs	r1, #1
 8004016:	f880 1226 	strb.w	r1, [r0, #550]	; 0x226
 800401a:	7002      	strb	r2, [r0, #0]
 800401c:	b10b      	cbz	r3, 8004022 <USBH_LL_Connect+0x1e>
 800401e:	2104      	movs	r1, #4
 8004020:	4798      	blx	r3
 8004022:	2000      	movs	r0, #0
 8004024:	bd10      	pop	{r4, pc}
 8004026:	7803      	ldrb	r3, [r0, #0]
 8004028:	2b01      	cmp	r3, #1
 800402a:	d1fa      	bne.n	8004022 <USBH_LL_Connect+0x1e>
 800402c:	2064      	movs	r0, #100	; 0x64
 800402e:	f001 fc81 	bl	8005934 <USBH_Delay>
 8004032:	2302      	movs	r3, #2
 8004034:	7023      	strb	r3, [r4, #0]
 8004036:	2000      	movs	r0, #0
 8004038:	bd10      	pop	{r4, pc}
 800403a:	bf00      	nop

0800403c <USBH_LL_Disconnect>:
 800403c:	b510      	push	{r4, lr}
 800403e:	4c17      	ldr	r4, [pc, #92]	; (800409c <USBH_LL_Disconnect+0x60>)
 8004040:	f890 12db 	ldrb.w	r1, [r0, #731]	; 0x2db
 8004044:	4816      	ldr	r0, [pc, #88]	; (80040a0 <USBH_LL_Disconnect+0x64>)
 8004046:	f001 f8bf 	bl	80051c8 <LOG>
 800404a:	f894 22cc 	ldrb.w	r2, [r4, #716]	; 0x2cc
 800404e:	4b15      	ldr	r3, [pc, #84]	; (80040a4 <USBH_LL_Disconnect+0x68>)
 8004050:	f44f 7126 	mov.w	r1, #664	; 0x298
 8004054:	fb01 3302 	mla	r3, r1, r2, r3
 8004058:	4620      	mov	r0, r4
 800405a:	f8c3 4294 	str.w	r4, [r3, #660]	; 0x294
 800405e:	f8c4 32d0 	str.w	r3, [r4, #720]	; 0x2d0
 8004062:	f001 fba9 	bl	80057b8 <USBH_LL_Stop>
 8004066:	7921      	ldrb	r1, [r4, #4]
 8004068:	4620      	mov	r0, r4
 800406a:	f000 ffe7 	bl	800503c <USBH_FreePipe>
 800406e:	7961      	ldrb	r1, [r4, #5]
 8004070:	4620      	mov	r0, r4
 8004072:	f000 ffe3 	bl	800503c <USBH_FreePipe>
 8004076:	f8d4 32d4 	ldr.w	r3, [r4, #724]	; 0x2d4
 800407a:	2200      	movs	r2, #0
 800407c:	f884 2226 	strb.w	r2, [r4, #550]	; 0x226
 8004080:	b113      	cbz	r3, 8004088 <USBH_LL_Disconnect+0x4c>
 8004082:	2105      	movs	r1, #5
 8004084:	4620      	mov	r0, r4
 8004086:	4798      	blx	r3
 8004088:	4804      	ldr	r0, [pc, #16]	; (800409c <USBH_LL_Disconnect+0x60>)
 800408a:	f001 fb8d 	bl	80057a8 <USBH_LL_Start>
 800408e:	2303      	movs	r3, #3
 8004090:	4805      	ldr	r0, [pc, #20]	; (80040a8 <USBH_LL_Disconnect+0x6c>)
 8004092:	7023      	strb	r3, [r4, #0]
 8004094:	f001 f898 	bl	80051c8 <LOG>
 8004098:	2000      	movs	r0, #0
 800409a:	bd10      	pop	{r4, pc}
 800409c:	20000174 	.word	0x20000174
 80040a0:	08006c3c 	.word	0x08006c3c
 80040a4:	20001020 	.word	0x20001020
 80040a8:	08006c58 	.word	0x08006c58

080040ac <USBH_CtlReq.part.0>:
 80040ac:	b530      	push	{r4, r5, lr}
 80040ae:	7f05      	ldrb	r5, [r0, #28]
 80040b0:	1e6b      	subs	r3, r5, #1
 80040b2:	b083      	sub	sp, #12
 80040b4:	4604      	mov	r4, r0
 80040b6:	2b0a      	cmp	r3, #10
 80040b8:	d837      	bhi.n	800412a <USBH_CtlReq.part.0+0x7e>
 80040ba:	e8df f003 	tbb	[pc, r3]
 80040be:	2b1e      	.short	0x2b1e
 80040c0:	8376913a 	.word	0x8376913a
 80040c4:	6b5e5347 	.word	0x6b5e5347
 80040c8:	06          	.byte	0x06
 80040c9:	00          	.byte	0x00
 80040ca:	7f43      	ldrb	r3, [r0, #29]
 80040cc:	3301      	adds	r3, #1
 80040ce:	b2db      	uxtb	r3, r3
 80040d0:	2b02      	cmp	r3, #2
 80040d2:	7743      	strb	r3, [r0, #29]
 80040d4:	f240 8098 	bls.w	8004208 <USBH_CtlReq.part.0+0x15c>
 80040d8:	f8d0 32d4 	ldr.w	r3, [r0, #724]	; 0x2d4
 80040dc:	b10b      	cbz	r3, 80040e2 <USBH_CtlReq.part.0+0x36>
 80040de:	2106      	movs	r1, #6
 80040e0:	4798      	blx	r3
 80040e2:	2300      	movs	r3, #0
 80040e4:	4857      	ldr	r0, [pc, #348]	; (8004244 <USBH_CtlReq.part.0+0x198>)
 80040e6:	7763      	strb	r3, [r4, #29]
 80040e8:	f001 f86e 	bl	80051c8 <LOG>
 80040ec:	4856      	ldr	r0, [pc, #344]	; (8004248 <USBH_CtlReq.part.0+0x19c>)
 80040ee:	f001 f86b 	bl	80051c8 <LOG>
 80040f2:	2303      	movs	r3, #3
 80040f4:	70a3      	strb	r3, [r4, #2]
 80040f6:	2502      	movs	r5, #2
 80040f8:	e009      	b.n	800410e <USBH_CtlReq.part.0+0x62>
 80040fa:	7942      	ldrb	r2, [r0, #5]
 80040fc:	f100 0114 	add.w	r1, r0, #20
 8004100:	f000 fec2 	bl	8004e88 <USBH_CtlSendSetup>
 8004104:	f8d4 32c8 	ldr.w	r3, [r4, #712]	; 0x2c8
 8004108:	6123      	str	r3, [r4, #16]
 800410a:	2202      	movs	r2, #2
 800410c:	7722      	strb	r2, [r4, #28]
 800410e:	4628      	mov	r0, r5
 8004110:	b003      	add	sp, #12
 8004112:	bd30      	pop	{r4, r5, pc}
 8004114:	7941      	ldrb	r1, [r0, #5]
 8004116:	f001 fba9 	bl	800586c <USBH_LL_GetURBState>
 800411a:	2801      	cmp	r0, #1
 800411c:	4605      	mov	r5, r0
 800411e:	f000 8083 	beq.w	8004228 <USBH_CtlReq.part.0+0x17c>
 8004122:	2804      	cmp	r0, #4
 8004124:	d065      	beq.n	80041f2 <USBH_CtlReq.part.0+0x146>
 8004126:	2802      	cmp	r0, #2
 8004128:	d063      	beq.n	80041f2 <USBH_CtlReq.part.0+0x146>
 800412a:	2501      	movs	r5, #1
 800412c:	4628      	mov	r0, r5
 800412e:	b003      	add	sp, #12
 8004130:	bd30      	pop	{r4, r5, pc}
 8004132:	f8d0 02c8 	ldr.w	r0, [r0, #712]	; 0x2c8
 8004136:	7923      	ldrb	r3, [r4, #4]
 8004138:	6120      	str	r0, [r4, #16]
 800413a:	89a2      	ldrh	r2, [r4, #12]
 800413c:	68a1      	ldr	r1, [r4, #8]
 800413e:	4620      	mov	r0, r4
 8004140:	f000 fecc 	bl	8004edc <USBH_CtlReceiveData>
 8004144:	2304      	movs	r3, #4
 8004146:	7723      	strb	r3, [r4, #28]
 8004148:	2501      	movs	r5, #1
 800414a:	e7e0      	b.n	800410e <USBH_CtlReq.part.0+0x62>
 800414c:	2200      	movs	r2, #0
 800414e:	7903      	ldrb	r3, [r0, #4]
 8004150:	4611      	mov	r1, r2
 8004152:	f000 fec3 	bl	8004edc <USBH_CtlReceiveData>
 8004156:	f8d4 22c8 	ldr.w	r2, [r4, #712]	; 0x2c8
 800415a:	6122      	str	r2, [r4, #16]
 800415c:	2308      	movs	r3, #8
 800415e:	7723      	strb	r3, [r4, #28]
 8004160:	2501      	movs	r5, #1
 8004162:	e7d4      	b.n	800410e <USBH_CtlReq.part.0+0x62>
 8004164:	7901      	ldrb	r1, [r0, #4]
 8004166:	f001 fb81 	bl	800586c <USBH_LL_GetURBState>
 800416a:	2801      	cmp	r0, #1
 800416c:	d045      	beq.n	80041fa <USBH_CtlReq.part.0+0x14e>
 800416e:	2804      	cmp	r0, #4
 8004170:	d03f      	beq.n	80041f2 <USBH_CtlReq.part.0+0x146>
 8004172:	2805      	cmp	r0, #5
 8004174:	d1d9      	bne.n	800412a <USBH_CtlReq.part.0+0x7e>
 8004176:	2503      	movs	r5, #3
 8004178:	e7c9      	b.n	800410e <USBH_CtlReq.part.0+0x62>
 800417a:	2200      	movs	r2, #0
 800417c:	2501      	movs	r5, #1
 800417e:	7943      	ldrb	r3, [r0, #5]
 8004180:	9500      	str	r5, [sp, #0]
 8004182:	4611      	mov	r1, r2
 8004184:	f000 fe92 	bl	8004eac <USBH_CtlSendData>
 8004188:	f8d4 22c8 	ldr.w	r2, [r4, #712]	; 0x2c8
 800418c:	6122      	str	r2, [r4, #16]
 800418e:	230a      	movs	r3, #10
 8004190:	7723      	strb	r3, [r4, #28]
 8004192:	e7bc      	b.n	800410e <USBH_CtlReq.part.0+0x62>
 8004194:	7941      	ldrb	r1, [r0, #5]
 8004196:	f001 fb69 	bl	800586c <USBH_LL_GetURBState>
 800419a:	2801      	cmp	r0, #1
 800419c:	d02d      	beq.n	80041fa <USBH_CtlReq.part.0+0x14e>
 800419e:	2802      	cmp	r0, #2
 80041a0:	d125      	bne.n	80041ee <USBH_CtlReq.part.0+0x142>
 80041a2:	2309      	movs	r3, #9
 80041a4:	7723      	strb	r3, [r4, #28]
 80041a6:	2501      	movs	r5, #1
 80041a8:	e7b1      	b.n	800410e <USBH_CtlReq.part.0+0x62>
 80041aa:	2501      	movs	r5, #1
 80041ac:	7943      	ldrb	r3, [r0, #5]
 80041ae:	8982      	ldrh	r2, [r0, #12]
 80041b0:	6881      	ldr	r1, [r0, #8]
 80041b2:	9500      	str	r5, [sp, #0]
 80041b4:	f000 fe7a 	bl	8004eac <USBH_CtlSendData>
 80041b8:	f8d4 22c8 	ldr.w	r2, [r4, #712]	; 0x2c8
 80041bc:	6122      	str	r2, [r4, #16]
 80041be:	2306      	movs	r3, #6
 80041c0:	7723      	strb	r3, [r4, #28]
 80041c2:	e7a4      	b.n	800410e <USBH_CtlReq.part.0+0x62>
 80041c4:	7941      	ldrb	r1, [r0, #5]
 80041c6:	f001 fb51 	bl	800586c <USBH_LL_GetURBState>
 80041ca:	2801      	cmp	r0, #1
 80041cc:	d028      	beq.n	8004220 <USBH_CtlReq.part.0+0x174>
 80041ce:	2805      	cmp	r0, #5
 80041d0:	d020      	beq.n	8004214 <USBH_CtlReq.part.0+0x168>
 80041d2:	2802      	cmp	r0, #2
 80041d4:	d02e      	beq.n	8004234 <USBH_CtlReq.part.0+0x188>
 80041d6:	2804      	cmp	r0, #4
 80041d8:	d1a7      	bne.n	800412a <USBH_CtlReq.part.0+0x7e>
 80041da:	230b      	movs	r3, #11
 80041dc:	7723      	strb	r3, [r4, #28]
 80041de:	e785      	b.n	80040ec <USBH_CtlReq.part.0+0x40>
 80041e0:	7901      	ldrb	r1, [r0, #4]
 80041e2:	f001 fb43 	bl	800586c <USBH_LL_GetURBState>
 80041e6:	2801      	cmp	r0, #1
 80041e8:	d0db      	beq.n	80041a2 <USBH_CtlReq.part.0+0xf6>
 80041ea:	2805      	cmp	r0, #5
 80041ec:	d0c3      	beq.n	8004176 <USBH_CtlReq.part.0+0xca>
 80041ee:	2804      	cmp	r0, #4
 80041f0:	d19b      	bne.n	800412a <USBH_CtlReq.part.0+0x7e>
 80041f2:	230b      	movs	r3, #11
 80041f4:	7723      	strb	r3, [r4, #28]
 80041f6:	2501      	movs	r5, #1
 80041f8:	e789      	b.n	800410e <USBH_CtlReq.part.0+0x62>
 80041fa:	2500      	movs	r5, #0
 80041fc:	2301      	movs	r3, #1
 80041fe:	4628      	mov	r0, r5
 8004200:	70a3      	strb	r3, [r4, #2]
 8004202:	7725      	strb	r5, [r4, #28]
 8004204:	b003      	add	sp, #12
 8004206:	bd30      	pop	{r4, r5, pc}
 8004208:	2501      	movs	r5, #1
 800420a:	f001 fad5 	bl	80057b8 <USBH_LL_Stop>
 800420e:	7725      	strb	r5, [r4, #28]
 8004210:	70a5      	strb	r5, [r4, #2]
 8004212:	e77c      	b.n	800410e <USBH_CtlReq.part.0+0x62>
 8004214:	230c      	movs	r3, #12
 8004216:	7723      	strb	r3, [r4, #28]
 8004218:	2503      	movs	r5, #3
 800421a:	e778      	b.n	800410e <USBH_CtlReq.part.0+0x62>
 800421c:	061b      	lsls	r3, r3, #24
 800421e:	d4c0      	bmi.n	80041a2 <USBH_CtlReq.part.0+0xf6>
 8004220:	2307      	movs	r3, #7
 8004222:	7723      	strb	r3, [r4, #28]
 8004224:	2501      	movs	r5, #1
 8004226:	e772      	b.n	800410e <USBH_CtlReq.part.0+0x62>
 8004228:	8b62      	ldrh	r2, [r4, #26]
 800422a:	7d23      	ldrb	r3, [r4, #20]
 800422c:	2a00      	cmp	r2, #0
 800422e:	d0f5      	beq.n	800421c <USBH_CtlReq.part.0+0x170>
 8004230:	061a      	lsls	r2, r3, #24
 8004232:	d403      	bmi.n	800423c <USBH_CtlReq.part.0+0x190>
 8004234:	2305      	movs	r3, #5
 8004236:	7723      	strb	r3, [r4, #28]
 8004238:	2501      	movs	r5, #1
 800423a:	e768      	b.n	800410e <USBH_CtlReq.part.0+0x62>
 800423c:	2303      	movs	r3, #3
 800423e:	7723      	strb	r3, [r4, #28]
 8004240:	e765      	b.n	800410e <USBH_CtlReq.part.0+0x62>
 8004242:	bf00      	nop
 8004244:	08006c70 	.word	0x08006c70
 8004248:	08006c80 	.word	0x08006c80

0800424c <USBH_Get_DevDesc>:
 800424c:	e92d 41f0 	stmdb	sp!, {r4, r5, r6, r7, r8, lr}
 8004250:	7885      	ldrb	r5, [r0, #2]
 8004252:	2d01      	cmp	r5, #1
 8004254:	4604      	mov	r4, r0
 8004256:	f100 0824 	add.w	r8, r0, #36	; 0x24
 800425a:	b28f      	uxth	r7, r1
 800425c:	d04e      	beq.n	80042fc <USBH_Get_DevDesc+0xb0>
 800425e:	2d02      	cmp	r5, #2
 8004260:	d148      	bne.n	80042f4 <USBH_Get_DevDesc+0xa8>
 8004262:	460e      	mov	r6, r1
 8004264:	f7ff ff22 	bl	80040ac <USBH_CtlReq.part.0>
 8004268:	4605      	mov	r5, r0
 800426a:	2800      	cmp	r0, #0
 800426c:	d143      	bne.n	80042f6 <USBH_Get_DevDesc+0xaa>
 800426e:	482a      	ldr	r0, [pc, #168]	; (8004318 <USBH_Get_DevDesc+0xcc>)
 8004270:	f000 ffaa 	bl	80051c8 <LOG>
 8004274:	4631      	mov	r1, r6
 8004276:	4640      	mov	r0, r8
 8004278:	f000 ffd2 	bl	8005220 <LOG_ARRAY>
 800427c:	f894 1027 	ldrb.w	r1, [r4, #39]	; 0x27
 8004280:	f894 3026 	ldrb.w	r3, [r4, #38]	; 0x26
 8004284:	8ca2      	ldrh	r2, [r4, #36]	; 0x24
 8004286:	f8a4 2228 	strh.w	r2, [r4, #552]	; 0x228
 800428a:	eb03 2301 	add.w	r3, r3, r1, lsl #8
 800428e:	f894 2028 	ldrb.w	r2, [r4, #40]	; 0x28
 8004292:	f8a4 322a 	strh.w	r3, [r4, #554]	; 0x22a
 8004296:	f894 3029 	ldrb.w	r3, [r4, #41]	; 0x29
 800429a:	f884 222c 	strb.w	r2, [r4, #556]	; 0x22c
 800429e:	f884 322d 	strb.w	r3, [r4, #557]	; 0x22d
 80042a2:	f894 202a 	ldrb.w	r2, [r4, #42]	; 0x2a
 80042a6:	f894 302b 	ldrb.w	r3, [r4, #43]	; 0x2b
 80042aa:	f884 222e 	strb.w	r2, [r4, #558]	; 0x22e
 80042ae:	2f08      	cmp	r7, #8
 80042b0:	f884 322f 	strb.w	r3, [r4, #559]	; 0x22f
 80042b4:	d91f      	bls.n	80042f6 <USBH_Get_DevDesc+0xaa>
 80042b6:	f894 202d 	ldrb.w	r2, [r4, #45]	; 0x2d
 80042ba:	f894 302c 	ldrb.w	r3, [r4, #44]	; 0x2c
 80042be:	f894 002f 	ldrb.w	r0, [r4, #47]	; 0x2f
 80042c2:	f894 1031 	ldrb.w	r1, [r4, #49]	; 0x31
 80042c6:	eb03 2302 	add.w	r3, r3, r2, lsl #8
 80042ca:	f894 202e 	ldrb.w	r2, [r4, #46]	; 0x2e
 80042ce:	f8a4 3230 	strh.w	r3, [r4, #560]	; 0x230
 80042d2:	eb02 2200 	add.w	r2, r2, r0, lsl #8
 80042d6:	f894 3030 	ldrb.w	r3, [r4, #48]	; 0x30
 80042da:	f8a4 2232 	strh.w	r2, [r4, #562]	; 0x232
 80042de:	f8d4 2032 	ldr.w	r2, [r4, #50]	; 0x32
 80042e2:	f8c4 2236 	str.w	r2, [r4, #566]	; 0x236
 80042e6:	eb03 2301 	add.w	r3, r3, r1, lsl #8
 80042ea:	f8a4 3234 	strh.w	r3, [r4, #564]	; 0x234
 80042ee:	4628      	mov	r0, r5
 80042f0:	e8bd 81f0 	ldmia.w	sp!, {r4, r5, r6, r7, r8, pc}
 80042f4:	2501      	movs	r5, #1
 80042f6:	4628      	mov	r0, r5
 80042f8:	e8bd 81f0 	ldmia.w	sp!, {r4, r5, r6, r7, r8, pc}
 80042fc:	4b07      	ldr	r3, [pc, #28]	; (800431c <USBH_Get_DevDesc+0xd0>)
 80042fe:	6143      	str	r3, [r0, #20]
 8004300:	2300      	movs	r3, #0
 8004302:	8303      	strh	r3, [r0, #24]
 8004304:	2302      	movs	r3, #2
 8004306:	7705      	strb	r5, [r0, #28]
 8004308:	7083      	strb	r3, [r0, #2]
 800430a:	8347      	strh	r7, [r0, #26]
 800430c:	f8c0 8008 	str.w	r8, [r0, #8]
 8004310:	8187      	strh	r7, [r0, #12]
 8004312:	4628      	mov	r0, r5
 8004314:	e8bd 81f0 	ldmia.w	sp!, {r4, r5, r6, r7, r8, pc}
 8004318:	08006c9c 	.word	0x08006c9c
 800431c:	01000680 	.word	0x01000680

08004320 <USBH_Get_CfgDesc>:
 8004320:	e92d 4ff0 	stmdb	sp!, {r4, r5, r6, r7, r8, r9, sl, fp, lr}
 8004324:	7887      	ldrb	r7, [r0, #2]
 8004326:	2f01      	cmp	r7, #1
 8004328:	b083      	sub	sp, #12
 800432a:	4604      	mov	r4, r0
 800432c:	460d      	mov	r5, r1
 800432e:	f100 0624 	add.w	r6, r0, #36	; 0x24
 8004332:	d02f      	beq.n	8004394 <USBH_Get_CfgDesc+0x74>
 8004334:	2f02      	cmp	r7, #2
 8004336:	d128      	bne.n	800438a <USBH_Get_CfgDesc+0x6a>
 8004338:	f7ff feb8 	bl	80040ac <USBH_CtlReq.part.0>
 800433c:	4607      	mov	r7, r0
 800433e:	bb00      	cbnz	r0, 8004382 <USBH_Get_CfgDesc+0x62>
 8004340:	8ca3      	ldrh	r3, [r4, #36]	; 0x24
 8004342:	f894 2027 	ldrb.w	r2, [r4, #39]	; 0x27
 8004346:	f8a4 323a 	strh.w	r3, [r4, #570]	; 0x23a
 800434a:	f894 3026 	ldrb.w	r3, [r4, #38]	; 0x26
 800434e:	f894 1028 	ldrb.w	r1, [r4, #40]	; 0x28
 8004352:	f884 123e 	strb.w	r1, [r4, #574]	; 0x23e
 8004356:	eb03 2302 	add.w	r3, r3, r2, lsl #8
 800435a:	f8a4 323c 	strh.w	r3, [r4, #572]	; 0x23c
 800435e:	f894 3029 	ldrb.w	r3, [r4, #41]	; 0x29
 8004362:	f884 323f 	strb.w	r3, [r4, #575]	; 0x23f
 8004366:	f894 302a 	ldrb.w	r3, [r4, #42]	; 0x2a
 800436a:	f884 3240 	strb.w	r3, [r4, #576]	; 0x240
 800436e:	f894 302b 	ldrb.w	r3, [r4, #43]	; 0x2b
 8004372:	f884 3241 	strb.w	r3, [r4, #577]	; 0x241
 8004376:	2d09      	cmp	r5, #9
 8004378:	f894 302c 	ldrb.w	r3, [r4, #44]	; 0x2c
 800437c:	f884 3242 	strb.w	r3, [r4, #578]	; 0x242
 8004380:	d816      	bhi.n	80043b0 <USBH_Get_CfgDesc+0x90>
 8004382:	4638      	mov	r0, r7
 8004384:	b003      	add	sp, #12
 8004386:	e8bd 8ff0 	ldmia.w	sp!, {r4, r5, r6, r7, r8, r9, sl, fp, pc}
 800438a:	2701      	movs	r7, #1
 800438c:	4638      	mov	r0, r7
 800438e:	b003      	add	sp, #12
 8004390:	e8bd 8ff0 	ldmia.w	sp!, {r4, r5, r6, r7, r8, r9, sl, fp, pc}
 8004394:	4b57      	ldr	r3, [pc, #348]	; (80044f4 <USBH_Get_CfgDesc+0x1d4>)
 8004396:	6143      	str	r3, [r0, #20]
 8004398:	2300      	movs	r3, #0
 800439a:	8303      	strh	r3, [r0, #24]
 800439c:	2302      	movs	r3, #2
 800439e:	8361      	strh	r1, [r4, #26]
 80043a0:	6086      	str	r6, [r0, #8]
 80043a2:	81a1      	strh	r1, [r4, #12]
 80043a4:	7707      	strb	r7, [r0, #28]
 80043a6:	7083      	strb	r3, [r0, #2]
 80043a8:	4638      	mov	r0, r7
 80043aa:	b003      	add	sp, #12
 80043ac:	e8bd 8ff0 	ldmia.w	sp!, {r4, r5, r6, r7, r8, r9, sl, fp, pc}
 80043b0:	4851      	ldr	r0, [pc, #324]	; (80044f8 <USBH_Get_CfgDesc+0x1d8>)
 80043b2:	f8df a14c 	ldr.w	sl, [pc, #332]	; 8004500 <USBH_Get_CfgDesc+0x1e0>
 80043b6:	f000 ff07 	bl	80051c8 <LOG>
 80043ba:	46b8      	mov	r8, r7
 80043bc:	2509      	movs	r5, #9
 80043be:	e002      	b.n	80043c6 <USBH_Get_CfgDesc+0xa6>
 80043c0:	f1b8 0f03 	cmp.w	r8, #3
 80043c4:	d06e      	beq.n	80044a4 <USBH_Get_CfgDesc+0x184>
 80043c6:	f8b4 323c 	ldrh.w	r3, [r4, #572]	; 0x23c
 80043ca:	42ab      	cmp	r3, r5
 80043cc:	d96a      	bls.n	80044a4 <USBH_Get_CfgDesc+0x184>
 80043ce:	7833      	ldrb	r3, [r6, #0]
 80043d0:	441e      	add	r6, r3
 80043d2:	441d      	add	r5, r3
 80043d4:	7873      	ldrb	r3, [r6, #1]
 80043d6:	2b04      	cmp	r3, #4
 80043d8:	b2ad      	uxth	r5, r5
 80043da:	d1f1      	bne.n	80043c0 <USBH_Get_CfgDesc+0xa0>
 80043dc:	f896 9005 	ldrb.w	r9, [r6, #5]
 80043e0:	4650      	mov	r0, sl
 80043e2:	4649      	mov	r1, r9
 80043e4:	f000 fef0 	bl	80051c8 <LOG>
 80043e8:	f8d4 32c0 	ldr.w	r3, [r4, #704]	; 0x2c0
 80043ec:	2b00      	cmp	r3, #0
 80043ee:	d0e7      	beq.n	80043c0 <USBH_Get_CfgDesc+0xa0>
 80043f0:	f8d4 22ac 	ldr.w	r2, [r4, #684]	; 0x2ac
 80043f4:	7912      	ldrb	r2, [r2, #4]
 80043f6:	454a      	cmp	r2, r9
 80043f8:	d014      	beq.n	8004424 <USBH_Get_CfgDesc+0x104>
 80043fa:	2b01      	cmp	r3, #1
 80043fc:	d0e0      	beq.n	80043c0 <USBH_Get_CfgDesc+0xa0>
 80043fe:	f8d4 22b0 	ldr.w	r2, [r4, #688]	; 0x2b0
 8004402:	7912      	ldrb	r2, [r2, #4]
 8004404:	454a      	cmp	r2, r9
 8004406:	d00d      	beq.n	8004424 <USBH_Get_CfgDesc+0x104>
 8004408:	2b02      	cmp	r3, #2
 800440a:	d0d9      	beq.n	80043c0 <USBH_Get_CfgDesc+0xa0>
 800440c:	f8d4 22b4 	ldr.w	r2, [r4, #692]	; 0x2b4
 8004410:	7912      	ldrb	r2, [r2, #4]
 8004412:	454a      	cmp	r2, r9
 8004414:	d006      	beq.n	8004424 <USBH_Get_CfgDesc+0x104>
 8004416:	2b03      	cmp	r3, #3
 8004418:	d0d2      	beq.n	80043c0 <USBH_Get_CfgDesc+0xa0>
 800441a:	f8d4 32b8 	ldr.w	r3, [r4, #696]	; 0x2b8
 800441e:	791b      	ldrb	r3, [r3, #4]
 8004420:	454b      	cmp	r3, r9
 8004422:	d1cd      	bne.n	80043c0 <USBH_Get_CfgDesc+0xa0>
 8004424:	eb08 1908 	add.w	r9, r8, r8, lsl #4
 8004428:	eb04 0b49 	add.w	fp, r4, r9, lsl #1
 800442c:	7833      	ldrb	r3, [r6, #0]
 800442e:	f88b 3244 	strb.w	r3, [fp, #580]	; 0x244
 8004432:	7873      	ldrb	r3, [r6, #1]
 8004434:	f88b 3245 	strb.w	r3, [fp, #581]	; 0x245
 8004438:	78b1      	ldrb	r1, [r6, #2]
 800443a:	f88b 1246 	strb.w	r1, [fp, #582]	; 0x246
 800443e:	78f3      	ldrb	r3, [r6, #3]
 8004440:	f88b 3247 	strb.w	r3, [fp, #583]	; 0x247
 8004444:	f896 c004 	ldrb.w	ip, [r6, #4]
 8004448:	f88b c248 	strb.w	ip, [fp, #584]	; 0x248
 800444c:	7972      	ldrb	r2, [r6, #5]
 800444e:	f88b 2249 	strb.w	r2, [fp, #585]	; 0x249
 8004452:	79b3      	ldrb	r3, [r6, #6]
 8004454:	f88b 324a 	strb.w	r3, [fp, #586]	; 0x24a
 8004458:	79f0      	ldrb	r0, [r6, #7]
 800445a:	f88b 024b 	strb.w	r0, [fp, #587]	; 0x24b
 800445e:	f896 e008 	ldrb.w	lr, [r6, #8]
 8004462:	f88b e24c 	strb.w	lr, [fp, #588]	; 0x24c
 8004466:	e9cd 0c00 	strd	r0, ip, [sp]
 800446a:	4824      	ldr	r0, [pc, #144]	; (80044fc <USBH_Get_CfgDesc+0x1dc>)
 800446c:	f000 feac 	bl	80051c8 <LOG>
 8004470:	f89b 0248 	ldrb.w	r0, [fp, #584]	; 0x248
 8004474:	ea4f 0949 	mov.w	r9, r9, lsl #1
 8004478:	b178      	cbz	r0, 800449a <USBH_Get_CfgDesc+0x17a>
 800447a:	2100      	movs	r1, #0
 800447c:	f8b4 c23c 	ldrh.w	ip, [r4, #572]	; 0x23c
 8004480:	460a      	mov	r2, r1
 8004482:	45ac      	cmp	ip, r5
 8004484:	d909      	bls.n	800449a <USBH_Get_CfgDesc+0x17a>
 8004486:	7833      	ldrb	r3, [r6, #0]
 8004488:	441e      	add	r6, r3
 800448a:	442b      	add	r3, r5
 800448c:	b29d      	uxth	r5, r3
 800448e:	7873      	ldrb	r3, [r6, #1]
 8004490:	2b05      	cmp	r3, #5
 8004492:	d00f      	beq.n	80044b4 <USBH_Get_CfgDesc+0x194>
 8004494:	4281      	cmp	r1, r0
 8004496:	460a      	mov	r2, r1
 8004498:	dbf3      	blt.n	8004482 <USBH_Get_CfgDesc+0x162>
 800449a:	f108 0801 	add.w	r8, r8, #1
 800449e:	fa4f f888 	sxtb.w	r8, r8
 80044a2:	e78d      	b.n	80043c0 <USBH_Get_CfgDesc+0xa0>
 80044a4:	f894 323e 	ldrb.w	r3, [r4, #574]	; 0x23e
 80044a8:	4543      	cmp	r3, r8
 80044aa:	f43f af6a 	beq.w	8004382 <USBH_Get_CfgDesc+0x62>
 80044ae:	f884 823e 	strb.w	r8, [r4, #574]	; 0x23e
 80044b2:	e766      	b.n	8004382 <USBH_Get_CfgDesc+0x62>
 80044b4:	3201      	adds	r2, #1
 80044b6:	eb09 02c2 	add.w	r2, r9, r2, lsl #3
 80044ba:	18a3      	adds	r3, r4, r2
 80044bc:	7832      	ldrb	r2, [r6, #0]
 80044be:	f883 2246 	strb.w	r2, [r3, #582]	; 0x246
 80044c2:	7872      	ldrb	r2, [r6, #1]
 80044c4:	f883 2247 	strb.w	r2, [r3, #583]	; 0x247
 80044c8:	78b2      	ldrb	r2, [r6, #2]
 80044ca:	f883 2248 	strb.w	r2, [r3, #584]	; 0x248
 80044ce:	78f2      	ldrb	r2, [r6, #3]
 80044d0:	f883 2249 	strb.w	r2, [r3, #585]	; 0x249
 80044d4:	f896 e005 	ldrb.w	lr, [r6, #5]
 80044d8:	7932      	ldrb	r2, [r6, #4]
 80044da:	3101      	adds	r1, #1
 80044dc:	eb02 220e 	add.w	r2, r2, lr, lsl #8
 80044e0:	b249      	sxtb	r1, r1
 80044e2:	f8a3 224a 	strh.w	r2, [r3, #586]	; 0x24a
 80044e6:	79b2      	ldrb	r2, [r6, #6]
 80044e8:	f883 224c 	strb.w	r2, [r3, #588]	; 0x24c
 80044ec:	4281      	cmp	r1, r0
 80044ee:	460a      	mov	r2, r1
 80044f0:	dbc7      	blt.n	8004482 <USBH_Get_CfgDesc+0x162>
 80044f2:	e7d2      	b.n	800449a <USBH_Get_CfgDesc+0x17a>
 80044f4:	02000680 	.word	0x02000680
 80044f8:	08006cb0 	.word	0x08006cb0
 80044fc:	08006cec 	.word	0x08006cec
 8004500:	08006cdc 	.word	0x08006cdc

08004504 <USBH_Get_StringDesc>:
 8004504:	b5f8      	push	{r3, r4, r5, r6, r7, lr}
 8004506:	4615      	mov	r5, r2
 8004508:	7882      	ldrb	r2, [r0, #2]
 800450a:	2a01      	cmp	r2, #1
 800450c:	4604      	mov	r4, r0
 800450e:	461f      	mov	r7, r3
 8004510:	f100 0624 	add.w	r6, r0, #36	; 0x24
 8004514:	d00e      	beq.n	8004534 <USBH_Get_StringDesc+0x30>
 8004516:	2a02      	cmp	r2, #2
 8004518:	d109      	bne.n	800452e <USBH_Get_StringDesc+0x2a>
 800451a:	f7ff fdc7 	bl	80040ac <USBH_CtlReq.part.0>
 800451e:	4602      	mov	r2, r0
 8004520:	b918      	cbnz	r0, 800452a <USBH_Get_StringDesc+0x26>
 8004522:	f894 3025 	ldrb.w	r3, [r4, #37]	; 0x25
 8004526:	2b03      	cmp	r3, #3
 8004528:	d015      	beq.n	8004556 <USBH_Get_StringDesc+0x52>
 800452a:	4610      	mov	r0, r2
 800452c:	bdf8      	pop	{r3, r4, r5, r6, r7, pc}
 800452e:	2201      	movs	r2, #1
 8004530:	4610      	mov	r0, r2
 8004532:	bdf8      	pop	{r3, r4, r5, r6, r7, pc}
 8004534:	f441 7140 	orr.w	r1, r1, #768	; 0x300
 8004538:	2302      	movs	r3, #2
 800453a:	82c1      	strh	r1, [r0, #22]
 800453c:	7083      	strb	r3, [r0, #2]
 800453e:	f240 4109 	movw	r1, #1033	; 0x409
 8004542:	7702      	strb	r2, [r0, #28]
 8004544:	f44f 63d0 	mov.w	r3, #1664	; 0x680
 8004548:	6086      	str	r6, [r0, #8]
 800454a:	8301      	strh	r1, [r0, #24]
 800454c:	8347      	strh	r7, [r0, #26]
 800454e:	8187      	strh	r7, [r0, #12]
 8004550:	8283      	strh	r3, [r0, #20]
 8004552:	4610      	mov	r0, r2
 8004554:	bdf8      	pop	{r3, r4, r5, r6, r7, pc}
 8004556:	f894 1024 	ldrb.w	r1, [r4, #36]	; 0x24
 800455a:	3902      	subs	r1, #2
 800455c:	42b9      	cmp	r1, r7
 800455e:	bfa8      	it	ge
 8004560:	4639      	movge	r1, r7
 8004562:	b288      	uxth	r0, r1
 8004564:	b140      	cbz	r0, 8004578 <USBH_Get_StringDesc+0x74>
 8004566:	4613      	mov	r3, r2
 8004568:	18f1      	adds	r1, r6, r3
 800456a:	3302      	adds	r3, #2
 800456c:	b29b      	uxth	r3, r3
 800456e:	7889      	ldrb	r1, [r1, #2]
 8004570:	f805 1b01 	strb.w	r1, [r5], #1
 8004574:	4298      	cmp	r0, r3
 8004576:	d8f7      	bhi.n	8004568 <USBH_Get_StringDesc+0x64>
 8004578:	2300      	movs	r3, #0
 800457a:	702b      	strb	r3, [r5, #0]
 800457c:	4610      	mov	r0, r2
 800457e:	bdf8      	pop	{r3, r4, r5, r6, r7, pc}

08004580 <USBH_GetDescriptor>:
 8004580:	b570      	push	{r4, r5, r6, lr}
 8004582:	4604      	mov	r4, r0
 8004584:	b082      	sub	sp, #8
 8004586:	78a5      	ldrb	r5, [r4, #2]
 8004588:	f8bd 001c 	ldrh.w	r0, [sp, #28]
 800458c:	2d01      	cmp	r5, #1
 800458e:	d01d      	beq.n	80045cc <USBH_GetDescriptor+0x4c>
 8004590:	2d02      	cmp	r5, #2
 8004592:	d117      	bne.n	80045c4 <USBH_GetDescriptor+0x44>
 8004594:	7f26      	ldrb	r6, [r4, #28]
 8004596:	1e73      	subs	r3, r6, #1
 8004598:	2b0a      	cmp	r3, #10
 800459a:	d813      	bhi.n	80045c4 <USBH_GetDescriptor+0x44>
 800459c:	e8df f003 	tbb	[pc, r3]
 80045a0:	065a4a3d 	.word	0x065a4a3d
 80045a4:	b1897567 	.word	0xb1897567
 80045a8:	a496      	.short	0xa496
 80045aa:	2f          	.byte	0x2f
 80045ab:	00          	.byte	0x00
 80045ac:	7921      	ldrb	r1, [r4, #4]
 80045ae:	4620      	mov	r0, r4
 80045b0:	f001 f95c 	bl	800586c <USBH_LL_GetURBState>
 80045b4:	2801      	cmp	r0, #1
 80045b6:	f000 80a0 	beq.w	80046fa <USBH_GetDescriptor+0x17a>
 80045ba:	2805      	cmp	r0, #5
 80045bc:	f000 80ac 	beq.w	8004718 <USBH_GetDescriptor+0x198>
 80045c0:	2804      	cmp	r0, #4
 80045c2:	d043      	beq.n	800464c <USBH_GetDescriptor+0xcc>
 80045c4:	2501      	movs	r5, #1
 80045c6:	4628      	mov	r0, r5
 80045c8:	b002      	add	sp, #8
 80045ca:	bd70      	pop	{r4, r5, r6, pc}
 80045cc:	f061 017f 	orn	r1, r1, #127	; 0x7f
 80045d0:	7521      	strb	r1, [r4, #20]
 80045d2:	2102      	movs	r1, #2
 80045d4:	82e2      	strh	r2, [r4, #22]
 80045d6:	70a1      	strb	r1, [r4, #2]
 80045d8:	f402 427f 	and.w	r2, r2, #65280	; 0xff00
 80045dc:	f240 4109 	movw	r1, #1033	; 0x409
 80045e0:	f5b2 7f40 	cmp.w	r2, #768	; 0x300
 80045e4:	bf08      	it	eq
 80045e6:	460b      	moveq	r3, r1
 80045e8:	8360      	strh	r0, [r4, #26]
 80045ea:	81a0      	strh	r0, [r4, #12]
 80045ec:	9806      	ldr	r0, [sp, #24]
 80045ee:	60a0      	str	r0, [r4, #8]
 80045f0:	8323      	strh	r3, [r4, #24]
 80045f2:	4628      	mov	r0, r5
 80045f4:	2306      	movs	r3, #6
 80045f6:	7725      	strb	r5, [r4, #28]
 80045f8:	7563      	strb	r3, [r4, #21]
 80045fa:	b002      	add	sp, #8
 80045fc:	bd70      	pop	{r4, r5, r6, pc}
 80045fe:	7f63      	ldrb	r3, [r4, #29]
 8004600:	3301      	adds	r3, #1
 8004602:	b2db      	uxtb	r3, r3
 8004604:	2b02      	cmp	r3, #2
 8004606:	7763      	strb	r3, [r4, #29]
 8004608:	f200 808f 	bhi.w	800472a <USBH_GetDescriptor+0x1aa>
 800460c:	2501      	movs	r5, #1
 800460e:	4620      	mov	r0, r4
 8004610:	f001 f8d2 	bl	80057b8 <USBH_LL_Stop>
 8004614:	7725      	strb	r5, [r4, #28]
 8004616:	70a5      	strb	r5, [r4, #2]
 8004618:	e7d5      	b.n	80045c6 <USBH_GetDescriptor+0x46>
 800461a:	7962      	ldrb	r2, [r4, #5]
 800461c:	f104 0114 	add.w	r1, r4, #20
 8004620:	4620      	mov	r0, r4
 8004622:	f000 fc31 	bl	8004e88 <USBH_CtlSendSetup>
 8004626:	f8d4 32c8 	ldr.w	r3, [r4, #712]	; 0x2c8
 800462a:	6123      	str	r3, [r4, #16]
 800462c:	2202      	movs	r2, #2
 800462e:	7722      	strb	r2, [r4, #28]
 8004630:	4635      	mov	r5, r6
 8004632:	e7c8      	b.n	80045c6 <USBH_GetDescriptor+0x46>
 8004634:	7961      	ldrb	r1, [r4, #5]
 8004636:	4620      	mov	r0, r4
 8004638:	f001 f918 	bl	800586c <USBH_LL_GetURBState>
 800463c:	2801      	cmp	r0, #1
 800463e:	4605      	mov	r5, r0
 8004640:	f000 8085 	beq.w	800474e <USBH_GetDescriptor+0x1ce>
 8004644:	2804      	cmp	r0, #4
 8004646:	d001      	beq.n	800464c <USBH_GetDescriptor+0xcc>
 8004648:	2802      	cmp	r0, #2
 800464a:	d1bb      	bne.n	80045c4 <USBH_GetDescriptor+0x44>
 800464c:	230b      	movs	r3, #11
 800464e:	7723      	strb	r3, [r4, #28]
 8004650:	2501      	movs	r5, #1
 8004652:	e7b8      	b.n	80045c6 <USBH_GetDescriptor+0x46>
 8004654:	f8d4 02c8 	ldr.w	r0, [r4, #712]	; 0x2c8
 8004658:	7923      	ldrb	r3, [r4, #4]
 800465a:	6120      	str	r0, [r4, #16]
 800465c:	89a2      	ldrh	r2, [r4, #12]
 800465e:	68a1      	ldr	r1, [r4, #8]
 8004660:	4620      	mov	r0, r4
 8004662:	f000 fc3b 	bl	8004edc <USBH_CtlReceiveData>
 8004666:	2304      	movs	r3, #4
 8004668:	7723      	strb	r3, [r4, #28]
 800466a:	2501      	movs	r5, #1
 800466c:	e7ab      	b.n	80045c6 <USBH_GetDescriptor+0x46>
 800466e:	2501      	movs	r5, #1
 8004670:	7963      	ldrb	r3, [r4, #5]
 8004672:	89a2      	ldrh	r2, [r4, #12]
 8004674:	68a1      	ldr	r1, [r4, #8]
 8004676:	9500      	str	r5, [sp, #0]
 8004678:	4620      	mov	r0, r4
 800467a:	f000 fc17 	bl	8004eac <USBH_CtlSendData>
 800467e:	f8d4 22c8 	ldr.w	r2, [r4, #712]	; 0x2c8
 8004682:	6122      	str	r2, [r4, #16]
 8004684:	2306      	movs	r3, #6
 8004686:	7723      	strb	r3, [r4, #28]
 8004688:	e79d      	b.n	80045c6 <USBH_GetDescriptor+0x46>
 800468a:	7961      	ldrb	r1, [r4, #5]
 800468c:	4620      	mov	r0, r4
 800468e:	f001 f8ed 	bl	800586c <USBH_LL_GetURBState>
 8004692:	2801      	cmp	r0, #1
 8004694:	d057      	beq.n	8004746 <USBH_GetDescriptor+0x1c6>
 8004696:	2805      	cmp	r0, #5
 8004698:	d063      	beq.n	8004762 <USBH_GetDescriptor+0x1e2>
 800469a:	2802      	cmp	r0, #2
 800469c:	d05d      	beq.n	800475a <USBH_GetDescriptor+0x1da>
 800469e:	2804      	cmp	r0, #4
 80046a0:	d190      	bne.n	80045c4 <USBH_GetDescriptor+0x44>
 80046a2:	230b      	movs	r3, #11
 80046a4:	7723      	strb	r3, [r4, #28]
 80046a6:	4832      	ldr	r0, [pc, #200]	; (8004770 <USBH_GetDescriptor+0x1f0>)
 80046a8:	f000 fd8e 	bl	80051c8 <LOG>
 80046ac:	2303      	movs	r3, #3
 80046ae:	70a3      	strb	r3, [r4, #2]
 80046b0:	e789      	b.n	80045c6 <USBH_GetDescriptor+0x46>
 80046b2:	2200      	movs	r2, #0
 80046b4:	7923      	ldrb	r3, [r4, #4]
 80046b6:	4611      	mov	r1, r2
 80046b8:	4620      	mov	r0, r4
 80046ba:	f000 fc0f 	bl	8004edc <USBH_CtlReceiveData>
 80046be:	f8d4 22c8 	ldr.w	r2, [r4, #712]	; 0x2c8
 80046c2:	6122      	str	r2, [r4, #16]
 80046c4:	2308      	movs	r3, #8
 80046c6:	7723      	strb	r3, [r4, #28]
 80046c8:	2501      	movs	r5, #1
 80046ca:	e77c      	b.n	80045c6 <USBH_GetDescriptor+0x46>
 80046cc:	2200      	movs	r2, #0
 80046ce:	2501      	movs	r5, #1
 80046d0:	7963      	ldrb	r3, [r4, #5]
 80046d2:	9500      	str	r5, [sp, #0]
 80046d4:	4611      	mov	r1, r2
 80046d6:	4620      	mov	r0, r4
 80046d8:	f000 fbe8 	bl	8004eac <USBH_CtlSendData>
 80046dc:	f8d4 22c8 	ldr.w	r2, [r4, #712]	; 0x2c8
 80046e0:	6122      	str	r2, [r4, #16]
 80046e2:	230a      	movs	r3, #10
 80046e4:	7723      	strb	r3, [r4, #28]
 80046e6:	e76e      	b.n	80045c6 <USBH_GetDescriptor+0x46>
 80046e8:	7961      	ldrb	r1, [r4, #5]
 80046ea:	4620      	mov	r0, r4
 80046ec:	f001 f8be 	bl	800586c <USBH_LL_GetURBState>
 80046f0:	2801      	cmp	r0, #1
 80046f2:	d013      	beq.n	800471c <USBH_GetDescriptor+0x19c>
 80046f4:	2802      	cmp	r0, #2
 80046f6:	f47f af63 	bne.w	80045c0 <USBH_GetDescriptor+0x40>
 80046fa:	2309      	movs	r3, #9
 80046fc:	7723      	strb	r3, [r4, #28]
 80046fe:	2501      	movs	r5, #1
 8004700:	e761      	b.n	80045c6 <USBH_GetDescriptor+0x46>
 8004702:	7921      	ldrb	r1, [r4, #4]
 8004704:	4620      	mov	r0, r4
 8004706:	f001 f8b1 	bl	800586c <USBH_LL_GetURBState>
 800470a:	2801      	cmp	r0, #1
 800470c:	d006      	beq.n	800471c <USBH_GetDescriptor+0x19c>
 800470e:	2804      	cmp	r0, #4
 8004710:	d09c      	beq.n	800464c <USBH_GetDescriptor+0xcc>
 8004712:	2805      	cmp	r0, #5
 8004714:	f47f af56 	bne.w	80045c4 <USBH_GetDescriptor+0x44>
 8004718:	2503      	movs	r5, #3
 800471a:	e754      	b.n	80045c6 <USBH_GetDescriptor+0x46>
 800471c:	2500      	movs	r5, #0
 800471e:	2301      	movs	r3, #1
 8004720:	4628      	mov	r0, r5
 8004722:	70a3      	strb	r3, [r4, #2]
 8004724:	7725      	strb	r5, [r4, #28]
 8004726:	b002      	add	sp, #8
 8004728:	bd70      	pop	{r4, r5, r6, pc}
 800472a:	f8d4 32d4 	ldr.w	r3, [r4, #724]	; 0x2d4
 800472e:	b113      	cbz	r3, 8004736 <USBH_GetDescriptor+0x1b6>
 8004730:	2106      	movs	r1, #6
 8004732:	4620      	mov	r0, r4
 8004734:	4798      	blx	r3
 8004736:	2300      	movs	r3, #0
 8004738:	480e      	ldr	r0, [pc, #56]	; (8004774 <USBH_GetDescriptor+0x1f4>)
 800473a:	7763      	strb	r3, [r4, #29]
 800473c:	f000 fd44 	bl	80051c8 <LOG>
 8004740:	e7b1      	b.n	80046a6 <USBH_GetDescriptor+0x126>
 8004742:	0613      	lsls	r3, r2, #24
 8004744:	d4d9      	bmi.n	80046fa <USBH_GetDescriptor+0x17a>
 8004746:	2307      	movs	r3, #7
 8004748:	7723      	strb	r3, [r4, #28]
 800474a:	2501      	movs	r5, #1
 800474c:	e73b      	b.n	80045c6 <USBH_GetDescriptor+0x46>
 800474e:	8b63      	ldrh	r3, [r4, #26]
 8004750:	7d22      	ldrb	r2, [r4, #20]
 8004752:	2b00      	cmp	r3, #0
 8004754:	d0f5      	beq.n	8004742 <USBH_GetDescriptor+0x1c2>
 8004756:	0612      	lsls	r2, r2, #24
 8004758:	d407      	bmi.n	800476a <USBH_GetDescriptor+0x1ea>
 800475a:	2305      	movs	r3, #5
 800475c:	7723      	strb	r3, [r4, #28]
 800475e:	2501      	movs	r5, #1
 8004760:	e731      	b.n	80045c6 <USBH_GetDescriptor+0x46>
 8004762:	230c      	movs	r3, #12
 8004764:	7723      	strb	r3, [r4, #28]
 8004766:	2503      	movs	r5, #3
 8004768:	e72d      	b.n	80045c6 <USBH_GetDescriptor+0x46>
 800476a:	2303      	movs	r3, #3
 800476c:	7723      	strb	r3, [r4, #28]
 800476e:	e72a      	b.n	80045c6 <USBH_GetDescriptor+0x46>
 8004770:	08006c80 	.word	0x08006c80
 8004774:	08006c70 	.word	0x08006c70

08004778 <USBH_SetAddress>:
 8004778:	b570      	push	{r4, r5, r6, lr}
 800477a:	7885      	ldrb	r5, [r0, #2]
 800477c:	2d01      	cmp	r5, #1
 800477e:	b082      	sub	sp, #8
 8004780:	4604      	mov	r4, r0
 8004782:	d01c      	beq.n	80047be <USBH_SetAddress+0x46>
 8004784:	2d02      	cmp	r5, #2
 8004786:	d116      	bne.n	80047b6 <USBH_SetAddress+0x3e>
 8004788:	7f06      	ldrb	r6, [r0, #28]
 800478a:	1e73      	subs	r3, r6, #1
 800478c:	2b0a      	cmp	r3, #10
 800478e:	d812      	bhi.n	80047b6 <USBH_SetAddress+0x3e>
 8004790:	e8df f003 	tbb	[pc, r3]
 8004794:	064a3c30 	.word	0x064a3c30
 8004798:	9c776457 	.word	0x9c776457
 800479c:	9083      	.short	0x9083
 800479e:	23          	.byte	0x23
 800479f:	00          	.byte	0x00
 80047a0:	7901      	ldrb	r1, [r0, #4]
 80047a2:	f001 f863 	bl	800586c <USBH_LL_GetURBState>
 80047a6:	2801      	cmp	r0, #1
 80047a8:	f000 808c 	beq.w	80048c4 <USBH_SetAddress+0x14c>
 80047ac:	2805      	cmp	r0, #5
 80047ae:	f000 8097 	beq.w	80048e0 <USBH_SetAddress+0x168>
 80047b2:	2804      	cmp	r0, #4
 80047b4:	d034      	beq.n	8004820 <USBH_SetAddress+0xa8>
 80047b6:	2501      	movs	r5, #1
 80047b8:	4628      	mov	r0, r5
 80047ba:	b002      	add	sp, #8
 80047bc:	bd70      	pop	{r4, r5, r6, pc}
 80047be:	f44f 62a0 	mov.w	r2, #1280	; 0x500
 80047c2:	2300      	movs	r3, #0
 80047c4:	8282      	strh	r2, [r0, #20]
 80047c6:	2202      	movs	r2, #2
 80047c8:	82c1      	strh	r1, [r0, #22]
 80047ca:	6083      	str	r3, [r0, #8]
 80047cc:	8183      	strh	r3, [r0, #12]
 80047ce:	6183      	str	r3, [r0, #24]
 80047d0:	7705      	strb	r5, [r0, #28]
 80047d2:	7082      	strb	r2, [r0, #2]
 80047d4:	4628      	mov	r0, r5
 80047d6:	b002      	add	sp, #8
 80047d8:	bd70      	pop	{r4, r5, r6, pc}
 80047da:	7f43      	ldrb	r3, [r0, #29]
 80047dc:	3301      	adds	r3, #1
 80047de:	b2db      	uxtb	r3, r3
 80047e0:	2b02      	cmp	r3, #2
 80047e2:	7743      	strb	r3, [r0, #29]
 80047e4:	f200 8085 	bhi.w	80048f2 <USBH_SetAddress+0x17a>
 80047e8:	2501      	movs	r5, #1
 80047ea:	f000 ffe5 	bl	80057b8 <USBH_LL_Stop>
 80047ee:	7725      	strb	r5, [r4, #28]
 80047f0:	70a5      	strb	r5, [r4, #2]
 80047f2:	e7e1      	b.n	80047b8 <USBH_SetAddress+0x40>
 80047f4:	7942      	ldrb	r2, [r0, #5]
 80047f6:	f100 0114 	add.w	r1, r0, #20
 80047fa:	f000 fb45 	bl	8004e88 <USBH_CtlSendSetup>
 80047fe:	f8d4 32c8 	ldr.w	r3, [r4, #712]	; 0x2c8
 8004802:	6123      	str	r3, [r4, #16]
 8004804:	2202      	movs	r2, #2
 8004806:	7722      	strb	r2, [r4, #28]
 8004808:	4635      	mov	r5, r6
 800480a:	e7d5      	b.n	80047b8 <USBH_SetAddress+0x40>
 800480c:	7941      	ldrb	r1, [r0, #5]
 800480e:	f001 f82d 	bl	800586c <USBH_LL_GetURBState>
 8004812:	2801      	cmp	r0, #1
 8004814:	4605      	mov	r5, r0
 8004816:	d07d      	beq.n	8004914 <USBH_SetAddress+0x19c>
 8004818:	2804      	cmp	r0, #4
 800481a:	d001      	beq.n	8004820 <USBH_SetAddress+0xa8>
 800481c:	2802      	cmp	r0, #2
 800481e:	d1ca      	bne.n	80047b6 <USBH_SetAddress+0x3e>
 8004820:	230b      	movs	r3, #11
 8004822:	7723      	strb	r3, [r4, #28]
 8004824:	2501      	movs	r5, #1
 8004826:	e7c7      	b.n	80047b8 <USBH_SetAddress+0x40>
 8004828:	f8d0 02c8 	ldr.w	r0, [r0, #712]	; 0x2c8
 800482c:	7923      	ldrb	r3, [r4, #4]
 800482e:	6120      	str	r0, [r4, #16]
 8004830:	89a2      	ldrh	r2, [r4, #12]
 8004832:	68a1      	ldr	r1, [r4, #8]
 8004834:	4620      	mov	r0, r4
 8004836:	f000 fb51 	bl	8004edc <USBH_CtlReceiveData>
 800483a:	2304      	movs	r3, #4
 800483c:	7723      	strb	r3, [r4, #28]
 800483e:	2501      	movs	r5, #1
 8004840:	e7ba      	b.n	80047b8 <USBH_SetAddress+0x40>
 8004842:	2501      	movs	r5, #1
 8004844:	7943      	ldrb	r3, [r0, #5]
 8004846:	8982      	ldrh	r2, [r0, #12]
 8004848:	6881      	ldr	r1, [r0, #8]
 800484a:	9500      	str	r5, [sp, #0]
 800484c:	f000 fb2e 	bl	8004eac <USBH_CtlSendData>
 8004850:	f8d4 22c8 	ldr.w	r2, [r4, #712]	; 0x2c8
 8004854:	6122      	str	r2, [r4, #16]
 8004856:	2306      	movs	r3, #6
 8004858:	7723      	strb	r3, [r4, #28]
 800485a:	e7ad      	b.n	80047b8 <USBH_SetAddress+0x40>
 800485c:	7941      	ldrb	r1, [r0, #5]
 800485e:	f001 f805 	bl	800586c <USBH_LL_GetURBState>
 8004862:	2801      	cmp	r0, #1
 8004864:	d052      	beq.n	800490c <USBH_SetAddress+0x194>
 8004866:	2805      	cmp	r0, #5
 8004868:	d05e      	beq.n	8004928 <USBH_SetAddress+0x1b0>
 800486a:	2802      	cmp	r0, #2
 800486c:	d058      	beq.n	8004920 <USBH_SetAddress+0x1a8>
 800486e:	2804      	cmp	r0, #4
 8004870:	d1a1      	bne.n	80047b6 <USBH_SetAddress+0x3e>
 8004872:	230b      	movs	r3, #11
 8004874:	7723      	strb	r3, [r4, #28]
 8004876:	4830      	ldr	r0, [pc, #192]	; (8004938 <USBH_SetAddress+0x1c0>)
 8004878:	f000 fca6 	bl	80051c8 <LOG>
 800487c:	2303      	movs	r3, #3
 800487e:	70a3      	strb	r3, [r4, #2]
 8004880:	e79a      	b.n	80047b8 <USBH_SetAddress+0x40>
 8004882:	2200      	movs	r2, #0
 8004884:	7903      	ldrb	r3, [r0, #4]
 8004886:	4611      	mov	r1, r2
 8004888:	f000 fb28 	bl	8004edc <USBH_CtlReceiveData>
 800488c:	f8d4 22c8 	ldr.w	r2, [r4, #712]	; 0x2c8
 8004890:	6122      	str	r2, [r4, #16]
 8004892:	2308      	movs	r3, #8
 8004894:	7723      	strb	r3, [r4, #28]
 8004896:	2501      	movs	r5, #1
 8004898:	e78e      	b.n	80047b8 <USBH_SetAddress+0x40>
 800489a:	2200      	movs	r2, #0
 800489c:	2501      	movs	r5, #1
 800489e:	7943      	ldrb	r3, [r0, #5]
 80048a0:	9500      	str	r5, [sp, #0]
 80048a2:	4611      	mov	r1, r2
 80048a4:	f000 fb02 	bl	8004eac <USBH_CtlSendData>
 80048a8:	f8d4 22c8 	ldr.w	r2, [r4, #712]	; 0x2c8
 80048ac:	6122      	str	r2, [r4, #16]
 80048ae:	230a      	movs	r3, #10
 80048b0:	7723      	strb	r3, [r4, #28]
 80048b2:	e781      	b.n	80047b8 <USBH_SetAddress+0x40>
 80048b4:	7941      	ldrb	r1, [r0, #5]
 80048b6:	f000 ffd9 	bl	800586c <USBH_LL_GetURBState>
 80048ba:	2801      	cmp	r0, #1
 80048bc:	d012      	beq.n	80048e4 <USBH_SetAddress+0x16c>
 80048be:	2802      	cmp	r0, #2
 80048c0:	f47f af77 	bne.w	80047b2 <USBH_SetAddress+0x3a>
 80048c4:	2309      	movs	r3, #9
 80048c6:	7723      	strb	r3, [r4, #28]
 80048c8:	2501      	movs	r5, #1
 80048ca:	e775      	b.n	80047b8 <USBH_SetAddress+0x40>
 80048cc:	7901      	ldrb	r1, [r0, #4]
 80048ce:	f000 ffcd 	bl	800586c <USBH_LL_GetURBState>
 80048d2:	2801      	cmp	r0, #1
 80048d4:	d006      	beq.n	80048e4 <USBH_SetAddress+0x16c>
 80048d6:	2804      	cmp	r0, #4
 80048d8:	d0a2      	beq.n	8004820 <USBH_SetAddress+0xa8>
 80048da:	2805      	cmp	r0, #5
 80048dc:	f47f af6b 	bne.w	80047b6 <USBH_SetAddress+0x3e>
 80048e0:	2503      	movs	r5, #3
 80048e2:	e769      	b.n	80047b8 <USBH_SetAddress+0x40>
 80048e4:	2500      	movs	r5, #0
 80048e6:	2301      	movs	r3, #1
 80048e8:	4628      	mov	r0, r5
 80048ea:	70a3      	strb	r3, [r4, #2]
 80048ec:	7725      	strb	r5, [r4, #28]
 80048ee:	b002      	add	sp, #8
 80048f0:	bd70      	pop	{r4, r5, r6, pc}
 80048f2:	f8d0 32d4 	ldr.w	r3, [r0, #724]	; 0x2d4
 80048f6:	b10b      	cbz	r3, 80048fc <USBH_SetAddress+0x184>
 80048f8:	2106      	movs	r1, #6
 80048fa:	4798      	blx	r3
 80048fc:	2300      	movs	r3, #0
 80048fe:	480f      	ldr	r0, [pc, #60]	; (800493c <USBH_SetAddress+0x1c4>)
 8004900:	7763      	strb	r3, [r4, #29]
 8004902:	f000 fc61 	bl	80051c8 <LOG>
 8004906:	e7b6      	b.n	8004876 <USBH_SetAddress+0xfe>
 8004908:	0613      	lsls	r3, r2, #24
 800490a:	d4db      	bmi.n	80048c4 <USBH_SetAddress+0x14c>
 800490c:	2307      	movs	r3, #7
 800490e:	7723      	strb	r3, [r4, #28]
 8004910:	2501      	movs	r5, #1
 8004912:	e751      	b.n	80047b8 <USBH_SetAddress+0x40>
 8004914:	8b63      	ldrh	r3, [r4, #26]
 8004916:	7d22      	ldrb	r2, [r4, #20]
 8004918:	2b00      	cmp	r3, #0
 800491a:	d0f5      	beq.n	8004908 <USBH_SetAddress+0x190>
 800491c:	0612      	lsls	r2, r2, #24
 800491e:	d407      	bmi.n	8004930 <USBH_SetAddress+0x1b8>
 8004920:	2305      	movs	r3, #5
 8004922:	7723      	strb	r3, [r4, #28]
 8004924:	2501      	movs	r5, #1
 8004926:	e747      	b.n	80047b8 <USBH_SetAddress+0x40>
 8004928:	230c      	movs	r3, #12
 800492a:	7723      	strb	r3, [r4, #28]
 800492c:	2503      	movs	r5, #3
 800492e:	e743      	b.n	80047b8 <USBH_SetAddress+0x40>
 8004930:	2303      	movs	r3, #3
 8004932:	7723      	strb	r3, [r4, #28]
 8004934:	e740      	b.n	80047b8 <USBH_SetAddress+0x40>
 8004936:	bf00      	nop
 8004938:	08006c80 	.word	0x08006c80
 800493c:	08006c70 	.word	0x08006c70

08004940 <USBH_SetCfg>:
 8004940:	b570      	push	{r4, r5, r6, lr}
 8004942:	7885      	ldrb	r5, [r0, #2]
 8004944:	2d01      	cmp	r5, #1
 8004946:	b082      	sub	sp, #8
 8004948:	4604      	mov	r4, r0
 800494a:	d01c      	beq.n	8004986 <USBH_SetCfg+0x46>
 800494c:	2d02      	cmp	r5, #2
 800494e:	d116      	bne.n	800497e <USBH_SetCfg+0x3e>
 8004950:	7f06      	ldrb	r6, [r0, #28]
 8004952:	1e73      	subs	r3, r6, #1
 8004954:	2b0a      	cmp	r3, #10
 8004956:	d812      	bhi.n	800497e <USBH_SetCfg+0x3e>
 8004958:	e8df f003 	tbb	[pc, r3]
 800495c:	064a3c30 	.word	0x064a3c30
 8004960:	9c776457 	.word	0x9c776457
 8004964:	9083      	.short	0x9083
 8004966:	23          	.byte	0x23
 8004967:	00          	.byte	0x00
 8004968:	7901      	ldrb	r1, [r0, #4]
 800496a:	f000 ff7f 	bl	800586c <USBH_LL_GetURBState>
 800496e:	2801      	cmp	r0, #1
 8004970:	f000 808c 	beq.w	8004a8c <USBH_SetCfg+0x14c>
 8004974:	2805      	cmp	r0, #5
 8004976:	f000 8097 	beq.w	8004aa8 <USBH_SetCfg+0x168>
 800497a:	2804      	cmp	r0, #4
 800497c:	d034      	beq.n	80049e8 <USBH_SetCfg+0xa8>
 800497e:	2501      	movs	r5, #1
 8004980:	4628      	mov	r0, r5
 8004982:	b002      	add	sp, #8
 8004984:	bd70      	pop	{r4, r5, r6, pc}
 8004986:	f44f 6210 	mov.w	r2, #2304	; 0x900
 800498a:	2300      	movs	r3, #0
 800498c:	8282      	strh	r2, [r0, #20]
 800498e:	2202      	movs	r2, #2
 8004990:	82c1      	strh	r1, [r0, #22]
 8004992:	6083      	str	r3, [r0, #8]
 8004994:	8183      	strh	r3, [r0, #12]
 8004996:	6183      	str	r3, [r0, #24]
 8004998:	7705      	strb	r5, [r0, #28]
 800499a:	7082      	strb	r2, [r0, #2]
 800499c:	4628      	mov	r0, r5
 800499e:	b002      	add	sp, #8
 80049a0:	bd70      	pop	{r4, r5, r6, pc}
 80049a2:	7f43      	ldrb	r3, [r0, #29]
 80049a4:	3301      	adds	r3, #1
 80049a6:	b2db      	uxtb	r3, r3
 80049a8:	2b02      	cmp	r3, #2
 80049aa:	7743      	strb	r3, [r0, #29]
 80049ac:	f200 8085 	bhi.w	8004aba <USBH_SetCfg+0x17a>
 80049b0:	2501      	movs	r5, #1
 80049b2:	f000 ff01 	bl	80057b8 <USBH_LL_Stop>
 80049b6:	7725      	strb	r5, [r4, #28]
 80049b8:	70a5      	strb	r5, [r4, #2]
 80049ba:	e7e1      	b.n	8004980 <USBH_SetCfg+0x40>
 80049bc:	7942      	ldrb	r2, [r0, #5]
 80049be:	f100 0114 	add.w	r1, r0, #20
 80049c2:	f000 fa61 	bl	8004e88 <USBH_CtlSendSetup>
 80049c6:	f8d4 32c8 	ldr.w	r3, [r4, #712]	; 0x2c8
 80049ca:	6123      	str	r3, [r4, #16]
 80049cc:	2202      	movs	r2, #2
 80049ce:	7722      	strb	r2, [r4, #28]
 80049d0:	4635      	mov	r5, r6
 80049d2:	e7d5      	b.n	8004980 <USBH_SetCfg+0x40>
 80049d4:	7941      	ldrb	r1, [r0, #5]
 80049d6:	f000 ff49 	bl	800586c <USBH_LL_GetURBState>
 80049da:	2801      	cmp	r0, #1
 80049dc:	4605      	mov	r5, r0
 80049de:	d07d      	beq.n	8004adc <USBH_SetCfg+0x19c>
 80049e0:	2804      	cmp	r0, #4
 80049e2:	d001      	beq.n	80049e8 <USBH_SetCfg+0xa8>
 80049e4:	2802      	cmp	r0, #2
 80049e6:	d1ca      	bne.n	800497e <USBH_SetCfg+0x3e>
 80049e8:	230b      	movs	r3, #11
 80049ea:	7723      	strb	r3, [r4, #28]
 80049ec:	2501      	movs	r5, #1
 80049ee:	e7c7      	b.n	8004980 <USBH_SetCfg+0x40>
 80049f0:	f8d0 02c8 	ldr.w	r0, [r0, #712]	; 0x2c8
 80049f4:	7923      	ldrb	r3, [r4, #4]
 80049f6:	6120      	str	r0, [r4, #16]
 80049f8:	89a2      	ldrh	r2, [r4, #12]
 80049fa:	68a1      	ldr	r1, [r4, #8]
 80049fc:	4620      	mov	r0, r4
 80049fe:	f000 fa6d 	bl	8004edc <USBH_CtlReceiveData>
 8004a02:	2304      	movs	r3, #4
 8004a04:	7723      	strb	r3, [r4, #28]
 8004a06:	2501      	movs	r5, #1
 8004a08:	e7ba      	b.n	8004980 <USBH_SetCfg+0x40>
 8004a0a:	2501      	movs	r5, #1
 8004a0c:	7943      	ldrb	r3, [r0, #5]
 8004a0e:	8982      	ldrh	r2, [r0, #12]
 8004a10:	6881      	ldr	r1, [r0, #8]
 8004a12:	9500      	str	r5, [sp, #0]
 8004a14:	f000 fa4a 	bl	8004eac <USBH_CtlSendData>
 8004a18:	f8d4 22c8 	ldr.w	r2, [r4, #712]	; 0x2c8
 8004a1c:	6122      	str	r2, [r4, #16]
 8004a1e:	2306      	movs	r3, #6
 8004a20:	7723      	strb	r3, [r4, #28]
 8004a22:	e7ad      	b.n	8004980 <USBH_SetCfg+0x40>
 8004a24:	7941      	ldrb	r1, [r0, #5]
 8004a26:	f000 ff21 	bl	800586c <USBH_LL_GetURBState>
 8004a2a:	2801      	cmp	r0, #1
 8004a2c:	d052      	beq.n	8004ad4 <USBH_SetCfg+0x194>
 8004a2e:	2805      	cmp	r0, #5
 8004a30:	d05e      	beq.n	8004af0 <USBH_SetCfg+0x1b0>
 8004a32:	2802      	cmp	r0, #2
 8004a34:	d058      	beq.n	8004ae8 <USBH_SetCfg+0x1a8>
 8004a36:	2804      	cmp	r0, #4
 8004a38:	d1a1      	bne.n	800497e <USBH_SetCfg+0x3e>
 8004a3a:	230b      	movs	r3, #11
 8004a3c:	7723      	strb	r3, [r4, #28]
 8004a3e:	4830      	ldr	r0, [pc, #192]	; (8004b00 <USBH_SetCfg+0x1c0>)
 8004a40:	f000 fbc2 	bl	80051c8 <LOG>
 8004a44:	2303      	movs	r3, #3
 8004a46:	70a3      	strb	r3, [r4, #2]
 8004a48:	e79a      	b.n	8004980 <USBH_SetCfg+0x40>
 8004a4a:	2200      	movs	r2, #0
 8004a4c:	7903      	ldrb	r3, [r0, #4]
 8004a4e:	4611      	mov	r1, r2
 8004a50:	f000 fa44 	bl	8004edc <USBH_CtlReceiveData>
 8004a54:	f8d4 22c8 	ldr.w	r2, [r4, #712]	; 0x2c8
 8004a58:	6122      	str	r2, [r4, #16]
 8004a5a:	2308      	movs	r3, #8
 8004a5c:	7723      	strb	r3, [r4, #28]
 8004a5e:	2501      	movs	r5, #1
 8004a60:	e78e      	b.n	8004980 <USBH_SetCfg+0x40>
 8004a62:	2200      	movs	r2, #0
 8004a64:	2501      	movs	r5, #1
 8004a66:	7943      	ldrb	r3, [r0, #5]
 8004a68:	9500      	str	r5, [sp, #0]
 8004a6a:	4611      	mov	r1, r2
 8004a6c:	f000 fa1e 	bl	8004eac <USBH_CtlSendData>
 8004a70:	f8d4 22c8 	ldr.w	r2, [r4, #712]	; 0x2c8
 8004a74:	6122      	str	r2, [r4, #16]
 8004a76:	230a      	movs	r3, #10
 8004a78:	7723      	strb	r3, [r4, #28]
 8004a7a:	e781      	b.n	8004980 <USBH_SetCfg+0x40>
 8004a7c:	7941      	ldrb	r1, [r0, #5]
 8004a7e:	f000 fef5 	bl	800586c <USBH_LL_GetURBState>
 8004a82:	2801      	cmp	r0, #1
 8004a84:	d012      	beq.n	8004aac <USBH_SetCfg+0x16c>
 8004a86:	2802      	cmp	r0, #2
 8004a88:	f47f af77 	bne.w	800497a <USBH_SetCfg+0x3a>
 8004a8c:	2309      	movs	r3, #9
 8004a8e:	7723      	strb	r3, [r4, #28]
 8004a90:	2501      	movs	r5, #1
 8004a92:	e775      	b.n	8004980 <USBH_SetCfg+0x40>
 8004a94:	7901      	ldrb	r1, [r0, #4]
 8004a96:	f000 fee9 	bl	800586c <USBH_LL_GetURBState>
 8004a9a:	2801      	cmp	r0, #1
 8004a9c:	d006      	beq.n	8004aac <USBH_SetCfg+0x16c>
 8004a9e:	2804      	cmp	r0, #4
 8004aa0:	d0a2      	beq.n	80049e8 <USBH_SetCfg+0xa8>
 8004aa2:	2805      	cmp	r0, #5
 8004aa4:	f47f af6b 	bne.w	800497e <USBH_SetCfg+0x3e>
 8004aa8:	2503      	movs	r5, #3
 8004aaa:	e769      	b.n	8004980 <USBH_SetCfg+0x40>
 8004aac:	2500      	movs	r5, #0
 8004aae:	2301      	movs	r3, #1
 8004ab0:	4628      	mov	r0, r5
 8004ab2:	70a3      	strb	r3, [r4, #2]
 8004ab4:	7725      	strb	r5, [r4, #28]
 8004ab6:	b002      	add	sp, #8
 8004ab8:	bd70      	pop	{r4, r5, r6, pc}
 8004aba:	f8d0 32d4 	ldr.w	r3, [r0, #724]	; 0x2d4
 8004abe:	b10b      	cbz	r3, 8004ac4 <USBH_SetCfg+0x184>
 8004ac0:	2106      	movs	r1, #6
 8004ac2:	4798      	blx	r3
 8004ac4:	2300      	movs	r3, #0
 8004ac6:	480f      	ldr	r0, [pc, #60]	; (8004b04 <USBH_SetCfg+0x1c4>)
 8004ac8:	7763      	strb	r3, [r4, #29]
 8004aca:	f000 fb7d 	bl	80051c8 <LOG>
 8004ace:	e7b6      	b.n	8004a3e <USBH_SetCfg+0xfe>
 8004ad0:	0613      	lsls	r3, r2, #24
 8004ad2:	d4db      	bmi.n	8004a8c <USBH_SetCfg+0x14c>
 8004ad4:	2307      	movs	r3, #7
 8004ad6:	7723      	strb	r3, [r4, #28]
 8004ad8:	2501      	movs	r5, #1
 8004ada:	e751      	b.n	8004980 <USBH_SetCfg+0x40>
 8004adc:	8b63      	ldrh	r3, [r4, #26]
 8004ade:	7d22      	ldrb	r2, [r4, #20]
 8004ae0:	2b00      	cmp	r3, #0
 8004ae2:	d0f5      	beq.n	8004ad0 <USBH_SetCfg+0x190>
 8004ae4:	0612      	lsls	r2, r2, #24
 8004ae6:	d407      	bmi.n	8004af8 <USBH_SetCfg+0x1b8>
 8004ae8:	2305      	movs	r3, #5
 8004aea:	7723      	strb	r3, [r4, #28]
 8004aec:	2501      	movs	r5, #1
 8004aee:	e747      	b.n	8004980 <USBH_SetCfg+0x40>
 8004af0:	230c      	movs	r3, #12
 8004af2:	7723      	strb	r3, [r4, #28]
 8004af4:	2503      	movs	r5, #3
 8004af6:	e743      	b.n	8004980 <USBH_SetCfg+0x40>
 8004af8:	2303      	movs	r3, #3
 8004afa:	7723      	strb	r3, [r4, #28]
 8004afc:	e740      	b.n	8004980 <USBH_SetCfg+0x40>
 8004afe:	bf00      	nop
 8004b00:	08006c80 	.word	0x08006c80
 8004b04:	08006c70 	.word	0x08006c70

08004b08 <USBH_ClrFeature>:
 8004b08:	b570      	push	{r4, r5, r6, lr}
 8004b0a:	7885      	ldrb	r5, [r0, #2]
 8004b0c:	2d01      	cmp	r5, #1
 8004b0e:	b082      	sub	sp, #8
 8004b10:	4604      	mov	r4, r0
 8004b12:	d01c      	beq.n	8004b4e <USBH_ClrFeature+0x46>
 8004b14:	2d02      	cmp	r5, #2
 8004b16:	d116      	bne.n	8004b46 <USBH_ClrFeature+0x3e>
 8004b18:	7f06      	ldrb	r6, [r0, #28]
 8004b1a:	1e73      	subs	r3, r6, #1
 8004b1c:	2b0a      	cmp	r3, #10
 8004b1e:	d812      	bhi.n	8004b46 <USBH_ClrFeature+0x3e>
 8004b20:	e8df f003 	tbb	[pc, r3]
 8004b24:	064a3c30 	.word	0x064a3c30
 8004b28:	9c776457 	.word	0x9c776457
 8004b2c:	9083      	.short	0x9083
 8004b2e:	23          	.byte	0x23
 8004b2f:	00          	.byte	0x00
 8004b30:	7901      	ldrb	r1, [r0, #4]
 8004b32:	f000 fe9b 	bl	800586c <USBH_LL_GetURBState>
 8004b36:	2801      	cmp	r0, #1
 8004b38:	f000 808c 	beq.w	8004c54 <USBH_ClrFeature+0x14c>
 8004b3c:	2805      	cmp	r0, #5
 8004b3e:	f000 8097 	beq.w	8004c70 <USBH_ClrFeature+0x168>
 8004b42:	2804      	cmp	r0, #4
 8004b44:	d034      	beq.n	8004bb0 <USBH_ClrFeature+0xa8>
 8004b46:	2501      	movs	r5, #1
 8004b48:	4628      	mov	r0, r5
 8004b4a:	b002      	add	sp, #8
 8004b4c:	bd70      	pop	{r4, r5, r6, pc}
 8004b4e:	f44f 7281 	mov.w	r2, #258	; 0x102
 8004b52:	2300      	movs	r3, #0
 8004b54:	6142      	str	r2, [r0, #20]
 8004b56:	2202      	movs	r2, #2
 8004b58:	8301      	strh	r1, [r0, #24]
 8004b5a:	8343      	strh	r3, [r0, #26]
 8004b5c:	6083      	str	r3, [r0, #8]
 8004b5e:	8183      	strh	r3, [r0, #12]
 8004b60:	7705      	strb	r5, [r0, #28]
 8004b62:	7082      	strb	r2, [r0, #2]
 8004b64:	4628      	mov	r0, r5
 8004b66:	b002      	add	sp, #8
 8004b68:	bd70      	pop	{r4, r5, r6, pc}
 8004b6a:	7f43      	ldrb	r3, [r0, #29]
 8004b6c:	3301      	adds	r3, #1
 8004b6e:	b2db      	uxtb	r3, r3
 8004b70:	2b02      	cmp	r3, #2
 8004b72:	7743      	strb	r3, [r0, #29]
 8004b74:	f200 8085 	bhi.w	8004c82 <USBH_ClrFeature+0x17a>
 8004b78:	2501      	movs	r5, #1
 8004b7a:	f000 fe1d 	bl	80057b8 <USBH_LL_Stop>
 8004b7e:	7725      	strb	r5, [r4, #28]
 8004b80:	70a5      	strb	r5, [r4, #2]
 8004b82:	e7e1      	b.n	8004b48 <USBH_ClrFeature+0x40>
 8004b84:	7942      	ldrb	r2, [r0, #5]
 8004b86:	f100 0114 	add.w	r1, r0, #20
 8004b8a:	f000 f97d 	bl	8004e88 <USBH_CtlSendSetup>
 8004b8e:	f8d4 32c8 	ldr.w	r3, [r4, #712]	; 0x2c8
 8004b92:	6123      	str	r3, [r4, #16]
 8004b94:	2202      	movs	r2, #2
 8004b96:	7722      	strb	r2, [r4, #28]
 8004b98:	4635      	mov	r5, r6
 8004b9a:	e7d5      	b.n	8004b48 <USBH_ClrFeature+0x40>
 8004b9c:	7941      	ldrb	r1, [r0, #5]
 8004b9e:	f000 fe65 	bl	800586c <USBH_LL_GetURBState>
 8004ba2:	2801      	cmp	r0, #1
 8004ba4:	4605      	mov	r5, r0
 8004ba6:	d07d      	beq.n	8004ca4 <USBH_ClrFeature+0x19c>
 8004ba8:	2804      	cmp	r0, #4
 8004baa:	d001      	beq.n	8004bb0 <USBH_ClrFeature+0xa8>
 8004bac:	2802      	cmp	r0, #2
 8004bae:	d1ca      	bne.n	8004b46 <USBH_ClrFeature+0x3e>
 8004bb0:	230b      	movs	r3, #11
 8004bb2:	7723      	strb	r3, [r4, #28]
 8004bb4:	2501      	movs	r5, #1
 8004bb6:	e7c7      	b.n	8004b48 <USBH_ClrFeature+0x40>
 8004bb8:	f8d0 02c8 	ldr.w	r0, [r0, #712]	; 0x2c8
 8004bbc:	7923      	ldrb	r3, [r4, #4]
 8004bbe:	6120      	str	r0, [r4, #16]
 8004bc0:	89a2      	ldrh	r2, [r4, #12]
 8004bc2:	68a1      	ldr	r1, [r4, #8]
 8004bc4:	4620      	mov	r0, r4
 8004bc6:	f000 f989 	bl	8004edc <USBH_CtlReceiveData>
 8004bca:	2304      	movs	r3, #4
 8004bcc:	7723      	strb	r3, [r4, #28]
 8004bce:	2501      	movs	r5, #1
 8004bd0:	e7ba      	b.n	8004b48 <USBH_ClrFeature+0x40>
 8004bd2:	2501      	movs	r5, #1
 8004bd4:	7943      	ldrb	r3, [r0, #5]
 8004bd6:	8982      	ldrh	r2, [r0, #12]
 8004bd8:	6881      	ldr	r1, [r0, #8]
 8004bda:	9500      	str	r5, [sp, #0]
 8004bdc:	f000 f966 	bl	8004eac <USBH_CtlSendData>
 8004be0:	f8d4 22c8 	ldr.w	r2, [r4, #712]	; 0x2c8
 8004be4:	6122      	str	r2, [r4, #16]
 8004be6:	2306      	movs	r3, #6
 8004be8:	7723      	strb	r3, [r4, #28]
 8004bea:	e7ad      	b.n	8004b48 <USBH_ClrFeature+0x40>
 8004bec:	7941      	ldrb	r1, [r0, #5]
 8004bee:	f000 fe3d 	bl	800586c <USBH_LL_GetURBState>
 8004bf2:	2801      	cmp	r0, #1
 8004bf4:	d052      	beq.n	8004c9c <USBH_ClrFeature+0x194>
 8004bf6:	2805      	cmp	r0, #5
 8004bf8:	d05e      	beq.n	8004cb8 <USBH_ClrFeature+0x1b0>
 8004bfa:	2802      	cmp	r0, #2
 8004bfc:	d058      	beq.n	8004cb0 <USBH_ClrFeature+0x1a8>
 8004bfe:	2804      	cmp	r0, #4
 8004c00:	d1a1      	bne.n	8004b46 <USBH_ClrFeature+0x3e>
 8004c02:	230b      	movs	r3, #11
 8004c04:	7723      	strb	r3, [r4, #28]
 8004c06:	4830      	ldr	r0, [pc, #192]	; (8004cc8 <USBH_ClrFeature+0x1c0>)
 8004c08:	f000 fade 	bl	80051c8 <LOG>
 8004c0c:	2303      	movs	r3, #3
 8004c0e:	70a3      	strb	r3, [r4, #2]
 8004c10:	e79a      	b.n	8004b48 <USBH_ClrFeature+0x40>
 8004c12:	2200      	movs	r2, #0
 8004c14:	7903      	ldrb	r3, [r0, #4]
 8004c16:	4611      	mov	r1, r2
 8004c18:	f000 f960 	bl	8004edc <USBH_CtlReceiveData>
 8004c1c:	f8d4 22c8 	ldr.w	r2, [r4, #712]	; 0x2c8
 8004c20:	6122      	str	r2, [r4, #16]
 8004c22:	2308      	movs	r3, #8
 8004c24:	7723      	strb	r3, [r4, #28]
 8004c26:	2501      	movs	r5, #1
 8004c28:	e78e      	b.n	8004b48 <USBH_ClrFeature+0x40>
 8004c2a:	2200      	movs	r2, #0
 8004c2c:	2501      	movs	r5, #1
 8004c2e:	7943      	ldrb	r3, [r0, #5]
 8004c30:	9500      	str	r5, [sp, #0]
 8004c32:	4611      	mov	r1, r2
 8004c34:	f000 f93a 	bl	8004eac <USBH_CtlSendData>
 8004c38:	f8d4 22c8 	ldr.w	r2, [r4, #712]	; 0x2c8
 8004c3c:	6122      	str	r2, [r4, #16]
 8004c3e:	230a      	movs	r3, #10
 8004c40:	7723      	strb	r3, [r4, #28]
 8004c42:	e781      	b.n	8004b48 <USBH_ClrFeature+0x40>
 8004c44:	7941      	ldrb	r1, [r0, #5]
 8004c46:	f000 fe11 	bl	800586c <USBH_LL_GetURBState>
 8004c4a:	2801      	cmp	r0, #1
 8004c4c:	d012      	beq.n	8004c74 <USBH_ClrFeature+0x16c>
 8004c4e:	2802      	cmp	r0, #2
 8004c50:	f47f af77 	bne.w	8004b42 <USBH_ClrFeature+0x3a>
 8004c54:	2309      	movs	r3, #9
 8004c56:	7723      	strb	r3, [r4, #28]
 8004c58:	2501      	movs	r5, #1
 8004c5a:	e775      	b.n	8004b48 <USBH_ClrFeature+0x40>
 8004c5c:	7901      	ldrb	r1, [r0, #4]
 8004c5e:	f000 fe05 	bl	800586c <USBH_LL_GetURBState>
 8004c62:	2801      	cmp	r0, #1
 8004c64:	d006      	beq.n	8004c74 <USBH_ClrFeature+0x16c>
 8004c66:	2804      	cmp	r0, #4
 8004c68:	d0a2      	beq.n	8004bb0 <USBH_ClrFeature+0xa8>
 8004c6a:	2805      	cmp	r0, #5
 8004c6c:	f47f af6b 	bne.w	8004b46 <USBH_ClrFeature+0x3e>
 8004c70:	2503      	movs	r5, #3
 8004c72:	e769      	b.n	8004b48 <USBH_ClrFeature+0x40>
 8004c74:	2500      	movs	r5, #0
 8004c76:	2301      	movs	r3, #1
 8004c78:	4628      	mov	r0, r5
 8004c7a:	70a3      	strb	r3, [r4, #2]
 8004c7c:	7725      	strb	r5, [r4, #28]
 8004c7e:	b002      	add	sp, #8
 8004c80:	bd70      	pop	{r4, r5, r6, pc}
 8004c82:	f8d0 32d4 	ldr.w	r3, [r0, #724]	; 0x2d4
 8004c86:	b10b      	cbz	r3, 8004c8c <USBH_ClrFeature+0x184>
 8004c88:	2106      	movs	r1, #6
 8004c8a:	4798      	blx	r3
 8004c8c:	2300      	movs	r3, #0
 8004c8e:	480f      	ldr	r0, [pc, #60]	; (8004ccc <USBH_ClrFeature+0x1c4>)
 8004c90:	7763      	strb	r3, [r4, #29]
 8004c92:	f000 fa99 	bl	80051c8 <LOG>
 8004c96:	e7b6      	b.n	8004c06 <USBH_ClrFeature+0xfe>
 8004c98:	0613      	lsls	r3, r2, #24
 8004c9a:	d4db      	bmi.n	8004c54 <USBH_ClrFeature+0x14c>
 8004c9c:	2307      	movs	r3, #7
 8004c9e:	7723      	strb	r3, [r4, #28]
 8004ca0:	2501      	movs	r5, #1
 8004ca2:	e751      	b.n	8004b48 <USBH_ClrFeature+0x40>
 8004ca4:	8b63      	ldrh	r3, [r4, #26]
 8004ca6:	7d22      	ldrb	r2, [r4, #20]
 8004ca8:	2b00      	cmp	r3, #0
 8004caa:	d0f5      	beq.n	8004c98 <USBH_ClrFeature+0x190>
 8004cac:	0612      	lsls	r2, r2, #24
 8004cae:	d407      	bmi.n	8004cc0 <USBH_ClrFeature+0x1b8>
 8004cb0:	2305      	movs	r3, #5
 8004cb2:	7723      	strb	r3, [r4, #28]
 8004cb4:	2501      	movs	r5, #1
 8004cb6:	e747      	b.n	8004b48 <USBH_ClrFeature+0x40>
 8004cb8:	230c      	movs	r3, #12
 8004cba:	7723      	strb	r3, [r4, #28]
 8004cbc:	2503      	movs	r5, #3
 8004cbe:	e743      	b.n	8004b48 <USBH_ClrFeature+0x40>
 8004cc0:	2303      	movs	r3, #3
 8004cc2:	7723      	strb	r3, [r4, #28]
 8004cc4:	e740      	b.n	8004b48 <USBH_ClrFeature+0x40>
 8004cc6:	bf00      	nop
 8004cc8:	08006c80 	.word	0x08006c80
 8004ccc:	08006c70 	.word	0x08006c70

08004cd0 <USBH_CtlReq>:
 8004cd0:	b570      	push	{r4, r5, r6, lr}
 8004cd2:	7885      	ldrb	r5, [r0, #2]
 8004cd4:	2d01      	cmp	r5, #1
 8004cd6:	b082      	sub	sp, #8
 8004cd8:	4604      	mov	r4, r0
 8004cda:	d01c      	beq.n	8004d16 <USBH_CtlReq+0x46>
 8004cdc:	2d02      	cmp	r5, #2
 8004cde:	d116      	bne.n	8004d0e <USBH_CtlReq+0x3e>
 8004ce0:	7f06      	ldrb	r6, [r0, #28]
 8004ce2:	1e73      	subs	r3, r6, #1
 8004ce4:	2b0a      	cmp	r3, #10
 8004ce6:	d812      	bhi.n	8004d0e <USBH_CtlReq+0x3e>
 8004ce8:	e8df f003 	tbb	[pc, r3]
 8004cec:	7b830690 	.word	0x7b830690
 8004cf0:	444f5b6e 	.word	0x444f5b6e
 8004cf4:	2a37      	.short	0x2a37
 8004cf6:	1d          	.byte	0x1d
 8004cf7:	00          	.byte	0x00
 8004cf8:	7941      	ldrb	r1, [r0, #5]
 8004cfa:	f000 fdb7 	bl	800586c <USBH_LL_GetURBState>
 8004cfe:	2801      	cmp	r0, #1
 8004d00:	4605      	mov	r5, r0
 8004d02:	f000 80ab 	beq.w	8004e5c <USBH_CtlReq+0x18c>
 8004d06:	2804      	cmp	r0, #4
 8004d08:	d023      	beq.n	8004d52 <USBH_CtlReq+0x82>
 8004d0a:	2802      	cmp	r0, #2
 8004d0c:	d021      	beq.n	8004d52 <USBH_CtlReq+0x82>
 8004d0e:	2501      	movs	r5, #1
 8004d10:	4628      	mov	r0, r5
 8004d12:	b002      	add	sp, #8
 8004d14:	bd70      	pop	{r4, r5, r6, pc}
 8004d16:	2302      	movs	r3, #2
 8004d18:	6081      	str	r1, [r0, #8]
 8004d1a:	8182      	strh	r2, [r0, #12]
 8004d1c:	7705      	strb	r5, [r0, #28]
 8004d1e:	7083      	strb	r3, [r0, #2]
 8004d20:	4628      	mov	r0, r5
 8004d22:	b002      	add	sp, #8
 8004d24:	bd70      	pop	{r4, r5, r6, pc}
 8004d26:	7f43      	ldrb	r3, [r0, #29]
 8004d28:	3301      	adds	r3, #1
 8004d2a:	b2db      	uxtb	r3, r3
 8004d2c:	2b02      	cmp	r3, #2
 8004d2e:	7743      	strb	r3, [r0, #29]
 8004d30:	f200 8085 	bhi.w	8004e3e <USBH_CtlReq+0x16e>
 8004d34:	2501      	movs	r5, #1
 8004d36:	f000 fd3f 	bl	80057b8 <USBH_LL_Stop>
 8004d3a:	7725      	strb	r5, [r4, #28]
 8004d3c:	70a5      	strb	r5, [r4, #2]
 8004d3e:	e7e7      	b.n	8004d10 <USBH_CtlReq+0x40>
 8004d40:	7941      	ldrb	r1, [r0, #5]
 8004d42:	f000 fd93 	bl	800586c <USBH_LL_GetURBState>
 8004d46:	2801      	cmp	r0, #1
 8004d48:	d06c      	beq.n	8004e24 <USBH_CtlReq+0x154>
 8004d4a:	2802      	cmp	r0, #2
 8004d4c:	d073      	beq.n	8004e36 <USBH_CtlReq+0x166>
 8004d4e:	2804      	cmp	r0, #4
 8004d50:	d1dd      	bne.n	8004d0e <USBH_CtlReq+0x3e>
 8004d52:	230b      	movs	r3, #11
 8004d54:	7723      	strb	r3, [r4, #28]
 8004d56:	2501      	movs	r5, #1
 8004d58:	e7da      	b.n	8004d10 <USBH_CtlReq+0x40>
 8004d5a:	2200      	movs	r2, #0
 8004d5c:	2501      	movs	r5, #1
 8004d5e:	7943      	ldrb	r3, [r0, #5]
 8004d60:	9500      	str	r5, [sp, #0]
 8004d62:	4611      	mov	r1, r2
 8004d64:	f000 f8a2 	bl	8004eac <USBH_CtlSendData>
 8004d68:	f8d4 22c8 	ldr.w	r2, [r4, #712]	; 0x2c8
 8004d6c:	6122      	str	r2, [r4, #16]
 8004d6e:	230a      	movs	r3, #10
 8004d70:	7723      	strb	r3, [r4, #28]
 8004d72:	e7cd      	b.n	8004d10 <USBH_CtlReq+0x40>
 8004d74:	7901      	ldrb	r1, [r0, #4]
 8004d76:	f000 fd79 	bl	800586c <USBH_LL_GetURBState>
 8004d7a:	2801      	cmp	r0, #1
 8004d7c:	d052      	beq.n	8004e24 <USBH_CtlReq+0x154>
 8004d7e:	2804      	cmp	r0, #4
 8004d80:	d0e7      	beq.n	8004d52 <USBH_CtlReq+0x82>
 8004d82:	2805      	cmp	r0, #5
 8004d84:	d1c3      	bne.n	8004d0e <USBH_CtlReq+0x3e>
 8004d86:	2503      	movs	r5, #3
 8004d88:	e7c2      	b.n	8004d10 <USBH_CtlReq+0x40>
 8004d8a:	2200      	movs	r2, #0
 8004d8c:	7903      	ldrb	r3, [r0, #4]
 8004d8e:	4611      	mov	r1, r2
 8004d90:	f000 f8a4 	bl	8004edc <USBH_CtlReceiveData>
 8004d94:	f8d4 22c8 	ldr.w	r2, [r4, #712]	; 0x2c8
 8004d98:	6122      	str	r2, [r4, #16]
 8004d9a:	2308      	movs	r3, #8
 8004d9c:	7723      	strb	r3, [r4, #28]
 8004d9e:	2501      	movs	r5, #1
 8004da0:	e7b6      	b.n	8004d10 <USBH_CtlReq+0x40>
 8004da2:	7941      	ldrb	r1, [r0, #5]
 8004da4:	f000 fd62 	bl	800586c <USBH_LL_GetURBState>
 8004da8:	2801      	cmp	r0, #1
 8004daa:	d053      	beq.n	8004e54 <USBH_CtlReq+0x184>
 8004dac:	2805      	cmp	r0, #5
 8004dae:	d05f      	beq.n	8004e70 <USBH_CtlReq+0x1a0>
 8004db0:	2802      	cmp	r0, #2
 8004db2:	d059      	beq.n	8004e68 <USBH_CtlReq+0x198>
 8004db4:	2804      	cmp	r0, #4
 8004db6:	d1aa      	bne.n	8004d0e <USBH_CtlReq+0x3e>
 8004db8:	230b      	movs	r3, #11
 8004dba:	7723      	strb	r3, [r4, #28]
 8004dbc:	4830      	ldr	r0, [pc, #192]	; (8004e80 <USBH_CtlReq+0x1b0>)
 8004dbe:	f000 fa03 	bl	80051c8 <LOG>
 8004dc2:	2303      	movs	r3, #3
 8004dc4:	70a3      	strb	r3, [r4, #2]
 8004dc6:	e7a3      	b.n	8004d10 <USBH_CtlReq+0x40>
 8004dc8:	2501      	movs	r5, #1
 8004dca:	7943      	ldrb	r3, [r0, #5]
 8004dcc:	8982      	ldrh	r2, [r0, #12]
 8004dce:	6881      	ldr	r1, [r0, #8]
 8004dd0:	9500      	str	r5, [sp, #0]
 8004dd2:	f000 f86b 	bl	8004eac <USBH_CtlSendData>
 8004dd6:	f8d4 22c8 	ldr.w	r2, [r4, #712]	; 0x2c8
 8004dda:	6122      	str	r2, [r4, #16]
 8004ddc:	2306      	movs	r3, #6
 8004dde:	7723      	strb	r3, [r4, #28]
 8004de0:	e796      	b.n	8004d10 <USBH_CtlReq+0x40>
 8004de2:	7901      	ldrb	r1, [r0, #4]
 8004de4:	f000 fd42 	bl	800586c <USBH_LL_GetURBState>
 8004de8:	2801      	cmp	r0, #1
 8004dea:	d024      	beq.n	8004e36 <USBH_CtlReq+0x166>
 8004dec:	2805      	cmp	r0, #5
 8004dee:	d1ae      	bne.n	8004d4e <USBH_CtlReq+0x7e>
 8004df0:	e7c9      	b.n	8004d86 <USBH_CtlReq+0xb6>
 8004df2:	f8d0 02c8 	ldr.w	r0, [r0, #712]	; 0x2c8
 8004df6:	7923      	ldrb	r3, [r4, #4]
 8004df8:	6120      	str	r0, [r4, #16]
 8004dfa:	89a2      	ldrh	r2, [r4, #12]
 8004dfc:	68a1      	ldr	r1, [r4, #8]
 8004dfe:	4620      	mov	r0, r4
 8004e00:	f000 f86c 	bl	8004edc <USBH_CtlReceiveData>
 8004e04:	2304      	movs	r3, #4
 8004e06:	7723      	strb	r3, [r4, #28]
 8004e08:	2501      	movs	r5, #1
 8004e0a:	e781      	b.n	8004d10 <USBH_CtlReq+0x40>
 8004e0c:	7942      	ldrb	r2, [r0, #5]
 8004e0e:	f100 0114 	add.w	r1, r0, #20
 8004e12:	f000 f839 	bl	8004e88 <USBH_CtlSendSetup>
 8004e16:	f8d4 32c8 	ldr.w	r3, [r4, #712]	; 0x2c8
 8004e1a:	6123      	str	r3, [r4, #16]
 8004e1c:	2202      	movs	r2, #2
 8004e1e:	7722      	strb	r2, [r4, #28]
 8004e20:	4635      	mov	r5, r6
 8004e22:	e775      	b.n	8004d10 <USBH_CtlReq+0x40>
 8004e24:	2500      	movs	r5, #0
 8004e26:	2301      	movs	r3, #1
 8004e28:	4628      	mov	r0, r5
 8004e2a:	70a3      	strb	r3, [r4, #2]
 8004e2c:	7725      	strb	r5, [r4, #28]
 8004e2e:	b002      	add	sp, #8
 8004e30:	bd70      	pop	{r4, r5, r6, pc}
 8004e32:	0613      	lsls	r3, r2, #24
 8004e34:	d50e      	bpl.n	8004e54 <USBH_CtlReq+0x184>
 8004e36:	2309      	movs	r3, #9
 8004e38:	7723      	strb	r3, [r4, #28]
 8004e3a:	2501      	movs	r5, #1
 8004e3c:	e768      	b.n	8004d10 <USBH_CtlReq+0x40>
 8004e3e:	f8d0 32d4 	ldr.w	r3, [r0, #724]	; 0x2d4
 8004e42:	b10b      	cbz	r3, 8004e48 <USBH_CtlReq+0x178>
 8004e44:	2106      	movs	r1, #6
 8004e46:	4798      	blx	r3
 8004e48:	2300      	movs	r3, #0
 8004e4a:	480e      	ldr	r0, [pc, #56]	; (8004e84 <USBH_CtlReq+0x1b4>)
 8004e4c:	7763      	strb	r3, [r4, #29]
 8004e4e:	f000 f9bb 	bl	80051c8 <LOG>
 8004e52:	e7b3      	b.n	8004dbc <USBH_CtlReq+0xec>
 8004e54:	2307      	movs	r3, #7
 8004e56:	7723      	strb	r3, [r4, #28]
 8004e58:	2501      	movs	r5, #1
 8004e5a:	e759      	b.n	8004d10 <USBH_CtlReq+0x40>
 8004e5c:	8b63      	ldrh	r3, [r4, #26]
 8004e5e:	7d22      	ldrb	r2, [r4, #20]
 8004e60:	2b00      	cmp	r3, #0
 8004e62:	d0e6      	beq.n	8004e32 <USBH_CtlReq+0x162>
 8004e64:	0612      	lsls	r2, r2, #24
 8004e66:	d407      	bmi.n	8004e78 <USBH_CtlReq+0x1a8>
 8004e68:	2305      	movs	r3, #5
 8004e6a:	7723      	strb	r3, [r4, #28]
 8004e6c:	2501      	movs	r5, #1
 8004e6e:	e74f      	b.n	8004d10 <USBH_CtlReq+0x40>
 8004e70:	230c      	movs	r3, #12
 8004e72:	7723      	strb	r3, [r4, #28]
 8004e74:	2503      	movs	r5, #3
 8004e76:	e74b      	b.n	8004d10 <USBH_CtlReq+0x40>
 8004e78:	2303      	movs	r3, #3
 8004e7a:	7723      	strb	r3, [r4, #28]
 8004e7c:	e748      	b.n	8004d10 <USBH_CtlReq+0x40>
 8004e7e:	bf00      	nop
 8004e80:	08006c80 	.word	0x08006c80
 8004e84:	08006c70 	.word	0x08006c70

08004e88 <USBH_CtlSendSetup>:
 8004e88:	b510      	push	{r4, lr}
 8004e8a:	460b      	mov	r3, r1
 8004e8c:	b084      	sub	sp, #16
 8004e8e:	2400      	movs	r4, #0
 8004e90:	4611      	mov	r1, r2
 8004e92:	2208      	movs	r2, #8
 8004e94:	e9cd 2402 	strd	r2, r4, [sp, #8]
 8004e98:	e9cd 4300 	strd	r4, r3, [sp]
 8004e9c:	4622      	mov	r2, r4
 8004e9e:	4623      	mov	r3, r4
 8004ea0:	f000 fcd0 	bl	8005844 <USBH_LL_SubmitURB>
 8004ea4:	4620      	mov	r0, r4
 8004ea6:	b004      	add	sp, #16
 8004ea8:	bd10      	pop	{r4, pc}
 8004eaa:	bf00      	nop

08004eac <USBH_CtlSendData>:
 8004eac:	b510      	push	{r4, lr}
 8004eae:	b084      	sub	sp, #16
 8004eb0:	f890 4225 	ldrb.w	r4, [r0, #549]	; 0x225
 8004eb4:	9101      	str	r1, [sp, #4]
 8004eb6:	2c00      	cmp	r4, #0
 8004eb8:	4619      	mov	r1, r3
 8004eba:	f04f 0401 	mov.w	r4, #1
 8004ebe:	f04f 0300 	mov.w	r3, #0
 8004ec2:	9400      	str	r4, [sp, #0]
 8004ec4:	f89d 4018 	ldrb.w	r4, [sp, #24]
 8004ec8:	9202      	str	r2, [sp, #8]
 8004eca:	bf18      	it	ne
 8004ecc:	461c      	movne	r4, r3
 8004ece:	461a      	mov	r2, r3
 8004ed0:	9403      	str	r4, [sp, #12]
 8004ed2:	f000 fcb7 	bl	8005844 <USBH_LL_SubmitURB>
 8004ed6:	2000      	movs	r0, #0
 8004ed8:	b004      	add	sp, #16
 8004eda:	bd10      	pop	{r4, pc}

08004edc <USBH_CtlReceiveData>:
 8004edc:	b510      	push	{r4, lr}
 8004ede:	2400      	movs	r4, #0
 8004ee0:	b084      	sub	sp, #16
 8004ee2:	e9cd 2402 	strd	r2, r4, [sp, #8]
 8004ee6:	2201      	movs	r2, #1
 8004ee8:	e9cd 2100 	strd	r2, r1, [sp]
 8004eec:	4619      	mov	r1, r3
 8004eee:	4623      	mov	r3, r4
 8004ef0:	f000 fca8 	bl	8005844 <USBH_LL_SubmitURB>
 8004ef4:	4620      	mov	r0, r4
 8004ef6:	b004      	add	sp, #16
 8004ef8:	bd10      	pop	{r4, pc}
 8004efa:	bf00      	nop

08004efc <USBH_InterruptReceiveData>:
 8004efc:	b510      	push	{r4, lr}
 8004efe:	2400      	movs	r4, #0
 8004f00:	b084      	sub	sp, #16
 8004f02:	e9cd 2402 	strd	r2, r4, [sp, #8]
 8004f06:	2201      	movs	r2, #1
 8004f08:	e9cd 2100 	strd	r2, r1, [sp]
 8004f0c:	4619      	mov	r1, r3
 8004f0e:	2303      	movs	r3, #3
 8004f10:	f000 fc98 	bl	8005844 <USBH_LL_SubmitURB>
 8004f14:	4620      	mov	r0, r4
 8004f16:	b004      	add	sp, #16
 8004f18:	bd10      	pop	{r4, pc}
 8004f1a:	bf00      	nop

08004f1c <USBH_OpenPipe>:
 8004f1c:	b510      	push	{r4, lr}
 8004f1e:	b084      	sub	sp, #16
 8004f20:	f89d 4018 	ldrb.w	r4, [sp, #24]
 8004f24:	9400      	str	r4, [sp, #0]
 8004f26:	f89d 401c 	ldrb.w	r4, [sp, #28]
 8004f2a:	9401      	str	r4, [sp, #4]
 8004f2c:	f8bd 4020 	ldrh.w	r4, [sp, #32]
 8004f30:	9402      	str	r4, [sp, #8]
 8004f32:	f000 fc6d 	bl	8005810 <USBH_LL_OpenPipe>
 8004f36:	2000      	movs	r0, #0
 8004f38:	b004      	add	sp, #16
 8004f3a:	bd10      	pop	{r4, pc}

08004f3c <USBH_ClosePipe>:
 8004f3c:	b508      	push	{r3, lr}
 8004f3e:	f000 fc79 	bl	8005834 <USBH_LL_ClosePipe>
 8004f42:	2000      	movs	r0, #0
 8004f44:	bd08      	pop	{r3, pc}
 8004f46:	bf00      	nop

08004f48 <USBH_AllocPipe>:
 8004f48:	b5f8      	push	{r3, r4, r5, r6, r7, lr}
 8004f4a:	f8d0 32c4 	ldr.w	r3, [r0, #708]	; 0x2c4
 8004f4e:	681a      	ldr	r2, [r3, #0]
 8004f50:	f412 4500 	ands.w	r5, r2, #32768	; 0x8000
 8004f54:	4607      	mov	r7, r0
 8004f56:	460c      	mov	r4, r1
 8004f58:	d035      	beq.n	8004fc6 <USBH_AllocPipe+0x7e>
 8004f5a:	685a      	ldr	r2, [r3, #4]
 8004f5c:	0410      	lsls	r0, r2, #16
 8004f5e:	d53f      	bpl.n	8004fe0 <USBH_AllocPipe+0x98>
 8004f60:	689a      	ldr	r2, [r3, #8]
 8004f62:	0411      	lsls	r1, r2, #16
 8004f64:	d542      	bpl.n	8004fec <USBH_AllocPipe+0xa4>
 8004f66:	68da      	ldr	r2, [r3, #12]
 8004f68:	0412      	lsls	r2, r2, #16
 8004f6a:	d542      	bpl.n	8004ff2 <USBH_AllocPipe+0xaa>
 8004f6c:	691a      	ldr	r2, [r3, #16]
 8004f6e:	0416      	lsls	r6, r2, #16
 8004f70:	d542      	bpl.n	8004ff8 <USBH_AllocPipe+0xb0>
 8004f72:	695a      	ldr	r2, [r3, #20]
 8004f74:	0415      	lsls	r5, r2, #16
 8004f76:	d542      	bpl.n	8004ffe <USBH_AllocPipe+0xb6>
 8004f78:	699a      	ldr	r2, [r3, #24]
 8004f7a:	0410      	lsls	r0, r2, #16
 8004f7c:	d542      	bpl.n	8005004 <USBH_AllocPipe+0xbc>
 8004f7e:	69da      	ldr	r2, [r3, #28]
 8004f80:	0411      	lsls	r1, r2, #16
 8004f82:	d542      	bpl.n	800500a <USBH_AllocPipe+0xc2>
 8004f84:	6a1a      	ldr	r2, [r3, #32]
 8004f86:	0412      	lsls	r2, r2, #16
 8004f88:	d542      	bpl.n	8005010 <USBH_AllocPipe+0xc8>
 8004f8a:	6a5a      	ldr	r2, [r3, #36]	; 0x24
 8004f8c:	0416      	lsls	r6, r2, #16
 8004f8e:	d542      	bpl.n	8005016 <USBH_AllocPipe+0xce>
 8004f90:	6a9a      	ldr	r2, [r3, #40]	; 0x28
 8004f92:	0415      	lsls	r5, r2, #16
 8004f94:	d542      	bpl.n	800501c <USBH_AllocPipe+0xd4>
 8004f96:	6ada      	ldr	r2, [r3, #44]	; 0x2c
 8004f98:	0410      	lsls	r0, r2, #16
 8004f9a:	d542      	bpl.n	8005022 <USBH_AllocPipe+0xda>
 8004f9c:	6b1a      	ldr	r2, [r3, #48]	; 0x30
 8004f9e:	0411      	lsls	r1, r2, #16
 8004fa0:	d521      	bpl.n	8004fe6 <USBH_AllocPipe+0x9e>
 8004fa2:	6b5a      	ldr	r2, [r3, #52]	; 0x34
 8004fa4:	0412      	lsls	r2, r2, #16
 8004fa6:	d53f      	bpl.n	8005028 <USBH_AllocPipe+0xe0>
 8004fa8:	6b9b      	ldr	r3, [r3, #56]	; 0x38
 8004faa:	041b      	lsls	r3, r3, #16
 8004fac:	d53f      	bpl.n	800502e <USBH_AllocPipe+0xe6>
 8004fae:	4821      	ldr	r0, [pc, #132]	; (8005034 <USBH_AllocPipe+0xec>)
 8004fb0:	f000 f90a 	bl	80051c8 <LOG>
 8004fb4:	26ff      	movs	r6, #255	; 0xff
 8004fb6:	4820      	ldr	r0, [pc, #128]	; (8005038 <USBH_AllocPipe+0xf0>)
 8004fb8:	f64f 72ff 	movw	r2, #65535	; 0xffff
 8004fbc:	4621      	mov	r1, r4
 8004fbe:	f000 f903 	bl	80051c8 <LOG>
 8004fc2:	4630      	mov	r0, r6
 8004fc4:	bdf8      	pop	{r3, r4, r5, r6, r7, pc}
 8004fc6:	462e      	mov	r6, r5
 8004fc8:	4621      	mov	r1, r4
 8004fca:	481b      	ldr	r0, [pc, #108]	; (8005038 <USBH_AllocPipe+0xf0>)
 8004fcc:	4632      	mov	r2, r6
 8004fce:	f000 f8fb 	bl	80051c8 <LOG>
 8004fd2:	f8d7 32c4 	ldr.w	r3, [r7, #708]	; 0x2c4
 8004fd6:	f444 4400 	orr.w	r4, r4, #32768	; 0x8000
 8004fda:	515c      	str	r4, [r3, r5]
 8004fdc:	4630      	mov	r0, r6
 8004fde:	bdf8      	pop	{r3, r4, r5, r6, r7, pc}
 8004fe0:	2601      	movs	r6, #1
 8004fe2:	2504      	movs	r5, #4
 8004fe4:	e7f0      	b.n	8004fc8 <USBH_AllocPipe+0x80>
 8004fe6:	260c      	movs	r6, #12
 8004fe8:	2530      	movs	r5, #48	; 0x30
 8004fea:	e7ed      	b.n	8004fc8 <USBH_AllocPipe+0x80>
 8004fec:	2602      	movs	r6, #2
 8004fee:	2508      	movs	r5, #8
 8004ff0:	e7ea      	b.n	8004fc8 <USBH_AllocPipe+0x80>
 8004ff2:	2603      	movs	r6, #3
 8004ff4:	250c      	movs	r5, #12
 8004ff6:	e7e7      	b.n	8004fc8 <USBH_AllocPipe+0x80>
 8004ff8:	2604      	movs	r6, #4
 8004ffa:	2510      	movs	r5, #16
 8004ffc:	e7e4      	b.n	8004fc8 <USBH_AllocPipe+0x80>
 8004ffe:	2605      	movs	r6, #5
 8005000:	2514      	movs	r5, #20
 8005002:	e7e1      	b.n	8004fc8 <USBH_AllocPipe+0x80>
 8005004:	2606      	movs	r6, #6
 8005006:	2518      	movs	r5, #24
 8005008:	e7de      	b.n	8004fc8 <USBH_AllocPipe+0x80>
 800500a:	2607      	movs	r6, #7
 800500c:	251c      	movs	r5, #28
 800500e:	e7db      	b.n	8004fc8 <USBH_AllocPipe+0x80>
 8005010:	2608      	movs	r6, #8
 8005012:	2520      	movs	r5, #32
 8005014:	e7d8      	b.n	8004fc8 <USBH_AllocPipe+0x80>
 8005016:	2609      	movs	r6, #9
 8005018:	2524      	movs	r5, #36	; 0x24
 800501a:	e7d5      	b.n	8004fc8 <USBH_AllocPipe+0x80>
 800501c:	260a      	movs	r6, #10
 800501e:	2528      	movs	r5, #40	; 0x28
 8005020:	e7d2      	b.n	8004fc8 <USBH_AllocPipe+0x80>
 8005022:	260b      	movs	r6, #11
 8005024:	252c      	movs	r5, #44	; 0x2c
 8005026:	e7cf      	b.n	8004fc8 <USBH_AllocPipe+0x80>
 8005028:	260d      	movs	r6, #13
 800502a:	2534      	movs	r5, #52	; 0x34
 800502c:	e7cc      	b.n	8004fc8 <USBH_AllocPipe+0x80>
 800502e:	260e      	movs	r6, #14
 8005030:	2538      	movs	r5, #56	; 0x38
 8005032:	e7c9      	b.n	8004fc8 <USBH_AllocPipe+0x80>
 8005034:	08006d60 	.word	0x08006d60
 8005038:	08006d48 	.word	0x08006d48

0800503c <USBH_FreePipe>:
 800503c:	290e      	cmp	r1, #14
 800503e:	d808      	bhi.n	8005052 <USBH_FreePipe+0x16>
 8005040:	f8d0 22c4 	ldr.w	r2, [r0, #708]	; 0x2c4
 8005044:	b209      	sxth	r1, r1
 8005046:	f852 3021 	ldr.w	r3, [r2, r1, lsl #2]
 800504a:	f3c3 030e 	ubfx	r3, r3, #0, #15
 800504e:	f842 3021 	str.w	r3, [r2, r1, lsl #2]
 8005052:	2000      	movs	r0, #0
 8005054:	4770      	bx	lr
 8005056:	bf00      	nop

08005058 <BSP_LED_Init>:
 8005058:	b530      	push	{r4, r5, lr}
 800505a:	4604      	mov	r4, r0
 800505c:	b089      	sub	sp, #36	; 0x24
 800505e:	b950      	cbnz	r0, 8005076 <BSP_LED_Init+0x1e>
 8005060:	4b10      	ldr	r3, [pc, #64]	; (80050a4 <BSP_LED_Init+0x4c>)
 8005062:	9001      	str	r0, [sp, #4]
 8005064:	6b1a      	ldr	r2, [r3, #48]	; 0x30
 8005066:	f042 0210 	orr.w	r2, r2, #16
 800506a:	631a      	str	r2, [r3, #48]	; 0x30
 800506c:	6b1b      	ldr	r3, [r3, #48]	; 0x30
 800506e:	f003 0310 	and.w	r3, r3, #16
 8005072:	9301      	str	r3, [sp, #4]
 8005074:	9b01      	ldr	r3, [sp, #4]
 8005076:	4d0c      	ldr	r5, [pc, #48]	; (80050a8 <BSP_LED_Init+0x50>)
 8005078:	2201      	movs	r2, #1
 800507a:	2301      	movs	r3, #1
 800507c:	e9cd 2302 	strd	r2, r3, [sp, #8]
 8005080:	f855 0024 	ldr.w	r0, [r5, r4, lsl #2]
 8005084:	2302      	movs	r3, #2
 8005086:	a902      	add	r1, sp, #8
 8005088:	2201      	movs	r2, #1
 800508a:	e9cd 2304 	strd	r2, r3, [sp, #16]
 800508e:	f7fb f9cd 	bl	800042c <HAL_GPIO_Init>
 8005092:	f855 0024 	ldr.w	r0, [r5, r4, lsl #2]
 8005096:	2200      	movs	r2, #0
 8005098:	2101      	movs	r1, #1
 800509a:	f7fb fb03 	bl	80006a4 <HAL_GPIO_WritePin>
 800509e:	b009      	add	sp, #36	; 0x24
 80050a0:	bd30      	pop	{r4, r5, pc}
 80050a2:	bf00      	nop
 80050a4:	40023800 	.word	0x40023800
 80050a8:	20000044 	.word	0x20000044

080050ac <BSP_LED_On>:
 80050ac:	4b03      	ldr	r3, [pc, #12]	; (80050bc <BSP_LED_On+0x10>)
 80050ae:	2201      	movs	r2, #1
 80050b0:	f853 0020 	ldr.w	r0, [r3, r0, lsl #2]
 80050b4:	4611      	mov	r1, r2
 80050b6:	f7fb baf5 	b.w	80006a4 <HAL_GPIO_WritePin>
 80050ba:	bf00      	nop
 80050bc:	20000044 	.word	0x20000044

080050c0 <BSP_LED_Off>:
 80050c0:	4b03      	ldr	r3, [pc, #12]	; (80050d0 <BSP_LED_Off+0x10>)
 80050c2:	2200      	movs	r2, #0
 80050c4:	f853 0020 	ldr.w	r0, [r3, r0, lsl #2]
 80050c8:	2101      	movs	r1, #1
 80050ca:	f7fb baeb 	b.w	80006a4 <HAL_GPIO_WritePin>
 80050ce:	bf00      	nop
 80050d0:	20000044 	.word	0x20000044

080050d4 <BSP_UART_Init>:
 80050d4:	b510      	push	{r4, lr}
 80050d6:	b08a      	sub	sp, #40	; 0x28
 80050d8:	4b1c      	ldr	r3, [pc, #112]	; (800514c <BSP_UART_Init+0x78>)
 80050da:	481d      	ldr	r0, [pc, #116]	; (8005150 <BSP_UART_Init+0x7c>)
 80050dc:	2200      	movs	r2, #0
 80050de:	9201      	str	r2, [sp, #4]
 80050e0:	6b19      	ldr	r1, [r3, #48]	; 0x30
 80050e2:	f041 0101 	orr.w	r1, r1, #1
 80050e6:	6319      	str	r1, [r3, #48]	; 0x30
 80050e8:	6b19      	ldr	r1, [r3, #48]	; 0x30
 80050ea:	f001 0101 	and.w	r1, r1, #1
 80050ee:	9101      	str	r1, [sp, #4]
 80050f0:	9901      	ldr	r1, [sp, #4]
 80050f2:	9202      	str	r2, [sp, #8]
 80050f4:	6b19      	ldr	r1, [r3, #48]	; 0x30
 80050f6:	f041 0101 	orr.w	r1, r1, #1
 80050fa:	6319      	str	r1, [r3, #48]	; 0x30
 80050fc:	6b19      	ldr	r1, [r3, #48]	; 0x30
 80050fe:	f001 0101 	and.w	r1, r1, #1
 8005102:	9102      	str	r1, [sp, #8]
 8005104:	9902      	ldr	r1, [sp, #8]
 8005106:	9203      	str	r2, [sp, #12]
 8005108:	6c5a      	ldr	r2, [r3, #68]	; 0x44
 800510a:	f042 0210 	orr.w	r2, r2, #16
 800510e:	645a      	str	r2, [r3, #68]	; 0x44
 8005110:	6c5b      	ldr	r3, [r3, #68]	; 0x44
 8005112:	f003 0310 	and.w	r3, r3, #16
 8005116:	9303      	str	r3, [sp, #12]
 8005118:	f44f 7200 	mov.w	r2, #512	; 0x200
 800511c:	2302      	movs	r3, #2
 800511e:	e9cd 2304 	strd	r2, r3, [sp, #16]
 8005122:	2407      	movs	r4, #7
 8005124:	2200      	movs	r2, #0
 8005126:	9b03      	ldr	r3, [sp, #12]
 8005128:	9408      	str	r4, [sp, #32]
 800512a:	a904      	add	r1, sp, #16
 800512c:	2302      	movs	r3, #2
 800512e:	e9cd 2306 	strd	r2, r3, [sp, #24]
 8005132:	f7fb f97b 	bl	800042c <HAL_GPIO_Init>
 8005136:	f44f 6380 	mov.w	r3, #1024	; 0x400
 800513a:	4805      	ldr	r0, [pc, #20]	; (8005150 <BSP_UART_Init+0x7c>)
 800513c:	9304      	str	r3, [sp, #16]
 800513e:	a904      	add	r1, sp, #16
 8005140:	9408      	str	r4, [sp, #32]
 8005142:	f7fb f973 	bl	800042c <HAL_GPIO_Init>
 8005146:	b00a      	add	sp, #40	; 0x28
 8005148:	bd10      	pop	{r4, pc}
 800514a:	bf00      	nop
 800514c:	40023800 	.word	0x40023800
 8005150:	40020000 	.word	0x40020000

08005154 <LOG1.constprop.0>:
 8005154:	b40f      	push	{r0, r1, r2, r3}
 8005156:	b500      	push	{lr}
 8005158:	b0c1      	sub	sp, #260	; 0x104
 800515a:	2100      	movs	r1, #0
 800515c:	22f6      	movs	r2, #246	; 0xf6
 800515e:	a802      	add	r0, sp, #8
 8005160:	9101      	str	r1, [sp, #4]
 8005162:	f000 fc8f 	bl	8005a84 <memset>
 8005166:	aa43      	add	r2, sp, #268	; 0x10c
 8005168:	4909      	ldr	r1, [pc, #36]	; (8005190 <LOG1.constprop.0+0x3c>)
 800516a:	9200      	str	r2, [sp, #0]
 800516c:	a801      	add	r0, sp, #4
 800516e:	f000 fdad 	bl	8005ccc <vsiprintf>
 8005172:	a801      	add	r0, sp, #4
 8005174:	f7fb f82c 	bl	80001d0 <strlen>
 8005178:	4602      	mov	r2, r0
 800517a:	230a      	movs	r3, #10
 800517c:	b292      	uxth	r2, r2
 800517e:	a901      	add	r1, sp, #4
 8005180:	4804      	ldr	r0, [pc, #16]	; (8005194 <LOG1.constprop.0+0x40>)
 8005182:	f7fc fbf7 	bl	8001974 <HAL_UART_Transmit>
 8005186:	b041      	add	sp, #260	; 0x104
 8005188:	f85d eb04 	ldr.w	lr, [sp], #4
 800518c:	b004      	add	sp, #16
 800518e:	4770      	bx	lr
 8005190:	08006d78 	.word	0x08006d78
 8005194:	20000134 	.word	0x20000134

08005198 <LOG_INIT>:
 8005198:	4b0a      	ldr	r3, [pc, #40]	; (80051c4 <LOG_INIT+0x2c>)
 800519a:	b510      	push	{r4, lr}
 800519c:	2200      	movs	r2, #0
 800519e:	e9c3 0100 	strd	r0, r1, [r3]
 80051a2:	240c      	movs	r4, #12
 80051a4:	f44f 4100 	mov.w	r1, #32768	; 0x8000
 80051a8:	4618      	mov	r0, r3
 80051aa:	e9c3 2202 	strd	r2, r2, [r3, #8]
 80051ae:	e9c3 4205 	strd	r4, r2, [r3, #20]
 80051b2:	611a      	str	r2, [r3, #16]
 80051b4:	61d9      	str	r1, [r3, #28]
 80051b6:	f7fc fbad 	bl	8001914 <HAL_UART_Init>
 80051ba:	fab0 f080 	clz	r0, r0
 80051be:	0940      	lsrs	r0, r0, #5
 80051c0:	bd10      	pop	{r4, pc}
 80051c2:	bf00      	nop
 80051c4:	20000134 	.word	0x20000134

080051c8 <LOG>:
 80051c8:	b40f      	push	{r0, r1, r2, r3}
 80051ca:	b530      	push	{r4, r5, lr}
 80051cc:	b0c1      	sub	sp, #260	; 0x104
 80051ce:	ac44      	add	r4, sp, #272	; 0x110
 80051d0:	2100      	movs	r1, #0
 80051d2:	f854 5b04 	ldr.w	r5, [r4], #4
 80051d6:	9101      	str	r1, [sp, #4]
 80051d8:	22f6      	movs	r2, #246	; 0xf6
 80051da:	a802      	add	r0, sp, #8
 80051dc:	f000 fc52 	bl	8005a84 <memset>
 80051e0:	4622      	mov	r2, r4
 80051e2:	4629      	mov	r1, r5
 80051e4:	a801      	add	r0, sp, #4
 80051e6:	9400      	str	r4, [sp, #0]
 80051e8:	f000 fd70 	bl	8005ccc <vsiprintf>
 80051ec:	a801      	add	r0, sp, #4
 80051ee:	f7fa ffef 	bl	80001d0 <strlen>
 80051f2:	4c09      	ldr	r4, [pc, #36]	; (8005218 <LOG+0x50>)
 80051f4:	b282      	uxth	r2, r0
 80051f6:	a901      	add	r1, sp, #4
 80051f8:	230a      	movs	r3, #10
 80051fa:	4620      	mov	r0, r4
 80051fc:	f7fc fbba 	bl	8001974 <HAL_UART_Transmit>
 8005200:	4906      	ldr	r1, [pc, #24]	; (800521c <LOG+0x54>)
 8005202:	230a      	movs	r3, #10
 8005204:	2202      	movs	r2, #2
 8005206:	4620      	mov	r0, r4
 8005208:	f7fc fbb4 	bl	8001974 <HAL_UART_Transmit>
 800520c:	b041      	add	sp, #260	; 0x104
 800520e:	e8bd 4030 	ldmia.w	sp!, {r4, r5, lr}
 8005212:	b004      	add	sp, #16
 8005214:	4770      	bx	lr
 8005216:	bf00      	nop
 8005218:	20000134 	.word	0x20000134
 800521c:	08006d80 	.word	0x08006d80

08005220 <LOG_ARRAY>:
 8005220:	2900      	cmp	r1, #0
 8005222:	b570      	push	{r4, r5, r6, lr}
 8005224:	dd0b      	ble.n	800523e <LOG_ARRAY+0x1e>
 8005226:	4605      	mov	r5, r0
 8005228:	3901      	subs	r1, #1
 800522a:	4e09      	ldr	r6, [pc, #36]	; (8005250 <LOG_ARRAY+0x30>)
 800522c:	1e44      	subs	r4, r0, #1
 800522e:	440d      	add	r5, r1
 8005230:	f814 1f01 	ldrb.w	r1, [r4, #1]!
 8005234:	4630      	mov	r0, r6
 8005236:	f7ff ff8d 	bl	8005154 <LOG1.constprop.0>
 800523a:	42ac      	cmp	r4, r5
 800523c:	d1f8      	bne.n	8005230 <LOG_ARRAY+0x10>
 800523e:	e8bd 4070 	ldmia.w	sp!, {r4, r5, r6, lr}
 8005242:	4904      	ldr	r1, [pc, #16]	; (8005254 <LOG_ARRAY+0x34>)
 8005244:	4804      	ldr	r0, [pc, #16]	; (8005258 <LOG_ARRAY+0x38>)
 8005246:	230a      	movs	r3, #10
 8005248:	2202      	movs	r2, #2
 800524a:	f7fc bb93 	b.w	8001974 <HAL_UART_Transmit>
 800524e:	bf00      	nop
 8005250:	08006d78 	.word	0x08006d78
 8005254:	08006d80 	.word	0x08006d80
 8005258:	20000134 	.word	0x20000134

0800525c <USBH_UserProcess>:
 800525c:	4770      	bx	lr
 800525e:	bf00      	nop

08005260 <main>:
 8005260:	e92d 47f0 	stmdb	sp!, {r4, r5, r6, r7, r8, r9, sl, lr}
 8005264:	b094      	sub	sp, #80	; 0x50
 8005266:	f7fb f825 	bl	80002b4 <HAL_Init>
 800526a:	4a7b      	ldr	r2, [pc, #492]	; (8005458 <main+0x1f8>)
 800526c:	4b7b      	ldr	r3, [pc, #492]	; (800545c <main+0x1fc>)
 800526e:	2000      	movs	r0, #0
 8005270:	9000      	str	r0, [sp, #0]
 8005272:	6c11      	ldr	r1, [r2, #64]	; 0x40
 8005274:	f041 5180 	orr.w	r1, r1, #268435456	; 0x10000000
 8005278:	6411      	str	r1, [r2, #64]	; 0x40
 800527a:	6c12      	ldr	r2, [r2, #64]	; 0x40
 800527c:	f002 5280 	and.w	r2, r2, #268435456	; 0x10000000
 8005280:	9200      	str	r2, [sp, #0]
 8005282:	9a00      	ldr	r2, [sp, #0]
 8005284:	9001      	str	r0, [sp, #4]
 8005286:	681a      	ldr	r2, [r3, #0]
 8005288:	f442 4280 	orr.w	r2, r2, #16384	; 0x4000
 800528c:	601a      	str	r2, [r3, #0]
 800528e:	681b      	ldr	r3, [r3, #0]
 8005290:	f403 4380 	and.w	r3, r3, #16384	; 0x4000
 8005294:	2102      	movs	r1, #2
 8005296:	9301      	str	r3, [sp, #4]
 8005298:	f44f 0380 	mov.w	r3, #4194304	; 0x400000
 800529c:	e9cd 130e 	strd	r1, r3, [sp, #56]	; 0x38
 80052a0:	9a01      	ldr	r2, [sp, #4]
 80052a2:	2601      	movs	r6, #1
 80052a4:	2701      	movs	r7, #1
 80052a6:	2408      	movs	r4, #8
 80052a8:	f44f 72a8 	mov.w	r2, #336	; 0x150
 80052ac:	2307      	movs	r3, #7
 80052ae:	a808      	add	r0, sp, #32
 80052b0:	e9cd 6708 	strd	r6, r7, [sp, #32]
 80052b4:	e9cd 4210 	strd	r4, r2, [sp, #64]	; 0x40
 80052b8:	e9cd 1312 	strd	r1, r3, [sp, #72]	; 0x48
 80052bc:	f7fb ff0e 	bl	80010dc <HAL_RCC_OscConfig>
 80052c0:	2800      	cmp	r0, #0
 80052c2:	f040 80bb 	bne.w	800543c <main+0x1dc>
 80052c6:	200f      	movs	r0, #15
 80052c8:	2102      	movs	r1, #2
 80052ca:	e9cd 0102 	strd	r0, r1, [sp, #8]
 80052ce:	2400      	movs	r4, #0
 80052d0:	f44f 55a0 	mov.w	r5, #5120	; 0x1400
 80052d4:	f44f 5380 	mov.w	r3, #4096	; 0x1000
 80052d8:	2105      	movs	r1, #5
 80052da:	a802      	add	r0, sp, #8
 80052dc:	e9cd 4504 	strd	r4, r5, [sp, #16]
 80052e0:	9306      	str	r3, [sp, #24]
 80052e2:	f7fc f8a1 	bl	8001428 <HAL_RCC_ClockConfig>
 80052e6:	2800      	cmp	r0, #0
 80052e8:	f040 80ae 	bne.w	8005448 <main+0x1e8>
 80052ec:	2000      	movs	r0, #0
 80052ee:	f7ff feb3 	bl	8005058 <BSP_LED_Init>
 80052f2:	f7ff feef 	bl	80050d4 <BSP_UART_Init>
 80052f6:	f44f 31e1 	mov.w	r1, #115200	; 0x1c200
 80052fa:	4859      	ldr	r0, [pc, #356]	; (8005460 <main+0x200>)
 80052fc:	4c59      	ldr	r4, [pc, #356]	; (8005464 <main+0x204>)
 80052fe:	4e5a      	ldr	r6, [pc, #360]	; (8005468 <main+0x208>)
 8005300:	4f5a      	ldr	r7, [pc, #360]	; (800546c <main+0x20c>)
 8005302:	f8df 9190 	ldr.w	r9, [pc, #400]	; 8005494 <main+0x234>
 8005306:	f8df 8190 	ldr.w	r8, [pc, #400]	; 8005498 <main+0x238>
 800530a:	f7ff ff45 	bl	8005198 <LOG_INIT>
 800530e:	4858      	ldr	r0, [pc, #352]	; (8005470 <main+0x210>)
 8005310:	f7ff ff5a 	bl	80051c8 <LOG>
 8005314:	4857      	ldr	r0, [pc, #348]	; (8005474 <main+0x214>)
 8005316:	f7ff ff57 	bl	80051c8 <LOG>
 800531a:	4857      	ldr	r0, [pc, #348]	; (8005478 <main+0x218>)
 800531c:	f7ff ff54 	bl	80051c8 <LOG>
 8005320:	4b56      	ldr	r3, [pc, #344]	; (800547c <main+0x21c>)
 8005322:	4857      	ldr	r0, [pc, #348]	; (8005480 <main+0x220>)
 8005324:	6819      	ldr	r1, [r3, #0]
 8005326:	f7ff ff4f 	bl	80051c8 <LOG>
 800532a:	2100      	movs	r1, #0
 800532c:	f44f 723b 	mov.w	r2, #748	; 0x2ec
 8005330:	4620      	mov	r0, r4
 8005332:	f000 fba7 	bl	8005a84 <memset>
 8005336:	2201      	movs	r2, #1
 8005338:	2305      	movs	r3, #5
 800533a:	f884 22d8 	strb.w	r2, [r4, #728]	; 0x2d8
 800533e:	f884 32db 	strb.w	r3, [r4, #731]	; 0x2db
 8005342:	203c      	movs	r0, #60	; 0x3c
 8005344:	f000 fb8e 	bl	8005a64 <malloc>
 8005348:	4603      	mov	r3, r0
 800534a:	2200      	movs	r2, #0
 800534c:	f8c4 32c4 	str.w	r3, [r4, #708]	; 0x2c4
 8005350:	494c      	ldr	r1, [pc, #304]	; (8005484 <main+0x224>)
 8005352:	4620      	mov	r0, r4
 8005354:	f7fe fa76 	bl	8003844 <USBH_Init>
 8005358:	494b      	ldr	r1, [pc, #300]	; (8005488 <main+0x228>)
 800535a:	4620      	mov	r0, r4
 800535c:	f7fe faa6 	bl	80038ac <USBH_RegisterClass>
 8005360:	494a      	ldr	r1, [pc, #296]	; (800548c <main+0x22c>)
 8005362:	4620      	mov	r0, r4
 8005364:	f7fe faa2 	bl	80038ac <USBH_RegisterClass>
 8005368:	4620      	mov	r0, r4
 800536a:	f7fe fb99 	bl	8003aa0 <USBH_Start>
 800536e:	2500      	movs	r5, #0
 8005370:	42bd      	cmp	r5, r7
 8005372:	d93b      	bls.n	80053ec <main+0x18c>
 8005374:	2500      	movs	r5, #0
 8005376:	2000      	movs	r0, #0
 8005378:	f7ff fea2 	bl	80050c0 <BSP_LED_Off>
 800537c:	f8d4 0e9c 	ldr.w	r0, [r4, #3740]	; 0xe9c
 8005380:	b118      	cbz	r0, 800538a <main+0x12a>
 8005382:	f890 32d8 	ldrb.w	r3, [r0, #728]	; 0x2d8
 8005386:	2b01      	cmp	r3, #1
 8005388:	d044      	beq.n	8005414 <main+0x1b4>
 800538a:	7833      	ldrb	r3, [r6, #0]
 800538c:	f44f 713b 	mov.w	r1, #748	; 0x2ec
 8005390:	3301      	adds	r3, #1
 8005392:	b2db      	uxtb	r3, r3
 8005394:	2b04      	cmp	r3, #4
 8005396:	fb01 4203 	mla	r2, r1, r3, r4
 800539a:	d832      	bhi.n	8005402 <main+0x1a2>
 800539c:	f892 22d8 	ldrb.w	r2, [r2, #728]	; 0x2d8
 80053a0:	4618      	mov	r0, r3
 80053a2:	2a00      	cmp	r2, #0
 80053a4:	d0f4      	beq.n	8005390 <main+0x130>
 80053a6:	f44f 723b 	mov.w	r2, #748	; 0x2ec
 80053aa:	fb02 4000 	mla	r0, r2, r0, r4
 80053ae:	7033      	strb	r3, [r6, #0]
 80053b0:	f8c4 0e9c 	str.w	r0, [r4, #3740]	; 0xe9c
 80053b4:	f000 fac0 	bl	8005938 <USBH_LL_SetupEP0>
 80053b8:	f8d4 0e9c 	ldr.w	r0, [r4, #3740]	; 0xe9c
 80053bc:	f890 32d8 	ldrb.w	r3, [r0, #728]	; 0x2d8
 80053c0:	2b03      	cmp	r3, #3
 80053c2:	d104      	bne.n	80053ce <main+0x16e>
 80053c4:	2301      	movs	r3, #1
 80053c6:	f880 32d8 	strb.w	r3, [r0, #728]	; 0x2d8
 80053ca:	f880 32d9 	strb.w	r3, [r0, #729]	; 0x2d9
 80053ce:	f890 32d8 	ldrb.w	r3, [r0, #728]	; 0x2d8
 80053d2:	2b00      	cmp	r3, #0
 80053d4:	d0cc      	beq.n	8005370 <main+0x110>
 80053d6:	f7fd fe35 	bl	8003044 <USBH_HID_GetMouseInfo>
 80053da:	b320      	cbz	r0, 8005426 <main+0x1c6>
 80053dc:	7843      	ldrb	r3, [r0, #1]
 80053de:	7802      	ldrb	r2, [r0, #0]
 80053e0:	7881      	ldrb	r1, [r0, #2]
 80053e2:	4640      	mov	r0, r8
 80053e4:	f7ff fef0 	bl	80051c8 <LOG>
 80053e8:	42bd      	cmp	r5, r7
 80053ea:	d8c3      	bhi.n	8005374 <main+0x114>
 80053ec:	f246 13a7 	movw	r3, #24999	; 0x61a7
 80053f0:	429d      	cmp	r5, r3
 80053f2:	f105 0a01 	add.w	sl, r5, #1
 80053f6:	d82d      	bhi.n	8005454 <main+0x1f4>
 80053f8:	2000      	movs	r0, #0
 80053fa:	f7ff fe57 	bl	80050ac <BSP_LED_On>
 80053fe:	4655      	mov	r5, sl
 8005400:	e7bc      	b.n	800537c <main+0x11c>
 8005402:	f894 22d8 	ldrb.w	r2, [r4, #728]	; 0x2d8
 8005406:	f002 03ff 	and.w	r3, r2, #255	; 0xff
 800540a:	2a00      	cmp	r2, #0
 800540c:	d0c0      	beq.n	8005390 <main+0x130>
 800540e:	2300      	movs	r3, #0
 8005410:	4618      	mov	r0, r3
 8005412:	e7c8      	b.n	80053a6 <main+0x146>
 8005414:	f7fe fb4e 	bl	8003ab4 <USBH_Process>
 8005418:	f8d4 3e9c 	ldr.w	r3, [r4, #3740]	; 0xe9c
 800541c:	f893 32d9 	ldrb.w	r3, [r3, #729]	; 0x2d9
 8005420:	2b00      	cmp	r3, #0
 8005422:	d0b2      	beq.n	800538a <main+0x12a>
 8005424:	e7a4      	b.n	8005370 <main+0x110>
 8005426:	f8d4 0e9c 	ldr.w	r0, [r4, #3740]	; 0xe9c
 800542a:	f7fd fd7d 	bl	8002f28 <USBH_HID_GetKeybdInfo>
 800542e:	2800      	cmp	r0, #0
 8005430:	d09e      	beq.n	8005370 <main+0x110>
 8005432:	7a41      	ldrb	r1, [r0, #9]
 8005434:	4648      	mov	r0, r9
 8005436:	f7ff fec7 	bl	80051c8 <LOG>
 800543a:	e799      	b.n	8005370 <main+0x110>
 800543c:	4814      	ldr	r0, [pc, #80]	; (8005490 <main+0x230>)
 800543e:	f44f 41c0 	mov.w	r1, #24576	; 0x6000
 8005442:	f7fb f933 	bl	80006ac <HAL_GPIO_TogglePin>
 8005446:	e73e      	b.n	80052c6 <main+0x66>
 8005448:	4811      	ldr	r0, [pc, #68]	; (8005490 <main+0x230>)
 800544a:	f44f 41c0 	mov.w	r1, #24576	; 0x6000
 800544e:	f7fb f92d 	bl	80006ac <HAL_GPIO_TogglePin>
 8005452:	e74b      	b.n	80052ec <main+0x8c>
 8005454:	4655      	mov	r5, sl
 8005456:	e78e      	b.n	8005376 <main+0x116>
 8005458:	40023800 	.word	0x40023800
 800545c:	40007000 	.word	0x40007000
 8005460:	40011000 	.word	0x40011000
 8005464:	20000174 	.word	0x20000174
 8005468:	20000048 	.word	0x20000048
 800546c:	000249f0 	.word	0x000249f0
 8005470:	08006d84 	.word	0x08006d84
 8005474:	08006d7c 	.word	0x08006d7c
 8005478:	08006d8c 	.word	0x08006d8c
 800547c:	e0042000 	.word	0xe0042000
 8005480:	08006d9c 	.word	0x08006d9c
 8005484:	0800525d 	.word	0x0800525d
 8005488:	20000000 	.word	0x20000000
 800548c:	20000024 	.word	0x20000024
 8005490:	40020c00 	.word	0x40020c00
 8005494:	08006dc0 	.word	0x08006dc0
 8005498:	08006da8 	.word	0x08006da8

0800549c <SysTick_Handler>:
 800549c:	b508      	push	{r3, lr}
 800549e:	f7fa ff1f 	bl	80002e0 <HAL_IncTick>
 80054a2:	e8bd 4008 	ldmia.w	sp!, {r3, lr}
 80054a6:	f7fa bfbd 	b.w	8000424 <HAL_SYSTICK_IRQHandler>
 80054aa:	bf00      	nop

080054ac <OTG_FS_IRQHandler>:
 80054ac:	b508      	push	{r3, lr}
 80054ae:	2043      	movs	r0, #67	; 0x43
 80054b0:	f7fa ffa8 	bl	8000404 <HAL_NVIC_ClearPendingIRQ>
 80054b4:	4804      	ldr	r0, [pc, #16]	; (80054c8 <OTG_FS_IRQHandler+0x1c>)
 80054b6:	6803      	ldr	r3, [r0, #0]
 80054b8:	f1b3 4fa0 	cmp.w	r3, #1342177280	; 0x50000000
 80054bc:	d000      	beq.n	80054c0 <OTG_FS_IRQHandler+0x14>
 80054be:	bd08      	pop	{r3, pc}
 80054c0:	e8bd 4008 	ldmia.w	sp!, {r3, lr}
 80054c4:	f7fb ba0e 	b.w	80008e4 <HAL_HCD_IRQHandler>
 80054c8:	20001020 	.word	0x20001020

080054cc <OTG_HS_IRQHandler>:
 80054cc:	b508      	push	{r3, lr}
 80054ce:	204d      	movs	r0, #77	; 0x4d
 80054d0:	f7fa ff98 	bl	8000404 <HAL_NVIC_ClearPendingIRQ>
 80054d4:	4806      	ldr	r0, [pc, #24]	; (80054f0 <OTG_HS_IRQHandler+0x24>)
 80054d6:	4b07      	ldr	r3, [pc, #28]	; (80054f4 <OTG_HS_IRQHandler+0x28>)
 80054d8:	f8d0 2298 	ldr.w	r2, [r0, #664]	; 0x298
 80054dc:	429a      	cmp	r2, r3
 80054de:	d000      	beq.n	80054e2 <OTG_HS_IRQHandler+0x16>
 80054e0:	bd08      	pop	{r3, pc}
 80054e2:	e8bd 4008 	ldmia.w	sp!, {r3, lr}
 80054e6:	f500 7026 	add.w	r0, r0, #664	; 0x298
 80054ea:	f7fb b9fb 	b.w	80008e4 <HAL_HCD_IRQHandler>
 80054ee:	bf00      	nop
 80054f0:	20001020 	.word	0x20001020
 80054f4:	40040000 	.word	0x40040000

080054f8 <_sbrk>:
 80054f8:	4a0b      	ldr	r2, [pc, #44]	; (8005528 <_sbrk+0x30>)
 80054fa:	b508      	push	{r3, lr}
 80054fc:	4603      	mov	r3, r0
 80054fe:	6810      	ldr	r0, [r2, #0]
 8005500:	b128      	cbz	r0, 800550e <_sbrk+0x16>
 8005502:	4403      	add	r3, r0
 8005504:	4669      	mov	r1, sp
 8005506:	428b      	cmp	r3, r1
 8005508:	d807      	bhi.n	800551a <_sbrk+0x22>
 800550a:	6013      	str	r3, [r2, #0]
 800550c:	bd08      	pop	{r3, pc}
 800550e:	4807      	ldr	r0, [pc, #28]	; (800552c <_sbrk+0x34>)
 8005510:	6010      	str	r0, [r2, #0]
 8005512:	4403      	add	r3, r0
 8005514:	4669      	mov	r1, sp
 8005516:	428b      	cmp	r3, r1
 8005518:	d9f7      	bls.n	800550a <_sbrk+0x12>
 800551a:	f000 fa79 	bl	8005a10 <__errno>
 800551e:	230c      	movs	r3, #12
 8005520:	6003      	str	r3, [r0, #0]
 8005522:	f04f 30ff 	mov.w	r0, #4294967295	; 0xffffffff
 8005526:	bd08      	pop	{r3, pc}
 8005528:	20001014 	.word	0x20001014
 800552c:	20001560 	.word	0x20001560

08005530 <SystemInit>:
 8005530:	4910      	ldr	r1, [pc, #64]	; (8005574 <SystemInit+0x44>)
 8005532:	4b11      	ldr	r3, [pc, #68]	; (8005578 <SystemInit+0x48>)
 8005534:	f8d1 2088 	ldr.w	r2, [r1, #136]	; 0x88
 8005538:	f442 0270 	orr.w	r2, r2, #15728640	; 0xf00000
 800553c:	b410      	push	{r4}
 800553e:	f8c1 2088 	str.w	r2, [r1, #136]	; 0x88
 8005542:	681a      	ldr	r2, [r3, #0]
 8005544:	4c0d      	ldr	r4, [pc, #52]	; (800557c <SystemInit+0x4c>)
 8005546:	2000      	movs	r0, #0
 8005548:	f042 0201 	orr.w	r2, r2, #1
 800554c:	601a      	str	r2, [r3, #0]
 800554e:	6098      	str	r0, [r3, #8]
 8005550:	681a      	ldr	r2, [r3, #0]
 8005552:	f022 7284 	bic.w	r2, r2, #17301504	; 0x1080000
 8005556:	f422 3280 	bic.w	r2, r2, #65536	; 0x10000
 800555a:	601a      	str	r2, [r3, #0]
 800555c:	605c      	str	r4, [r3, #4]
 800555e:	681a      	ldr	r2, [r3, #0]
 8005560:	f04f 6400 	mov.w	r4, #134217728	; 0x8000000
 8005564:	f422 2280 	bic.w	r2, r2, #262144	; 0x40000
 8005568:	601a      	str	r2, [r3, #0]
 800556a:	60d8      	str	r0, [r3, #12]
 800556c:	608c      	str	r4, [r1, #8]
 800556e:	f85d 4b04 	ldr.w	r4, [sp], #4
 8005572:	4770      	bx	lr
 8005574:	e000ed00 	.word	0xe000ed00
 8005578:	40023800 	.word	0x40023800
 800557c:	24003010 	.word	0x24003010

08005580 <HAL_HCD_MspInit>:
 8005580:	b530      	push	{r4, r5, lr}
 8005582:	4604      	mov	r4, r0
 8005584:	b08d      	sub	sp, #52	; 0x34
 8005586:	4842      	ldr	r0, [pc, #264]	; (8005690 <HAL_HCD_MspInit+0x110>)
 8005588:	f7ff fe1e 	bl	80051c8 <LOG>
 800558c:	6823      	ldr	r3, [r4, #0]
 800558e:	4a41      	ldr	r2, [pc, #260]	; (8005694 <HAL_HCD_MspInit+0x114>)
 8005590:	4293      	cmp	r3, r2
 8005592:	d004      	beq.n	800559e <HAL_HCD_MspInit+0x1e>
 8005594:	f1b3 4fa0 	cmp.w	r3, #1342177280	; 0x50000000
 8005598:	d030      	beq.n	80055fc <HAL_HCD_MspInit+0x7c>
 800559a:	b00d      	add	sp, #52	; 0x34
 800559c:	bd30      	pop	{r4, r5, pc}
 800559e:	4c3e      	ldr	r4, [pc, #248]	; (8005698 <HAL_HCD_MspInit+0x118>)
 80055a0:	483e      	ldr	r0, [pc, #248]	; (800569c <HAL_HCD_MspInit+0x11c>)
 80055a2:	2500      	movs	r5, #0
 80055a4:	9501      	str	r5, [sp, #4]
 80055a6:	6b23      	ldr	r3, [r4, #48]	; 0x30
 80055a8:	f043 0302 	orr.w	r3, r3, #2
 80055ac:	6323      	str	r3, [r4, #48]	; 0x30
 80055ae:	6b23      	ldr	r3, [r4, #48]	; 0x30
 80055b0:	f003 0302 	and.w	r3, r3, #2
 80055b4:	9301      	str	r3, [sp, #4]
 80055b6:	f44f 4240 	mov.w	r2, #49152	; 0xc000
 80055ba:	2302      	movs	r3, #2
 80055bc:	e9cd 2306 	strd	r2, r3, [sp, #24]
 80055c0:	2200      	movs	r2, #0
 80055c2:	2303      	movs	r3, #3
 80055c4:	e9cd 2308 	strd	r2, r3, [sp, #32]
 80055c8:	a906      	add	r1, sp, #24
 80055ca:	230c      	movs	r3, #12
 80055cc:	9a01      	ldr	r2, [sp, #4]
 80055ce:	930a      	str	r3, [sp, #40]	; 0x28
 80055d0:	f7fa ff2c 	bl	800042c <HAL_GPIO_Init>
 80055d4:	9502      	str	r5, [sp, #8]
 80055d6:	6b23      	ldr	r3, [r4, #48]	; 0x30
 80055d8:	f043 5300 	orr.w	r3, r3, #536870912	; 0x20000000
 80055dc:	6323      	str	r3, [r4, #48]	; 0x30
 80055de:	6b23      	ldr	r3, [r4, #48]	; 0x30
 80055e0:	f003 5300 	and.w	r3, r3, #536870912	; 0x20000000
 80055e4:	462a      	mov	r2, r5
 80055e6:	2101      	movs	r1, #1
 80055e8:	9302      	str	r3, [sp, #8]
 80055ea:	204d      	movs	r0, #77	; 0x4d
 80055ec:	9b02      	ldr	r3, [sp, #8]
 80055ee:	f7fa fea5 	bl	800033c <HAL_NVIC_SetPriority>
 80055f2:	204d      	movs	r0, #77	; 0x4d
 80055f4:	f7fa fee0 	bl	80003b8 <HAL_NVIC_EnableIRQ>
 80055f8:	b00d      	add	sp, #52	; 0x34
 80055fa:	bd30      	pop	{r4, r5, pc}
 80055fc:	4c26      	ldr	r4, [pc, #152]	; (8005698 <HAL_HCD_MspInit+0x118>)
 80055fe:	4828      	ldr	r0, [pc, #160]	; (80056a0 <HAL_HCD_MspInit+0x120>)
 8005600:	2500      	movs	r5, #0
 8005602:	9503      	str	r5, [sp, #12]
 8005604:	6b23      	ldr	r3, [r4, #48]	; 0x30
 8005606:	f043 0301 	orr.w	r3, r3, #1
 800560a:	6323      	str	r3, [r4, #48]	; 0x30
 800560c:	6b23      	ldr	r3, [r4, #48]	; 0x30
 800560e:	f003 0301 	and.w	r3, r3, #1
 8005612:	9303      	str	r3, [sp, #12]
 8005614:	9b03      	ldr	r3, [sp, #12]
 8005616:	9504      	str	r5, [sp, #16]
 8005618:	6b23      	ldr	r3, [r4, #48]	; 0x30
 800561a:	f043 0304 	orr.w	r3, r3, #4
 800561e:	6323      	str	r3, [r4, #48]	; 0x30
 8005620:	6b23      	ldr	r3, [r4, #48]	; 0x30
 8005622:	f003 0304 	and.w	r3, r3, #4
 8005626:	9304      	str	r3, [sp, #16]
 8005628:	f44f 52c0 	mov.w	r2, #6144	; 0x1800
 800562c:	2302      	movs	r3, #2
 800562e:	e9cd 2306 	strd	r2, r3, [sp, #24]
 8005632:	2200      	movs	r2, #0
 8005634:	2303      	movs	r3, #3
 8005636:	e9cd 2308 	strd	r2, r3, [sp, #32]
 800563a:	a906      	add	r1, sp, #24
 800563c:	230a      	movs	r3, #10
 800563e:	930a      	str	r3, [sp, #40]	; 0x28
 8005640:	9b04      	ldr	r3, [sp, #16]
 8005642:	f7fa fef3 	bl	800042c <HAL_GPIO_Init>
 8005646:	2201      	movs	r2, #1
 8005648:	2301      	movs	r3, #1
 800564a:	e9cd 2306 	strd	r2, r3, [sp, #24]
 800564e:	a906      	add	r1, sp, #24
 8005650:	2200      	movs	r2, #0
 8005652:	2300      	movs	r3, #0
 8005654:	4813      	ldr	r0, [pc, #76]	; (80056a4 <HAL_HCD_MspInit+0x124>)
 8005656:	e9cd 2308 	strd	r2, r3, [sp, #32]
 800565a:	f7fa fee7 	bl	800042c <HAL_GPIO_Init>
 800565e:	6b63      	ldr	r3, [r4, #52]	; 0x34
 8005660:	f043 0380 	orr.w	r3, r3, #128	; 0x80
 8005664:	6363      	str	r3, [r4, #52]	; 0x34
 8005666:	9505      	str	r5, [sp, #20]
 8005668:	6c63      	ldr	r3, [r4, #68]	; 0x44
 800566a:	f443 4380 	orr.w	r3, r3, #16384	; 0x4000
 800566e:	6463      	str	r3, [r4, #68]	; 0x44
 8005670:	6c63      	ldr	r3, [r4, #68]	; 0x44
 8005672:	f403 4380 	and.w	r3, r3, #16384	; 0x4000
 8005676:	462a      	mov	r2, r5
 8005678:	2103      	movs	r1, #3
 800567a:	9305      	str	r3, [sp, #20]
 800567c:	2043      	movs	r0, #67	; 0x43
 800567e:	9b05      	ldr	r3, [sp, #20]
 8005680:	f7fa fe5c 	bl	800033c <HAL_NVIC_SetPriority>
 8005684:	2043      	movs	r0, #67	; 0x43
 8005686:	f7fa fe97 	bl	80003b8 <HAL_NVIC_EnableIRQ>
 800568a:	b00d      	add	sp, #52	; 0x34
 800568c:	bd30      	pop	{r4, r5, pc}
 800568e:	bf00      	nop
 8005690:	08006dc8 	.word	0x08006dc8
 8005694:	40040000 	.word	0x40040000
 8005698:	40023800 	.word	0x40023800
 800569c:	40020400 	.word	0x40020400
 80056a0:	40020000 	.word	0x40020000
 80056a4:	40020800 	.word	0x40020800

080056a8 <HAL_HCD_SOF_Callback>:
 80056a8:	b510      	push	{r4, lr}
 80056aa:	4c19      	ldr	r4, [pc, #100]	; (8005710 <HAL_HCD_SOF_Callback+0x68>)
 80056ac:	f894 32d8 	ldrb.w	r3, [r4, #728]	; 0x2d8
 80056b0:	b963      	cbnz	r3, 80056cc <HAL_HCD_SOF_Callback+0x24>
 80056b2:	f894 35c4 	ldrb.w	r3, [r4, #1476]	; 0x5c4
 80056b6:	b983      	cbnz	r3, 80056da <HAL_HCD_SOF_Callback+0x32>
 80056b8:	f894 38b0 	ldrb.w	r3, [r4, #2224]	; 0x8b0
 80056bc:	b9a3      	cbnz	r3, 80056e8 <HAL_HCD_SOF_Callback+0x40>
 80056be:	f894 3b9c 	ldrb.w	r3, [r4, #2972]	; 0xb9c
 80056c2:	b9c3      	cbnz	r3, 80056f6 <HAL_HCD_SOF_Callback+0x4e>
 80056c4:	f894 3e88 	ldrb.w	r3, [r4, #3720]	; 0xe88
 80056c8:	b9e3      	cbnz	r3, 8005704 <HAL_HCD_SOF_Callback+0x5c>
 80056ca:	bd10      	pop	{r4, pc}
 80056cc:	4620      	mov	r0, r4
 80056ce:	f7fe fc89 	bl	8003fe4 <USBH_LL_IncTimer>
 80056d2:	f894 35c4 	ldrb.w	r3, [r4, #1476]	; 0x5c4
 80056d6:	2b00      	cmp	r3, #0
 80056d8:	d0ee      	beq.n	80056b8 <HAL_HCD_SOF_Callback+0x10>
 80056da:	480e      	ldr	r0, [pc, #56]	; (8005714 <HAL_HCD_SOF_Callback+0x6c>)
 80056dc:	f7fe fc82 	bl	8003fe4 <USBH_LL_IncTimer>
 80056e0:	f894 38b0 	ldrb.w	r3, [r4, #2224]	; 0x8b0
 80056e4:	2b00      	cmp	r3, #0
 80056e6:	d0ea      	beq.n	80056be <HAL_HCD_SOF_Callback+0x16>
 80056e8:	480b      	ldr	r0, [pc, #44]	; (8005718 <HAL_HCD_SOF_Callback+0x70>)
 80056ea:	f7fe fc7b 	bl	8003fe4 <USBH_LL_IncTimer>
 80056ee:	f894 3b9c 	ldrb.w	r3, [r4, #2972]	; 0xb9c
 80056f2:	2b00      	cmp	r3, #0
 80056f4:	d0e6      	beq.n	80056c4 <HAL_HCD_SOF_Callback+0x1c>
 80056f6:	4809      	ldr	r0, [pc, #36]	; (800571c <HAL_HCD_SOF_Callback+0x74>)
 80056f8:	f7fe fc74 	bl	8003fe4 <USBH_LL_IncTimer>
 80056fc:	f894 3e88 	ldrb.w	r3, [r4, #3720]	; 0xe88
 8005700:	2b00      	cmp	r3, #0
 8005702:	d0e2      	beq.n	80056ca <HAL_HCD_SOF_Callback+0x22>
 8005704:	e8bd 4010 	ldmia.w	sp!, {r4, lr}
 8005708:	4805      	ldr	r0, [pc, #20]	; (8005720 <HAL_HCD_SOF_Callback+0x78>)
 800570a:	f7fe bc6b 	b.w	8003fe4 <USBH_LL_IncTimer>
 800570e:	bf00      	nop
 8005710:	20000174 	.word	0x20000174
 8005714:	20000460 	.word	0x20000460
 8005718:	2000074c 	.word	0x2000074c
 800571c:	20000a38 	.word	0x20000a38
 8005720:	20000d24 	.word	0x20000d24

08005724 <HAL_HCD_Connect_Callback>:
 8005724:	f8d0 0294 	ldr.w	r0, [r0, #660]	; 0x294
 8005728:	f7fe bc6c 	b.w	8004004 <USBH_LL_Connect>

0800572c <HAL_HCD_Disconnect_Callback>:
 800572c:	f8d0 0294 	ldr.w	r0, [r0, #660]	; 0x294
 8005730:	f7fe bc84 	b.w	800403c <USBH_LL_Disconnect>

08005734 <HAL_HCD_HC_NotifyURBChange_Callback>:
 8005734:	4770      	bx	lr
 8005736:	bf00      	nop

08005738 <USBH_LL_Init>:
 8005738:	b570      	push	{r4, r5, r6, lr}
 800573a:	2200      	movs	r2, #0
 800573c:	4605      	mov	r5, r0
 800573e:	4611      	mov	r1, r2
 8005740:	f04f 30ff 	mov.w	r0, #4294967295	; 0xffffffff
 8005744:	f7fa fdfa 	bl	800033c <HAL_NVIC_SetPriority>
 8005748:	f895 12cc 	ldrb.w	r1, [r5, #716]	; 0x2cc
 800574c:	4b14      	ldr	r3, [pc, #80]	; (80057a0 <USBH_LL_Init+0x68>)
 800574e:	f44f 7226 	mov.w	r2, #664	; 0x298
 8005752:	2900      	cmp	r1, #0
 8005754:	fb01 f202 	mul.w	r2, r1, r2
 8005758:	4912      	ldr	r1, [pc, #72]	; (80057a4 <USBH_LL_Init+0x6c>)
 800575a:	bf08      	it	eq
 800575c:	f04f 41a0 	moveq.w	r1, #1342177280	; 0x50000000
 8005760:	189c      	adds	r4, r3, r2
 8005762:	5099      	str	r1, [r3, r2]
 8005764:	220b      	movs	r2, #11
 8005766:	2303      	movs	r3, #3
 8005768:	e9c4 2302 	strd	r2, r3, [r4, #8]
 800576c:	2600      	movs	r6, #0
 800576e:	2301      	movs	r3, #1
 8005770:	2100      	movs	r1, #0
 8005772:	2002      	movs	r0, #2
 8005774:	e9c4 0106 	strd	r0, r1, [r4, #24]
 8005778:	62e3      	str	r3, [r4, #44]	; 0x2c
 800577a:	6126      	str	r6, [r4, #16]
 800577c:	6226      	str	r6, [r4, #32]
 800577e:	f8c4 5294 	str.w	r5, [r4, #660]	; 0x294
 8005782:	4620      	mov	r0, r4
 8005784:	f8c5 42d0 	str.w	r4, [r5, #720]	; 0x2d0
 8005788:	f7fa ffde 	bl	8000748 <HAL_HCD_Init>
 800578c:	4620      	mov	r0, r4
 800578e:	f7fb fc9d 	bl	80010cc <HAL_HCD_GetCurrentFrame>
 8005792:	4601      	mov	r1, r0
 8005794:	4628      	mov	r0, r5
 8005796:	f7fe fc21 	bl	8003fdc <USBH_LL_SetTimer>
 800579a:	4630      	mov	r0, r6
 800579c:	bd70      	pop	{r4, r5, r6, pc}
 800579e:	bf00      	nop
 80057a0:	20001020 	.word	0x20001020
 80057a4:	40040000 	.word	0x40040000

080057a8 <USBH_LL_Start>:
 80057a8:	b508      	push	{r3, lr}
 80057aa:	f8d0 02d0 	ldr.w	r0, [r0, #720]	; 0x2d0
 80057ae:	f7fb fc47 	bl	8001040 <HAL_HCD_Start>
 80057b2:	2000      	movs	r0, #0
 80057b4:	bd08      	pop	{r3, pc}
 80057b6:	bf00      	nop

080057b8 <USBH_LL_Stop>:
 80057b8:	b508      	push	{r3, lr}
 80057ba:	f8d0 02d0 	ldr.w	r0, [r0, #720]	; 0x2d0
 80057be:	f7fb fc55 	bl	800106c <HAL_HCD_Stop>
 80057c2:	2000      	movs	r0, #0
 80057c4:	bd08      	pop	{r3, pc}
 80057c6:	bf00      	nop

080057c8 <USBH_LL_StopHC>:
 80057c8:	b508      	push	{r3, lr}
 80057ca:	f8d0 02d0 	ldr.w	r0, [r0, #720]	; 0x2d0
 80057ce:	f7fb fc5f 	bl	8001090 <HAL_HCD_StopHC>
 80057d2:	2000      	movs	r0, #0
 80057d4:	bd08      	pop	{r3, pc}
 80057d6:	bf00      	nop

080057d8 <USBH_LL_GetSpeed>:
 80057d8:	b510      	push	{r4, lr}
 80057da:	f8d0 02d0 	ldr.w	r0, [r0, #720]	; 0x2d0
 80057de:	f7fb fc79 	bl	80010d4 <HAL_HCD_GetCurrentSpeed>
 80057e2:	2802      	cmp	r0, #2
 80057e4:	bf96      	itet	ls
 80057e6:	4601      	movls	r1, r0
 80057e8:	2401      	movhi	r4, #1
 80057ea:	b2cc      	uxtbls	r4, r1
 80057ec:	4803      	ldr	r0, [pc, #12]	; (80057fc <USBH_LL_GetSpeed+0x24>)
 80057ee:	bf88      	it	hi
 80057f0:	4621      	movhi	r1, r4
 80057f2:	f7ff fce9 	bl	80051c8 <LOG>
 80057f6:	4620      	mov	r0, r4
 80057f8:	bd10      	pop	{r4, pc}
 80057fa:	bf00      	nop
 80057fc:	08006dd8 	.word	0x08006dd8

08005800 <USBH_LL_ResetPort>:
 8005800:	b508      	push	{r3, lr}
 8005802:	f8d0 02d0 	ldr.w	r0, [r0, #720]	; 0x2d0
 8005806:	f7fb fc55 	bl	80010b4 <HAL_HCD_ResetPort>
 800580a:	2000      	movs	r0, #0
 800580c:	bd08      	pop	{r3, pc}
 800580e:	bf00      	nop

08005810 <USBH_LL_OpenPipe>:
 8005810:	b510      	push	{r4, lr}
 8005812:	b084      	sub	sp, #16
 8005814:	f8d0 02d0 	ldr.w	r0, [r0, #720]	; 0x2d0
 8005818:	f89d 4018 	ldrb.w	r4, [sp, #24]
 800581c:	9400      	str	r4, [sp, #0]
 800581e:	f89d 401c 	ldrb.w	r4, [sp, #28]
 8005822:	9401      	str	r4, [sp, #4]
 8005824:	f8bd 4020 	ldrh.w	r4, [sp, #32]
 8005828:	9402      	str	r4, [sp, #8]
 800582a:	f7fa ff43 	bl	80006b4 <HAL_HCD_HC_Init>
 800582e:	2000      	movs	r0, #0
 8005830:	b004      	add	sp, #16
 8005832:	bd10      	pop	{r4, pc}

08005834 <USBH_LL_ClosePipe>:
 8005834:	b508      	push	{r3, lr}
 8005836:	f8d0 02d0 	ldr.w	r0, [r0, #720]	; 0x2d0
 800583a:	f7fa ff73 	bl	8000724 <HAL_HCD_HC_Halt>
 800583e:	2000      	movs	r0, #0
 8005840:	bd08      	pop	{r3, pc}
 8005842:	bf00      	nop

08005844 <USBH_LL_SubmitURB>:
 8005844:	b510      	push	{r4, lr}
 8005846:	b084      	sub	sp, #16
 8005848:	f8d0 02d0 	ldr.w	r0, [r0, #720]	; 0x2d0
 800584c:	f89d 4018 	ldrb.w	r4, [sp, #24]
 8005850:	9400      	str	r4, [sp, #0]
 8005852:	9c07      	ldr	r4, [sp, #28]
 8005854:	9401      	str	r4, [sp, #4]
 8005856:	f8bd 4020 	ldrh.w	r4, [sp, #32]
 800585a:	9402      	str	r4, [sp, #8]
 800585c:	f89d 4024 	ldrb.w	r4, [sp, #36]	; 0x24
 8005860:	9403      	str	r4, [sp, #12]
 8005862:	f7fa ffb3 	bl	80007cc <HAL_HCD_HC_SubmitRequest>
 8005866:	2000      	movs	r0, #0
 8005868:	b004      	add	sp, #16
 800586a:	bd10      	pop	{r4, pc}

0800586c <USBH_LL_GetURBState>:
 800586c:	f8d0 02d0 	ldr.w	r0, [r0, #720]	; 0x2d0
 8005870:	f7fb bc24 	b.w	80010bc <HAL_HCD_HC_GetURBState>

08005874 <USBH_LL_DriverVBUS>:
 8005874:	b508      	push	{r3, lr}
 8005876:	f890 32cc 	ldrb.w	r3, [r0, #716]	; 0x2cc
 800587a:	4a1d      	ldr	r2, [pc, #116]	; (80058f0 <USBH_LL_DriverVBUS+0x7c>)
 800587c:	f44f 7c26 	mov.w	ip, #664	; 0x298
 8005880:	fb0c f303 	mul.w	r3, ip, r3
 8005884:	58d3      	ldr	r3, [r2, r3]
 8005886:	f1b3 4fa0 	cmp.w	r3, #1342177280	; 0x50000000
 800588a:	d012      	beq.n	80058b2 <USBH_LL_DriverVBUS+0x3e>
 800588c:	4a19      	ldr	r2, [pc, #100]	; (80058f4 <USBH_LL_DriverVBUS+0x80>)
 800588e:	4293      	cmp	r3, r2
 8005890:	d004      	beq.n	800589c <USBH_LL_DriverVBUS+0x28>
 8005892:	20c8      	movs	r0, #200	; 0xc8
 8005894:	f7fa fd32 	bl	80002fc <HAL_Delay>
 8005898:	2000      	movs	r0, #0
 800589a:	bd08      	pop	{r3, pc}
 800589c:	b9f1      	cbnz	r1, 80058dc <USBH_LL_DriverVBUS+0x68>
 800589e:	460a      	mov	r2, r1
 80058a0:	4815      	ldr	r0, [pc, #84]	; (80058f8 <USBH_LL_DriverVBUS+0x84>)
 80058a2:	2101      	movs	r1, #1
 80058a4:	f7fa fefe 	bl	80006a4 <HAL_GPIO_WritePin>
 80058a8:	20c8      	movs	r0, #200	; 0xc8
 80058aa:	f7fa fd27 	bl	80002fc <HAL_Delay>
 80058ae:	2000      	movs	r0, #0
 80058b0:	bd08      	pop	{r3, pc}
 80058b2:	b949      	cbnz	r1, 80058c8 <USBH_LL_DriverVBUS+0x54>
 80058b4:	2201      	movs	r2, #1
 80058b6:	4611      	mov	r1, r2
 80058b8:	4810      	ldr	r0, [pc, #64]	; (80058fc <USBH_LL_DriverVBUS+0x88>)
 80058ba:	f7fa fef3 	bl	80006a4 <HAL_GPIO_WritePin>
 80058be:	20c8      	movs	r0, #200	; 0xc8
 80058c0:	f7fa fd1c 	bl	80002fc <HAL_Delay>
 80058c4:	2000      	movs	r0, #0
 80058c6:	bd08      	pop	{r3, pc}
 80058c8:	2200      	movs	r2, #0
 80058ca:	2101      	movs	r1, #1
 80058cc:	480b      	ldr	r0, [pc, #44]	; (80058fc <USBH_LL_DriverVBUS+0x88>)
 80058ce:	f7fa fee9 	bl	80006a4 <HAL_GPIO_WritePin>
 80058d2:	20c8      	movs	r0, #200	; 0xc8
 80058d4:	f7fa fd12 	bl	80002fc <HAL_Delay>
 80058d8:	2000      	movs	r0, #0
 80058da:	bd08      	pop	{r3, pc}
 80058dc:	2201      	movs	r2, #1
 80058de:	4611      	mov	r1, r2
 80058e0:	4805      	ldr	r0, [pc, #20]	; (80058f8 <USBH_LL_DriverVBUS+0x84>)
 80058e2:	f7fa fedf 	bl	80006a4 <HAL_GPIO_WritePin>
 80058e6:	20c8      	movs	r0, #200	; 0xc8
 80058e8:	f7fa fd08 	bl	80002fc <HAL_Delay>
 80058ec:	2000      	movs	r0, #0
 80058ee:	bd08      	pop	{r3, pc}
 80058f0:	20001020 	.word	0x20001020
 80058f4:	40040000 	.word	0x40040000
 80058f8:	40020400 	.word	0x40020400
 80058fc:	40020800 	.word	0x40020800

08005900 <USBH_LL_SetToggle>:
 8005900:	f890 32cc 	ldrb.w	r3, [r0, #716]	; 0x2cc
 8005904:	480a      	ldr	r0, [pc, #40]	; (8005930 <USBH_LL_SetToggle+0x30>)
 8005906:	f44f 7c26 	mov.w	ip, #664	; 0x298
 800590a:	eb01 0181 	add.w	r1, r1, r1, lsl #2
 800590e:	fb0c f303 	mul.w	r3, ip, r3
 8005912:	eb03 03c1 	add.w	r3, r3, r1, lsl #3
 8005916:	4403      	add	r3, r0
 8005918:	f893 103b 	ldrb.w	r1, [r3, #59]	; 0x3b
 800591c:	b119      	cbz	r1, 8005926 <USBH_LL_SetToggle+0x26>
 800591e:	f883 2050 	strb.w	r2, [r3, #80]	; 0x50
 8005922:	2000      	movs	r0, #0
 8005924:	4770      	bx	lr
 8005926:	f883 2051 	strb.w	r2, [r3, #81]	; 0x51
 800592a:	2000      	movs	r0, #0
 800592c:	4770      	bx	lr
 800592e:	bf00      	nop
 8005930:	20001020 	.word	0x20001020

08005934 <USBH_Delay>:
 8005934:	f7fa bce2 	b.w	80002fc <HAL_Delay>

08005938 <USBH_LL_SetupEP0>:
 8005938:	b530      	push	{r4, r5, lr}
 800593a:	4603      	mov	r3, r0
 800593c:	f44f 7226 	mov.w	r2, #664	; 0x298
 8005940:	f893 12cc 	ldrb.w	r1, [r3, #716]	; 0x2cc
 8005944:	4818      	ldr	r0, [pc, #96]	; (80059a8 <USBH_LL_SetupEP0+0x70>)
 8005946:	fb02 f101 	mul.w	r1, r2, r1
 800594a:	1844      	adds	r4, r0, r1
 800594c:	f894 2290 	ldrb.w	r2, [r4, #656]	; 0x290
 8005950:	2a01      	cmp	r2, #1
 8005952:	d026      	beq.n	80059a2 <USBH_LL_SetupEP0+0x6a>
 8005954:	795a      	ldrb	r2, [r3, #5]
 8005956:	f893 5224 	ldrb.w	r5, [r3, #548]	; 0x224
 800595a:	eb02 0282 	add.w	r2, r2, r2, lsl #2
 800595e:	eb01 02c2 	add.w	r2, r1, r2, lsl #3
 8005962:	4402      	add	r2, r0
 8005964:	f882 5038 	strb.w	r5, [r2, #56]	; 0x38
 8005968:	f893 e006 	ldrb.w	lr, [r3, #6]
 800596c:	f8a2 e040 	strh.w	lr, [r2, #64]	; 0x40
 8005970:	f893 c225 	ldrb.w	ip, [r3, #549]	; 0x225
 8005974:	f882 c03c 	strb.w	ip, [r2, #60]	; 0x3c
 8005978:	791a      	ldrb	r2, [r3, #4]
 800597a:	f8c4 3294 	str.w	r3, [r4, #660]	; 0x294
 800597e:	eb02 0282 	add.w	r2, r2, r2, lsl #2
 8005982:	eb01 01c2 	add.w	r1, r1, r2, lsl #3
 8005986:	4401      	add	r1, r0
 8005988:	2200      	movs	r2, #0
 800598a:	f881 5038 	strb.w	r5, [r1, #56]	; 0x38
 800598e:	f8a1 e040 	strh.w	lr, [r1, #64]	; 0x40
 8005992:	f881 c03c 	strb.w	ip, [r1, #60]	; 0x3c
 8005996:	4610      	mov	r0, r2
 8005998:	f8c3 42d0 	str.w	r4, [r3, #720]	; 0x2d0
 800599c:	f884 2290 	strb.w	r2, [r4, #656]	; 0x290
 80059a0:	bd30      	pop	{r4, r5, pc}
 80059a2:	2002      	movs	r0, #2
 80059a4:	bd30      	pop	{r4, r5, pc}
 80059a6:	bf00      	nop
 80059a8:	20001020 	.word	0x20001020

080059ac <Reset_Handler>:
 80059ac:	f8df d034 	ldr.w	sp, [pc, #52]	; 80059e4 <LoopFillZerobss+0x14>
 80059b0:	2100      	movs	r1, #0
 80059b2:	e003      	b.n	80059bc <LoopCopyDataInit>

080059b4 <CopyDataInit>:
 80059b4:	4b0c      	ldr	r3, [pc, #48]	; (80059e8 <LoopFillZerobss+0x18>)
 80059b6:	585b      	ldr	r3, [r3, r1]
 80059b8:	5043      	str	r3, [r0, r1]
 80059ba:	3104      	adds	r1, #4

080059bc <LoopCopyDataInit>:
 80059bc:	480b      	ldr	r0, [pc, #44]	; (80059ec <LoopFillZerobss+0x1c>)
 80059be:	4b0c      	ldr	r3, [pc, #48]	; (80059f0 <LoopFillZerobss+0x20>)
 80059c0:	1842      	adds	r2, r0, r1
 80059c2:	429a      	cmp	r2, r3
 80059c4:	d3f6      	bcc.n	80059b4 <CopyDataInit>
 80059c6:	4a0b      	ldr	r2, [pc, #44]	; (80059f4 <LoopFillZerobss+0x24>)
 80059c8:	e002      	b.n	80059d0 <LoopFillZerobss>

080059ca <FillZerobss>:
 80059ca:	2300      	movs	r3, #0
 80059cc:	f842 3b04 	str.w	r3, [r2], #4

080059d0 <LoopFillZerobss>:
 80059d0:	4b09      	ldr	r3, [pc, #36]	; (80059f8 <LoopFillZerobss+0x28>)
 80059d2:	429a      	cmp	r2, r3
 80059d4:	d3f9      	bcc.n	80059ca <FillZerobss>
 80059d6:	f7ff fdab 	bl	8005530 <SystemInit>
 80059da:	f000 f81f 	bl	8005a1c <__libc_init_array>
 80059de:	f7ff fc3f 	bl	8005260 <main>
 80059e2:	4770      	bx	lr
 80059e4:	20020000 	.word	0x20020000
 80059e8:	08006e50 	.word	0x08006e50
 80059ec:	20000000 	.word	0x20000000
 80059f0:	200000c4 	.word	0x200000c4
 80059f4:	200000c8 	.word	0x200000c8
 80059f8:	20001560 	.word	0x20001560

080059fc <ADC_IRQHandler>:
 80059fc:	e7fe      	b.n	80059fc <ADC_IRQHandler>
	...

08005a00 <calloc>:
 8005a00:	4b02      	ldr	r3, [pc, #8]	; (8005a0c <calloc+0xc>)
 8005a02:	460a      	mov	r2, r1
 8005a04:	4601      	mov	r1, r0
 8005a06:	6818      	ldr	r0, [r3, #0]
 8005a08:	f000 b844 	b.w	8005a94 <_calloc_r>
 8005a0c:	20000060 	.word	0x20000060

08005a10 <__errno>:
 8005a10:	4b01      	ldr	r3, [pc, #4]	; (8005a18 <__errno+0x8>)
 8005a12:	6818      	ldr	r0, [r3, #0]
 8005a14:	4770      	bx	lr
 8005a16:	bf00      	nop
 8005a18:	20000060 	.word	0x20000060

08005a1c <__libc_init_array>:
 8005a1c:	b570      	push	{r4, r5, r6, lr}
 8005a1e:	4d0d      	ldr	r5, [pc, #52]	; (8005a54 <__libc_init_array+0x38>)
 8005a20:	4c0d      	ldr	r4, [pc, #52]	; (8005a58 <__libc_init_array+0x3c>)
 8005a22:	1b64      	subs	r4, r4, r5
 8005a24:	10a4      	asrs	r4, r4, #2
 8005a26:	2600      	movs	r6, #0
 8005a28:	42a6      	cmp	r6, r4
 8005a2a:	d109      	bne.n	8005a40 <__libc_init_array+0x24>
 8005a2c:	4d0b      	ldr	r5, [pc, #44]	; (8005a5c <__libc_init_array+0x40>)
 8005a2e:	4c0c      	ldr	r4, [pc, #48]	; (8005a60 <__libc_init_array+0x44>)
 8005a30:	f001 f9fe 	bl	8006e30 <_init>
 8005a34:	1b64      	subs	r4, r4, r5
 8005a36:	10a4      	asrs	r4, r4, #2
 8005a38:	2600      	movs	r6, #0
 8005a3a:	42a6      	cmp	r6, r4
 8005a3c:	d105      	bne.n	8005a4a <__libc_init_array+0x2e>
 8005a3e:	bd70      	pop	{r4, r5, r6, pc}
 8005a40:	f855 3b04 	ldr.w	r3, [r5], #4
 8005a44:	4798      	blx	r3
 8005a46:	3601      	adds	r6, #1
 8005a48:	e7ee      	b.n	8005a28 <__libc_init_array+0xc>
 8005a4a:	f855 3b04 	ldr.w	r3, [r5], #4
 8005a4e:	4798      	blx	r3
 8005a50:	3601      	adds	r6, #1
 8005a52:	e7f2      	b.n	8005a3a <__libc_init_array+0x1e>
 8005a54:	08006e48 	.word	0x08006e48
 8005a58:	08006e48 	.word	0x08006e48
 8005a5c:	08006e48 	.word	0x08006e48
 8005a60:	08006e4c 	.word	0x08006e4c

08005a64 <malloc>:
 8005a64:	4b02      	ldr	r3, [pc, #8]	; (8005a70 <malloc+0xc>)
 8005a66:	4601      	mov	r1, r0
 8005a68:	6818      	ldr	r0, [r3, #0]
 8005a6a:	f000 b895 	b.w	8005b98 <_malloc_r>
 8005a6e:	bf00      	nop
 8005a70:	20000060 	.word	0x20000060

08005a74 <free>:
 8005a74:	4b02      	ldr	r3, [pc, #8]	; (8005a80 <free+0xc>)
 8005a76:	4601      	mov	r1, r0
 8005a78:	6818      	ldr	r0, [r3, #0]
 8005a7a:	f000 b821 	b.w	8005ac0 <_free_r>
 8005a7e:	bf00      	nop
 8005a80:	20000060 	.word	0x20000060

08005a84 <memset>:
 8005a84:	4402      	add	r2, r0
 8005a86:	4603      	mov	r3, r0
 8005a88:	4293      	cmp	r3, r2
 8005a8a:	d100      	bne.n	8005a8e <memset+0xa>
 8005a8c:	4770      	bx	lr
 8005a8e:	f803 1b01 	strb.w	r1, [r3], #1
 8005a92:	e7f9      	b.n	8005a88 <memset+0x4>

08005a94 <_calloc_r>:
 8005a94:	b537      	push	{r0, r1, r2, r4, r5, lr}
 8005a96:	fba1 2402 	umull	r2, r4, r1, r2
 8005a9a:	b94c      	cbnz	r4, 8005ab0 <_calloc_r+0x1c>
 8005a9c:	4611      	mov	r1, r2
 8005a9e:	9201      	str	r2, [sp, #4]
 8005aa0:	f000 f87a 	bl	8005b98 <_malloc_r>
 8005aa4:	9a01      	ldr	r2, [sp, #4]
 8005aa6:	4605      	mov	r5, r0
 8005aa8:	b930      	cbnz	r0, 8005ab8 <_calloc_r+0x24>
 8005aaa:	4628      	mov	r0, r5
 8005aac:	b003      	add	sp, #12
 8005aae:	bd30      	pop	{r4, r5, pc}
 8005ab0:	220c      	movs	r2, #12
 8005ab2:	6002      	str	r2, [r0, #0]
 8005ab4:	2500      	movs	r5, #0
 8005ab6:	e7f8      	b.n	8005aaa <_calloc_r+0x16>
 8005ab8:	4621      	mov	r1, r4
 8005aba:	f7ff ffe3 	bl	8005a84 <memset>
 8005abe:	e7f4      	b.n	8005aaa <_calloc_r+0x16>

08005ac0 <_free_r>:
 8005ac0:	b537      	push	{r0, r1, r2, r4, r5, lr}
 8005ac2:	2900      	cmp	r1, #0
 8005ac4:	d044      	beq.n	8005b50 <_free_r+0x90>
 8005ac6:	f851 3c04 	ldr.w	r3, [r1, #-4]
 8005aca:	9001      	str	r0, [sp, #4]
 8005acc:	2b00      	cmp	r3, #0
 8005ace:	f1a1 0404 	sub.w	r4, r1, #4
 8005ad2:	bfb8      	it	lt
 8005ad4:	18e4      	addlt	r4, r4, r3
 8005ad6:	f000 f903 	bl	8005ce0 <__malloc_lock>
 8005ada:	4a1e      	ldr	r2, [pc, #120]	; (8005b54 <_free_r+0x94>)
 8005adc:	9801      	ldr	r0, [sp, #4]
 8005ade:	6813      	ldr	r3, [r2, #0]
 8005ae0:	b933      	cbnz	r3, 8005af0 <_free_r+0x30>
 8005ae2:	6063      	str	r3, [r4, #4]
 8005ae4:	6014      	str	r4, [r2, #0]
 8005ae6:	b003      	add	sp, #12
 8005ae8:	e8bd 4030 	ldmia.w	sp!, {r4, r5, lr}
 8005aec:	f000 b8fe 	b.w	8005cec <__malloc_unlock>
 8005af0:	42a3      	cmp	r3, r4
 8005af2:	d908      	bls.n	8005b06 <_free_r+0x46>
 8005af4:	6825      	ldr	r5, [r4, #0]
 8005af6:	1961      	adds	r1, r4, r5
 8005af8:	428b      	cmp	r3, r1
 8005afa:	bf01      	itttt	eq
 8005afc:	6819      	ldreq	r1, [r3, #0]
 8005afe:	685b      	ldreq	r3, [r3, #4]
 8005b00:	1949      	addeq	r1, r1, r5
 8005b02:	6021      	streq	r1, [r4, #0]
 8005b04:	e7ed      	b.n	8005ae2 <_free_r+0x22>
 8005b06:	461a      	mov	r2, r3
 8005b08:	685b      	ldr	r3, [r3, #4]
 8005b0a:	b10b      	cbz	r3, 8005b10 <_free_r+0x50>
 8005b0c:	42a3      	cmp	r3, r4
 8005b0e:	d9fa      	bls.n	8005b06 <_free_r+0x46>
 8005b10:	6811      	ldr	r1, [r2, #0]
 8005b12:	1855      	adds	r5, r2, r1
 8005b14:	42a5      	cmp	r5, r4
 8005b16:	d10b      	bne.n	8005b30 <_free_r+0x70>
 8005b18:	6824      	ldr	r4, [r4, #0]
 8005b1a:	4421      	add	r1, r4
 8005b1c:	1854      	adds	r4, r2, r1
 8005b1e:	42a3      	cmp	r3, r4
 8005b20:	6011      	str	r1, [r2, #0]
 8005b22:	d1e0      	bne.n	8005ae6 <_free_r+0x26>
 8005b24:	681c      	ldr	r4, [r3, #0]
 8005b26:	685b      	ldr	r3, [r3, #4]
 8005b28:	6053      	str	r3, [r2, #4]
 8005b2a:	4421      	add	r1, r4
 8005b2c:	6011      	str	r1, [r2, #0]
 8005b2e:	e7da      	b.n	8005ae6 <_free_r+0x26>
 8005b30:	d902      	bls.n	8005b38 <_free_r+0x78>
 8005b32:	230c      	movs	r3, #12
 8005b34:	6003      	str	r3, [r0, #0]
 8005b36:	e7d6      	b.n	8005ae6 <_free_r+0x26>
 8005b38:	6825      	ldr	r5, [r4, #0]
 8005b3a:	1961      	adds	r1, r4, r5
 8005b3c:	428b      	cmp	r3, r1
 8005b3e:	bf04      	itt	eq
 8005b40:	6819      	ldreq	r1, [r3, #0]
 8005b42:	685b      	ldreq	r3, [r3, #4]
 8005b44:	6063      	str	r3, [r4, #4]
 8005b46:	bf04      	itt	eq
 8005b48:	1949      	addeq	r1, r1, r5
 8005b4a:	6021      	streq	r1, [r4, #0]
 8005b4c:	6054      	str	r4, [r2, #4]
 8005b4e:	e7ca      	b.n	8005ae6 <_free_r+0x26>
 8005b50:	b003      	add	sp, #12
 8005b52:	bd30      	pop	{r4, r5, pc}
 8005b54:	20001550 	.word	0x20001550

08005b58 <sbrk_aligned>:
 8005b58:	b570      	push	{r4, r5, r6, lr}
 8005b5a:	4e0e      	ldr	r6, [pc, #56]	; (8005b94 <sbrk_aligned+0x3c>)
 8005b5c:	460c      	mov	r4, r1
 8005b5e:	6831      	ldr	r1, [r6, #0]
 8005b60:	4605      	mov	r5, r0
 8005b62:	b911      	cbnz	r1, 8005b6a <sbrk_aligned+0x12>
 8005b64:	f000 f88c 	bl	8005c80 <_sbrk_r>
 8005b68:	6030      	str	r0, [r6, #0]
 8005b6a:	4621      	mov	r1, r4
 8005b6c:	4628      	mov	r0, r5
 8005b6e:	f000 f887 	bl	8005c80 <_sbrk_r>
 8005b72:	1c43      	adds	r3, r0, #1
 8005b74:	d00a      	beq.n	8005b8c <sbrk_aligned+0x34>
 8005b76:	1cc4      	adds	r4, r0, #3
 8005b78:	f024 0403 	bic.w	r4, r4, #3
 8005b7c:	42a0      	cmp	r0, r4
 8005b7e:	d007      	beq.n	8005b90 <sbrk_aligned+0x38>
 8005b80:	1a21      	subs	r1, r4, r0
 8005b82:	4628      	mov	r0, r5
 8005b84:	f000 f87c 	bl	8005c80 <_sbrk_r>
 8005b88:	3001      	adds	r0, #1
 8005b8a:	d101      	bne.n	8005b90 <sbrk_aligned+0x38>
 8005b8c:	f04f 34ff 	mov.w	r4, #4294967295	; 0xffffffff
 8005b90:	4620      	mov	r0, r4
 8005b92:	bd70      	pop	{r4, r5, r6, pc}
 8005b94:	20001554 	.word	0x20001554

08005b98 <_malloc_r>:
 8005b98:	e92d 41f0 	stmdb	sp!, {r4, r5, r6, r7, r8, lr}
 8005b9c:	1ccd      	adds	r5, r1, #3
 8005b9e:	f025 0503 	bic.w	r5, r5, #3
 8005ba2:	3508      	adds	r5, #8
 8005ba4:	2d0c      	cmp	r5, #12
 8005ba6:	bf38      	it	cc
 8005ba8:	250c      	movcc	r5, #12
 8005baa:	2d00      	cmp	r5, #0
 8005bac:	4607      	mov	r7, r0
 8005bae:	db01      	blt.n	8005bb4 <_malloc_r+0x1c>
 8005bb0:	42a9      	cmp	r1, r5
 8005bb2:	d905      	bls.n	8005bc0 <_malloc_r+0x28>
 8005bb4:	230c      	movs	r3, #12
 8005bb6:	603b      	str	r3, [r7, #0]
 8005bb8:	2600      	movs	r6, #0
 8005bba:	4630      	mov	r0, r6
 8005bbc:	e8bd 81f0 	ldmia.w	sp!, {r4, r5, r6, r7, r8, pc}
 8005bc0:	4e2e      	ldr	r6, [pc, #184]	; (8005c7c <_malloc_r+0xe4>)
 8005bc2:	f000 f88d 	bl	8005ce0 <__malloc_lock>
 8005bc6:	6833      	ldr	r3, [r6, #0]
 8005bc8:	461c      	mov	r4, r3
 8005bca:	bb34      	cbnz	r4, 8005c1a <_malloc_r+0x82>
 8005bcc:	4629      	mov	r1, r5
 8005bce:	4638      	mov	r0, r7
 8005bd0:	f7ff ffc2 	bl	8005b58 <sbrk_aligned>
 8005bd4:	1c43      	adds	r3, r0, #1
 8005bd6:	4604      	mov	r4, r0
 8005bd8:	d14d      	bne.n	8005c76 <_malloc_r+0xde>
 8005bda:	6834      	ldr	r4, [r6, #0]
 8005bdc:	4626      	mov	r6, r4
 8005bde:	2e00      	cmp	r6, #0
 8005be0:	d140      	bne.n	8005c64 <_malloc_r+0xcc>
 8005be2:	6823      	ldr	r3, [r4, #0]
 8005be4:	4631      	mov	r1, r6
 8005be6:	4638      	mov	r0, r7
 8005be8:	eb04 0803 	add.w	r8, r4, r3
 8005bec:	f000 f848 	bl	8005c80 <_sbrk_r>
 8005bf0:	4580      	cmp	r8, r0
 8005bf2:	d13a      	bne.n	8005c6a <_malloc_r+0xd2>
 8005bf4:	6821      	ldr	r1, [r4, #0]
 8005bf6:	3503      	adds	r5, #3
 8005bf8:	1a6d      	subs	r5, r5, r1
 8005bfa:	f025 0503 	bic.w	r5, r5, #3
 8005bfe:	3508      	adds	r5, #8
 8005c00:	2d0c      	cmp	r5, #12
 8005c02:	bf38      	it	cc
 8005c04:	250c      	movcc	r5, #12
 8005c06:	4629      	mov	r1, r5
 8005c08:	4638      	mov	r0, r7
 8005c0a:	f7ff ffa5 	bl	8005b58 <sbrk_aligned>
 8005c0e:	3001      	adds	r0, #1
 8005c10:	d02b      	beq.n	8005c6a <_malloc_r+0xd2>
 8005c12:	6823      	ldr	r3, [r4, #0]
 8005c14:	442b      	add	r3, r5
 8005c16:	6023      	str	r3, [r4, #0]
 8005c18:	e00e      	b.n	8005c38 <_malloc_r+0xa0>
 8005c1a:	6822      	ldr	r2, [r4, #0]
 8005c1c:	1b52      	subs	r2, r2, r5
 8005c1e:	d41e      	bmi.n	8005c5e <_malloc_r+0xc6>
 8005c20:	2a0b      	cmp	r2, #11
 8005c22:	d916      	bls.n	8005c52 <_malloc_r+0xba>
 8005c24:	1961      	adds	r1, r4, r5
 8005c26:	42a3      	cmp	r3, r4
 8005c28:	6025      	str	r5, [r4, #0]
 8005c2a:	bf18      	it	ne
 8005c2c:	6059      	strne	r1, [r3, #4]
 8005c2e:	6863      	ldr	r3, [r4, #4]
 8005c30:	bf08      	it	eq
 8005c32:	6031      	streq	r1, [r6, #0]
 8005c34:	5162      	str	r2, [r4, r5]
 8005c36:	604b      	str	r3, [r1, #4]
 8005c38:	4638      	mov	r0, r7
 8005c3a:	f104 060b 	add.w	r6, r4, #11
 8005c3e:	f000 f855 	bl	8005cec <__malloc_unlock>
 8005c42:	f026 0607 	bic.w	r6, r6, #7
 8005c46:	1d23      	adds	r3, r4, #4
 8005c48:	1af2      	subs	r2, r6, r3
 8005c4a:	d0b6      	beq.n	8005bba <_malloc_r+0x22>
 8005c4c:	1b9b      	subs	r3, r3, r6
 8005c4e:	50a3      	str	r3, [r4, r2]
 8005c50:	e7b3      	b.n	8005bba <_malloc_r+0x22>
 8005c52:	6862      	ldr	r2, [r4, #4]
 8005c54:	42a3      	cmp	r3, r4
 8005c56:	bf0c      	ite	eq
 8005c58:	6032      	streq	r2, [r6, #0]
 8005c5a:	605a      	strne	r2, [r3, #4]
 8005c5c:	e7ec      	b.n	8005c38 <_malloc_r+0xa0>
 8005c5e:	4623      	mov	r3, r4
 8005c60:	6864      	ldr	r4, [r4, #4]
 8005c62:	e7b2      	b.n	8005bca <_malloc_r+0x32>
 8005c64:	4634      	mov	r4, r6
 8005c66:	6876      	ldr	r6, [r6, #4]
 8005c68:	e7b9      	b.n	8005bde <_malloc_r+0x46>
 8005c6a:	230c      	movs	r3, #12
 8005c6c:	603b      	str	r3, [r7, #0]
 8005c6e:	4638      	mov	r0, r7
 8005c70:	f000 f83c 	bl	8005cec <__malloc_unlock>
 8005c74:	e7a1      	b.n	8005bba <_malloc_r+0x22>
 8005c76:	6025      	str	r5, [r4, #0]
 8005c78:	e7de      	b.n	8005c38 <_malloc_r+0xa0>
 8005c7a:	bf00      	nop
 8005c7c:	20001550 	.word	0x20001550

08005c80 <_sbrk_r>:
 8005c80:	b538      	push	{r3, r4, r5, lr}
 8005c82:	4d06      	ldr	r5, [pc, #24]	; (8005c9c <_sbrk_r+0x1c>)
 8005c84:	2300      	movs	r3, #0
 8005c86:	4604      	mov	r4, r0
 8005c88:	4608      	mov	r0, r1
 8005c8a:	602b      	str	r3, [r5, #0]
 8005c8c:	f7ff fc34 	bl	80054f8 <_sbrk>
 8005c90:	1c43      	adds	r3, r0, #1
 8005c92:	d102      	bne.n	8005c9a <_sbrk_r+0x1a>
 8005c94:	682b      	ldr	r3, [r5, #0]
 8005c96:	b103      	cbz	r3, 8005c9a <_sbrk_r+0x1a>
 8005c98:	6023      	str	r3, [r4, #0]
 8005c9a:	bd38      	pop	{r3, r4, r5, pc}
 8005c9c:	20001558 	.word	0x20001558

08005ca0 <_vsiprintf_r>:
 8005ca0:	b500      	push	{lr}
 8005ca2:	b09b      	sub	sp, #108	; 0x6c
 8005ca4:	9100      	str	r1, [sp, #0]
 8005ca6:	9104      	str	r1, [sp, #16]
 8005ca8:	f06f 4100 	mvn.w	r1, #2147483648	; 0x80000000
 8005cac:	9105      	str	r1, [sp, #20]
 8005cae:	9102      	str	r1, [sp, #8]
 8005cb0:	4905      	ldr	r1, [pc, #20]	; (8005cc8 <_vsiprintf_r+0x28>)
 8005cb2:	9103      	str	r1, [sp, #12]
 8005cb4:	4669      	mov	r1, sp
 8005cb6:	f000 f87b 	bl	8005db0 <_svfiprintf_r>
 8005cba:	9b00      	ldr	r3, [sp, #0]
 8005cbc:	2200      	movs	r2, #0
 8005cbe:	701a      	strb	r2, [r3, #0]
 8005cc0:	b01b      	add	sp, #108	; 0x6c
 8005cc2:	f85d fb04 	ldr.w	pc, [sp], #4
 8005cc6:	bf00      	nop
 8005cc8:	ffff0208 	.word	0xffff0208

08005ccc <vsiprintf>:
 8005ccc:	4613      	mov	r3, r2
 8005cce:	460a      	mov	r2, r1
 8005cd0:	4601      	mov	r1, r0
 8005cd2:	4802      	ldr	r0, [pc, #8]	; (8005cdc <vsiprintf+0x10>)
 8005cd4:	6800      	ldr	r0, [r0, #0]
 8005cd6:	f7ff bfe3 	b.w	8005ca0 <_vsiprintf_r>
 8005cda:	bf00      	nop
 8005cdc:	20000060 	.word	0x20000060

08005ce0 <__malloc_lock>:
 8005ce0:	4801      	ldr	r0, [pc, #4]	; (8005ce8 <__malloc_lock+0x8>)
 8005ce2:	f000 baf9 	b.w	80062d8 <__retarget_lock_acquire_recursive>
 8005ce6:	bf00      	nop
 8005ce8:	2000155c 	.word	0x2000155c

08005cec <__malloc_unlock>:
 8005cec:	4801      	ldr	r0, [pc, #4]	; (8005cf4 <__malloc_unlock+0x8>)
 8005cee:	f000 baf4 	b.w	80062da <__retarget_lock_release_recursive>
 8005cf2:	bf00      	nop
 8005cf4:	2000155c 	.word	0x2000155c

08005cf8 <__ssputs_r>:
 8005cf8:	e92d 47f0 	stmdb	sp!, {r4, r5, r6, r7, r8, r9, sl, lr}
 8005cfc:	688e      	ldr	r6, [r1, #8]
 8005cfe:	429e      	cmp	r6, r3
 8005d00:	4682      	mov	sl, r0
 8005d02:	460c      	mov	r4, r1
 8005d04:	4690      	mov	r8, r2
 8005d06:	461f      	mov	r7, r3
 8005d08:	d838      	bhi.n	8005d7c <__ssputs_r+0x84>
 8005d0a:	898a      	ldrh	r2, [r1, #12]
 8005d0c:	f412 6f90 	tst.w	r2, #1152	; 0x480
 8005d10:	d032      	beq.n	8005d78 <__ssputs_r+0x80>
 8005d12:	6825      	ldr	r5, [r4, #0]
 8005d14:	6909      	ldr	r1, [r1, #16]
 8005d16:	eba5 0901 	sub.w	r9, r5, r1
 8005d1a:	6965      	ldr	r5, [r4, #20]
 8005d1c:	eb05 0545 	add.w	r5, r5, r5, lsl #1
 8005d20:	eb05 75d5 	add.w	r5, r5, r5, lsr #31
 8005d24:	3301      	adds	r3, #1
 8005d26:	444b      	add	r3, r9
 8005d28:	106d      	asrs	r5, r5, #1
 8005d2a:	429d      	cmp	r5, r3
 8005d2c:	bf38      	it	cc
 8005d2e:	461d      	movcc	r5, r3
 8005d30:	0553      	lsls	r3, r2, #21
 8005d32:	d531      	bpl.n	8005d98 <__ssputs_r+0xa0>
 8005d34:	4629      	mov	r1, r5
 8005d36:	f7ff ff2f 	bl	8005b98 <_malloc_r>
 8005d3a:	4606      	mov	r6, r0
 8005d3c:	b950      	cbnz	r0, 8005d54 <__ssputs_r+0x5c>
 8005d3e:	230c      	movs	r3, #12
 8005d40:	f8ca 3000 	str.w	r3, [sl]
 8005d44:	89a3      	ldrh	r3, [r4, #12]
 8005d46:	f043 0340 	orr.w	r3, r3, #64	; 0x40
 8005d4a:	81a3      	strh	r3, [r4, #12]
 8005d4c:	f04f 30ff 	mov.w	r0, #4294967295	; 0xffffffff
 8005d50:	e8bd 87f0 	ldmia.w	sp!, {r4, r5, r6, r7, r8, r9, sl, pc}
 8005d54:	6921      	ldr	r1, [r4, #16]
 8005d56:	464a      	mov	r2, r9
 8005d58:	f000 fac0 	bl	80062dc <memcpy>
 8005d5c:	89a3      	ldrh	r3, [r4, #12]
 8005d5e:	f423 6390 	bic.w	r3, r3, #1152	; 0x480
 8005d62:	f043 0380 	orr.w	r3, r3, #128	; 0x80
 8005d66:	81a3      	strh	r3, [r4, #12]
 8005d68:	6126      	str	r6, [r4, #16]
 8005d6a:	6165      	str	r5, [r4, #20]
 8005d6c:	444e      	add	r6, r9
 8005d6e:	eba5 0509 	sub.w	r5, r5, r9
 8005d72:	6026      	str	r6, [r4, #0]
 8005d74:	60a5      	str	r5, [r4, #8]
 8005d76:	463e      	mov	r6, r7
 8005d78:	42be      	cmp	r6, r7
 8005d7a:	d900      	bls.n	8005d7e <__ssputs_r+0x86>
 8005d7c:	463e      	mov	r6, r7
 8005d7e:	6820      	ldr	r0, [r4, #0]
 8005d80:	4632      	mov	r2, r6
 8005d82:	4641      	mov	r1, r8
 8005d84:	f000 fab8 	bl	80062f8 <memmove>
 8005d88:	68a3      	ldr	r3, [r4, #8]
 8005d8a:	1b9b      	subs	r3, r3, r6
 8005d8c:	60a3      	str	r3, [r4, #8]
 8005d8e:	6823      	ldr	r3, [r4, #0]
 8005d90:	4433      	add	r3, r6
 8005d92:	6023      	str	r3, [r4, #0]
 8005d94:	2000      	movs	r0, #0
 8005d96:	e7db      	b.n	8005d50 <__ssputs_r+0x58>
 8005d98:	462a      	mov	r2, r5
 8005d9a:	f000 fac7 	bl	800632c <_realloc_r>
 8005d9e:	4606      	mov	r6, r0
 8005da0:	2800      	cmp	r0, #0
 8005da2:	d1e1      	bne.n	8005d68 <__ssputs_r+0x70>
 8005da4:	6921      	ldr	r1, [r4, #16]
 8005da6:	4650      	mov	r0, sl
 8005da8:	f7ff fe8a 	bl	8005ac0 <_free_r>
 8005dac:	e7c7      	b.n	8005d3e <__ssputs_r+0x46>
	...

08005db0 <_svfiprintf_r>:
 8005db0:	e92d 4ff0 	stmdb	sp!, {r4, r5, r6, r7, r8, r9, sl, fp, lr}
 8005db4:	4698      	mov	r8, r3
 8005db6:	898b      	ldrh	r3, [r1, #12]
 8005db8:	061b      	lsls	r3, r3, #24
 8005dba:	b09d      	sub	sp, #116	; 0x74
 8005dbc:	4607      	mov	r7, r0
 8005dbe:	460d      	mov	r5, r1
 8005dc0:	4614      	mov	r4, r2
 8005dc2:	d50e      	bpl.n	8005de2 <_svfiprintf_r+0x32>
 8005dc4:	690b      	ldr	r3, [r1, #16]
 8005dc6:	b963      	cbnz	r3, 8005de2 <_svfiprintf_r+0x32>
 8005dc8:	2140      	movs	r1, #64	; 0x40
 8005dca:	f7ff fee5 	bl	8005b98 <_malloc_r>
 8005dce:	6028      	str	r0, [r5, #0]
 8005dd0:	6128      	str	r0, [r5, #16]
 8005dd2:	b920      	cbnz	r0, 8005dde <_svfiprintf_r+0x2e>
 8005dd4:	230c      	movs	r3, #12
 8005dd6:	603b      	str	r3, [r7, #0]
 8005dd8:	f04f 30ff 	mov.w	r0, #4294967295	; 0xffffffff
 8005ddc:	e0d1      	b.n	8005f82 <_svfiprintf_r+0x1d2>
 8005dde:	2340      	movs	r3, #64	; 0x40
 8005de0:	616b      	str	r3, [r5, #20]
 8005de2:	2300      	movs	r3, #0
 8005de4:	9309      	str	r3, [sp, #36]	; 0x24
 8005de6:	2320      	movs	r3, #32
 8005de8:	f88d 3029 	strb.w	r3, [sp, #41]	; 0x29
 8005dec:	f8cd 800c 	str.w	r8, [sp, #12]
 8005df0:	2330      	movs	r3, #48	; 0x30
 8005df2:	f8df 81a8 	ldr.w	r8, [pc, #424]	; 8005f9c <_svfiprintf_r+0x1ec>
 8005df6:	f88d 302a 	strb.w	r3, [sp, #42]	; 0x2a
 8005dfa:	f04f 0901 	mov.w	r9, #1
 8005dfe:	4623      	mov	r3, r4
 8005e00:	469a      	mov	sl, r3
 8005e02:	f813 2b01 	ldrb.w	r2, [r3], #1
 8005e06:	b10a      	cbz	r2, 8005e0c <_svfiprintf_r+0x5c>
 8005e08:	2a25      	cmp	r2, #37	; 0x25
 8005e0a:	d1f9      	bne.n	8005e00 <_svfiprintf_r+0x50>
 8005e0c:	ebba 0b04 	subs.w	fp, sl, r4
 8005e10:	d00b      	beq.n	8005e2a <_svfiprintf_r+0x7a>
 8005e12:	465b      	mov	r3, fp
 8005e14:	4622      	mov	r2, r4
 8005e16:	4629      	mov	r1, r5
 8005e18:	4638      	mov	r0, r7
 8005e1a:	f7ff ff6d 	bl	8005cf8 <__ssputs_r>
 8005e1e:	3001      	adds	r0, #1
 8005e20:	f000 80aa 	beq.w	8005f78 <_svfiprintf_r+0x1c8>
 8005e24:	9a09      	ldr	r2, [sp, #36]	; 0x24
 8005e26:	445a      	add	r2, fp
 8005e28:	9209      	str	r2, [sp, #36]	; 0x24
 8005e2a:	f89a 3000 	ldrb.w	r3, [sl]
 8005e2e:	2b00      	cmp	r3, #0
 8005e30:	f000 80a2 	beq.w	8005f78 <_svfiprintf_r+0x1c8>
 8005e34:	2300      	movs	r3, #0
 8005e36:	f04f 32ff 	mov.w	r2, #4294967295	; 0xffffffff
 8005e3a:	e9cd 2305 	strd	r2, r3, [sp, #20]
 8005e3e:	f10a 0a01 	add.w	sl, sl, #1
 8005e42:	9304      	str	r3, [sp, #16]
 8005e44:	9307      	str	r3, [sp, #28]
 8005e46:	f88d 3053 	strb.w	r3, [sp, #83]	; 0x53
 8005e4a:	931a      	str	r3, [sp, #104]	; 0x68
 8005e4c:	4654      	mov	r4, sl
 8005e4e:	2205      	movs	r2, #5
 8005e50:	f814 1b01 	ldrb.w	r1, [r4], #1
 8005e54:	4851      	ldr	r0, [pc, #324]	; (8005f9c <_svfiprintf_r+0x1ec>)
 8005e56:	f7fa f9c3 	bl	80001e0 <memchr>
 8005e5a:	9a04      	ldr	r2, [sp, #16]
 8005e5c:	b9d8      	cbnz	r0, 8005e96 <_svfiprintf_r+0xe6>
 8005e5e:	06d0      	lsls	r0, r2, #27
 8005e60:	bf44      	itt	mi
 8005e62:	2320      	movmi	r3, #32
 8005e64:	f88d 3053 	strbmi.w	r3, [sp, #83]	; 0x53
 8005e68:	0711      	lsls	r1, r2, #28
 8005e6a:	bf44      	itt	mi
 8005e6c:	232b      	movmi	r3, #43	; 0x2b
 8005e6e:	f88d 3053 	strbmi.w	r3, [sp, #83]	; 0x53
 8005e72:	f89a 3000 	ldrb.w	r3, [sl]
 8005e76:	2b2a      	cmp	r3, #42	; 0x2a
 8005e78:	d015      	beq.n	8005ea6 <_svfiprintf_r+0xf6>
 8005e7a:	9a07      	ldr	r2, [sp, #28]
 8005e7c:	4654      	mov	r4, sl
 8005e7e:	2000      	movs	r0, #0
 8005e80:	f04f 0c0a 	mov.w	ip, #10
 8005e84:	4621      	mov	r1, r4
 8005e86:	f811 3b01 	ldrb.w	r3, [r1], #1
 8005e8a:	3b30      	subs	r3, #48	; 0x30
 8005e8c:	2b09      	cmp	r3, #9
 8005e8e:	d94e      	bls.n	8005f2e <_svfiprintf_r+0x17e>
 8005e90:	b1b0      	cbz	r0, 8005ec0 <_svfiprintf_r+0x110>
 8005e92:	9207      	str	r2, [sp, #28]
 8005e94:	e014      	b.n	8005ec0 <_svfiprintf_r+0x110>
 8005e96:	eba0 0308 	sub.w	r3, r0, r8
 8005e9a:	fa09 f303 	lsl.w	r3, r9, r3
 8005e9e:	4313      	orrs	r3, r2
 8005ea0:	9304      	str	r3, [sp, #16]
 8005ea2:	46a2      	mov	sl, r4
 8005ea4:	e7d2      	b.n	8005e4c <_svfiprintf_r+0x9c>
 8005ea6:	9b03      	ldr	r3, [sp, #12]
 8005ea8:	1d19      	adds	r1, r3, #4
 8005eaa:	681b      	ldr	r3, [r3, #0]
 8005eac:	9103      	str	r1, [sp, #12]
 8005eae:	2b00      	cmp	r3, #0
 8005eb0:	bfbb      	ittet	lt
 8005eb2:	425b      	neglt	r3, r3
 8005eb4:	f042 0202 	orrlt.w	r2, r2, #2
 8005eb8:	9307      	strge	r3, [sp, #28]
 8005eba:	9307      	strlt	r3, [sp, #28]
 8005ebc:	bfb8      	it	lt
 8005ebe:	9204      	strlt	r2, [sp, #16]
 8005ec0:	7823      	ldrb	r3, [r4, #0]
 8005ec2:	2b2e      	cmp	r3, #46	; 0x2e
 8005ec4:	d10c      	bne.n	8005ee0 <_svfiprintf_r+0x130>
 8005ec6:	7863      	ldrb	r3, [r4, #1]
 8005ec8:	2b2a      	cmp	r3, #42	; 0x2a
 8005eca:	d135      	bne.n	8005f38 <_svfiprintf_r+0x188>
 8005ecc:	9b03      	ldr	r3, [sp, #12]
 8005ece:	1d1a      	adds	r2, r3, #4
 8005ed0:	681b      	ldr	r3, [r3, #0]
 8005ed2:	9203      	str	r2, [sp, #12]
 8005ed4:	2b00      	cmp	r3, #0
 8005ed6:	bfb8      	it	lt
 8005ed8:	f04f 33ff 	movlt.w	r3, #4294967295	; 0xffffffff
 8005edc:	3402      	adds	r4, #2
 8005ede:	9305      	str	r3, [sp, #20]
 8005ee0:	f8df a0c8 	ldr.w	sl, [pc, #200]	; 8005fac <_svfiprintf_r+0x1fc>
 8005ee4:	7821      	ldrb	r1, [r4, #0]
 8005ee6:	2203      	movs	r2, #3
 8005ee8:	4650      	mov	r0, sl
 8005eea:	f7fa f979 	bl	80001e0 <memchr>
 8005eee:	b140      	cbz	r0, 8005f02 <_svfiprintf_r+0x152>
 8005ef0:	2340      	movs	r3, #64	; 0x40
 8005ef2:	eba0 000a 	sub.w	r0, r0, sl
 8005ef6:	fa03 f000 	lsl.w	r0, r3, r0
 8005efa:	9b04      	ldr	r3, [sp, #16]
 8005efc:	4303      	orrs	r3, r0
 8005efe:	3401      	adds	r4, #1
 8005f00:	9304      	str	r3, [sp, #16]
 8005f02:	f814 1b01 	ldrb.w	r1, [r4], #1
 8005f06:	4826      	ldr	r0, [pc, #152]	; (8005fa0 <_svfiprintf_r+0x1f0>)
 8005f08:	f88d 1028 	strb.w	r1, [sp, #40]	; 0x28
 8005f0c:	2206      	movs	r2, #6
 8005f0e:	f7fa f967 	bl	80001e0 <memchr>
 8005f12:	2800      	cmp	r0, #0
 8005f14:	d038      	beq.n	8005f88 <_svfiprintf_r+0x1d8>
 8005f16:	4b23      	ldr	r3, [pc, #140]	; (8005fa4 <_svfiprintf_r+0x1f4>)
 8005f18:	bb1b      	cbnz	r3, 8005f62 <_svfiprintf_r+0x1b2>
 8005f1a:	9b03      	ldr	r3, [sp, #12]
 8005f1c:	3307      	adds	r3, #7
 8005f1e:	f023 0307 	bic.w	r3, r3, #7
 8005f22:	3308      	adds	r3, #8
 8005f24:	9303      	str	r3, [sp, #12]
 8005f26:	9b09      	ldr	r3, [sp, #36]	; 0x24
 8005f28:	4433      	add	r3, r6
 8005f2a:	9309      	str	r3, [sp, #36]	; 0x24
 8005f2c:	e767      	b.n	8005dfe <_svfiprintf_r+0x4e>
 8005f2e:	fb0c 3202 	mla	r2, ip, r2, r3
 8005f32:	460c      	mov	r4, r1
 8005f34:	2001      	movs	r0, #1
 8005f36:	e7a5      	b.n	8005e84 <_svfiprintf_r+0xd4>
 8005f38:	2300      	movs	r3, #0
 8005f3a:	3401      	adds	r4, #1
 8005f3c:	9305      	str	r3, [sp, #20]
 8005f3e:	4619      	mov	r1, r3
 8005f40:	f04f 0c0a 	mov.w	ip, #10
 8005f44:	4620      	mov	r0, r4
 8005f46:	f810 2b01 	ldrb.w	r2, [r0], #1
 8005f4a:	3a30      	subs	r2, #48	; 0x30
 8005f4c:	2a09      	cmp	r2, #9
 8005f4e:	d903      	bls.n	8005f58 <_svfiprintf_r+0x1a8>
 8005f50:	2b00      	cmp	r3, #0
 8005f52:	d0c5      	beq.n	8005ee0 <_svfiprintf_r+0x130>
 8005f54:	9105      	str	r1, [sp, #20]
 8005f56:	e7c3      	b.n	8005ee0 <_svfiprintf_r+0x130>
 8005f58:	fb0c 2101 	mla	r1, ip, r1, r2
 8005f5c:	4604      	mov	r4, r0
 8005f5e:	2301      	movs	r3, #1
 8005f60:	e7f0      	b.n	8005f44 <_svfiprintf_r+0x194>
 8005f62:	ab03      	add	r3, sp, #12
 8005f64:	9300      	str	r3, [sp, #0]
 8005f66:	462a      	mov	r2, r5
 8005f68:	4b0f      	ldr	r3, [pc, #60]	; (8005fa8 <_svfiprintf_r+0x1f8>)
 8005f6a:	a904      	add	r1, sp, #16
 8005f6c:	4638      	mov	r0, r7
 8005f6e:	f3af 8000 	nop.w
 8005f72:	1c42      	adds	r2, r0, #1
 8005f74:	4606      	mov	r6, r0
 8005f76:	d1d6      	bne.n	8005f26 <_svfiprintf_r+0x176>
 8005f78:	89ab      	ldrh	r3, [r5, #12]
 8005f7a:	065b      	lsls	r3, r3, #25
 8005f7c:	f53f af2c 	bmi.w	8005dd8 <_svfiprintf_r+0x28>
 8005f80:	9809      	ldr	r0, [sp, #36]	; 0x24
 8005f82:	b01d      	add	sp, #116	; 0x74
 8005f84:	e8bd 8ff0 	ldmia.w	sp!, {r4, r5, r6, r7, r8, r9, sl, fp, pc}
 8005f88:	ab03      	add	r3, sp, #12
 8005f8a:	9300      	str	r3, [sp, #0]
 8005f8c:	462a      	mov	r2, r5
 8005f8e:	4b06      	ldr	r3, [pc, #24]	; (8005fa8 <_svfiprintf_r+0x1f8>)
 8005f90:	a904      	add	r1, sp, #16
 8005f92:	4638      	mov	r0, r7
 8005f94:	f000 f87a 	bl	800608c <_printf_i>
 8005f98:	e7eb      	b.n	8005f72 <_svfiprintf_r+0x1c2>
 8005f9a:	bf00      	nop
 8005f9c:	08006dfb 	.word	0x08006dfb
 8005fa0:	08006e05 	.word	0x08006e05
 8005fa4:	00000000 	.word	0x00000000
 8005fa8:	08005cf9 	.word	0x08005cf9
 8005fac:	08006e01 	.word	0x08006e01

08005fb0 <_printf_common>:
 8005fb0:	e92d 47f0 	stmdb	sp!, {r4, r5, r6, r7, r8, r9, sl, lr}
 8005fb4:	4616      	mov	r6, r2
 8005fb6:	4699      	mov	r9, r3
 8005fb8:	688a      	ldr	r2, [r1, #8]
 8005fba:	690b      	ldr	r3, [r1, #16]
 8005fbc:	f8dd 8020 	ldr.w	r8, [sp, #32]
 8005fc0:	4293      	cmp	r3, r2
 8005fc2:	bfb8      	it	lt
 8005fc4:	4613      	movlt	r3, r2
 8005fc6:	6033      	str	r3, [r6, #0]
 8005fc8:	f891 2043 	ldrb.w	r2, [r1, #67]	; 0x43
 8005fcc:	4607      	mov	r7, r0
 8005fce:	460c      	mov	r4, r1
 8005fd0:	b10a      	cbz	r2, 8005fd6 <_printf_common+0x26>
 8005fd2:	3301      	adds	r3, #1
 8005fd4:	6033      	str	r3, [r6, #0]
 8005fd6:	6823      	ldr	r3, [r4, #0]
 8005fd8:	0699      	lsls	r1, r3, #26
 8005fda:	bf42      	ittt	mi
 8005fdc:	6833      	ldrmi	r3, [r6, #0]
 8005fde:	3302      	addmi	r3, #2
 8005fe0:	6033      	strmi	r3, [r6, #0]
 8005fe2:	6825      	ldr	r5, [r4, #0]
 8005fe4:	f015 0506 	ands.w	r5, r5, #6
 8005fe8:	d106      	bne.n	8005ff8 <_printf_common+0x48>
 8005fea:	f104 0a19 	add.w	sl, r4, #25
 8005fee:	68e3      	ldr	r3, [r4, #12]
 8005ff0:	6832      	ldr	r2, [r6, #0]
 8005ff2:	1a9b      	subs	r3, r3, r2
 8005ff4:	42ab      	cmp	r3, r5
 8005ff6:	dc26      	bgt.n	8006046 <_printf_common+0x96>
 8005ff8:	f894 2043 	ldrb.w	r2, [r4, #67]	; 0x43
 8005ffc:	1e13      	subs	r3, r2, #0
 8005ffe:	6822      	ldr	r2, [r4, #0]
 8006000:	bf18      	it	ne
 8006002:	2301      	movne	r3, #1
 8006004:	0692      	lsls	r2, r2, #26
 8006006:	d42b      	bmi.n	8006060 <_printf_common+0xb0>
 8006008:	f104 0243 	add.w	r2, r4, #67	; 0x43
 800600c:	4649      	mov	r1, r9
 800600e:	4638      	mov	r0, r7
 8006010:	47c0      	blx	r8
 8006012:	3001      	adds	r0, #1
 8006014:	d01e      	beq.n	8006054 <_printf_common+0xa4>
 8006016:	6823      	ldr	r3, [r4, #0]
 8006018:	68e5      	ldr	r5, [r4, #12]
 800601a:	6832      	ldr	r2, [r6, #0]
 800601c:	f003 0306 	and.w	r3, r3, #6
 8006020:	2b04      	cmp	r3, #4
 8006022:	bf08      	it	eq
 8006024:	1aad      	subeq	r5, r5, r2
 8006026:	68a3      	ldr	r3, [r4, #8]
 8006028:	6922      	ldr	r2, [r4, #16]
 800602a:	bf0c      	ite	eq
 800602c:	ea25 75e5 	biceq.w	r5, r5, r5, asr #31
 8006030:	2500      	movne	r5, #0
 8006032:	4293      	cmp	r3, r2
 8006034:	bfc4      	itt	gt
 8006036:	1a9b      	subgt	r3, r3, r2
 8006038:	18ed      	addgt	r5, r5, r3
 800603a:	2600      	movs	r6, #0
 800603c:	341a      	adds	r4, #26
 800603e:	42b5      	cmp	r5, r6
 8006040:	d11a      	bne.n	8006078 <_printf_common+0xc8>
 8006042:	2000      	movs	r0, #0
 8006044:	e008      	b.n	8006058 <_printf_common+0xa8>
 8006046:	2301      	movs	r3, #1
 8006048:	4652      	mov	r2, sl
 800604a:	4649      	mov	r1, r9
 800604c:	4638      	mov	r0, r7
 800604e:	47c0      	blx	r8
 8006050:	3001      	adds	r0, #1
 8006052:	d103      	bne.n	800605c <_printf_common+0xac>
 8006054:	f04f 30ff 	mov.w	r0, #4294967295	; 0xffffffff
 8006058:	e8bd 87f0 	ldmia.w	sp!, {r4, r5, r6, r7, r8, r9, sl, pc}
 800605c:	3501      	adds	r5, #1
 800605e:	e7c6      	b.n	8005fee <_printf_common+0x3e>
 8006060:	18e1      	adds	r1, r4, r3
 8006062:	1c5a      	adds	r2, r3, #1
 8006064:	2030      	movs	r0, #48	; 0x30
 8006066:	f881 0043 	strb.w	r0, [r1, #67]	; 0x43
 800606a:	4422      	add	r2, r4
 800606c:	f894 1045 	ldrb.w	r1, [r4, #69]	; 0x45
 8006070:	f882 1043 	strb.w	r1, [r2, #67]	; 0x43
 8006074:	3302      	adds	r3, #2
 8006076:	e7c7      	b.n	8006008 <_printf_common+0x58>
 8006078:	2301      	movs	r3, #1
 800607a:	4622      	mov	r2, r4
 800607c:	4649      	mov	r1, r9
 800607e:	4638      	mov	r0, r7
 8006080:	47c0      	blx	r8
 8006082:	3001      	adds	r0, #1
 8006084:	d0e6      	beq.n	8006054 <_printf_common+0xa4>
 8006086:	3601      	adds	r6, #1
 8006088:	e7d9      	b.n	800603e <_printf_common+0x8e>
	...

0800608c <_printf_i>:
 800608c:	e92d 47ff 	stmdb	sp!, {r0, r1, r2, r3, r4, r5, r6, r7, r8, r9, sl, lr}
 8006090:	7e0f      	ldrb	r7, [r1, #24]
 8006092:	9d0c      	ldr	r5, [sp, #48]	; 0x30
 8006094:	2f78      	cmp	r7, #120	; 0x78
 8006096:	4691      	mov	r9, r2
 8006098:	4680      	mov	r8, r0
 800609a:	460c      	mov	r4, r1
 800609c:	469a      	mov	sl, r3
 800609e:	f101 0243 	add.w	r2, r1, #67	; 0x43
 80060a2:	d807      	bhi.n	80060b4 <_printf_i+0x28>
 80060a4:	2f62      	cmp	r7, #98	; 0x62
 80060a6:	d80a      	bhi.n	80060be <_printf_i+0x32>
 80060a8:	2f00      	cmp	r7, #0
 80060aa:	f000 80d8 	beq.w	800625e <_printf_i+0x1d2>
 80060ae:	2f58      	cmp	r7, #88	; 0x58
 80060b0:	f000 80a3 	beq.w	80061fa <_printf_i+0x16e>
 80060b4:	f104 0542 	add.w	r5, r4, #66	; 0x42
 80060b8:	f884 7042 	strb.w	r7, [r4, #66]	; 0x42
 80060bc:	e03a      	b.n	8006134 <_printf_i+0xa8>
 80060be:	f1a7 0363 	sub.w	r3, r7, #99	; 0x63
 80060c2:	2b15      	cmp	r3, #21
 80060c4:	d8f6      	bhi.n	80060b4 <_printf_i+0x28>
 80060c6:	a101      	add	r1, pc, #4	; (adr r1, 80060cc <_printf_i+0x40>)
 80060c8:	f851 f023 	ldr.w	pc, [r1, r3, lsl #2]
 80060cc:	08006125 	.word	0x08006125
 80060d0:	08006139 	.word	0x08006139
 80060d4:	080060b5 	.word	0x080060b5
 80060d8:	080060b5 	.word	0x080060b5
 80060dc:	080060b5 	.word	0x080060b5
 80060e0:	080060b5 	.word	0x080060b5
 80060e4:	08006139 	.word	0x08006139
 80060e8:	080060b5 	.word	0x080060b5
 80060ec:	080060b5 	.word	0x080060b5
 80060f0:	080060b5 	.word	0x080060b5
 80060f4:	080060b5 	.word	0x080060b5
 80060f8:	08006245 	.word	0x08006245
 80060fc:	08006169 	.word	0x08006169
 8006100:	08006227 	.word	0x08006227
 8006104:	080060b5 	.word	0x080060b5
 8006108:	080060b5 	.word	0x080060b5
 800610c:	08006267 	.word	0x08006267
 8006110:	080060b5 	.word	0x080060b5
 8006114:	08006169 	.word	0x08006169
 8006118:	080060b5 	.word	0x080060b5
 800611c:	080060b5 	.word	0x080060b5
 8006120:	0800622f 	.word	0x0800622f
 8006124:	682b      	ldr	r3, [r5, #0]
 8006126:	1d1a      	adds	r2, r3, #4
 8006128:	681b      	ldr	r3, [r3, #0]
 800612a:	602a      	str	r2, [r5, #0]
 800612c:	f104 0542 	add.w	r5, r4, #66	; 0x42
 8006130:	f884 3042 	strb.w	r3, [r4, #66]	; 0x42
 8006134:	2301      	movs	r3, #1
 8006136:	e0a3      	b.n	8006280 <_printf_i+0x1f4>
 8006138:	6820      	ldr	r0, [r4, #0]
 800613a:	6829      	ldr	r1, [r5, #0]
 800613c:	0606      	lsls	r6, r0, #24
 800613e:	f101 0304 	add.w	r3, r1, #4
 8006142:	d50a      	bpl.n	800615a <_printf_i+0xce>
 8006144:	680e      	ldr	r6, [r1, #0]
 8006146:	602b      	str	r3, [r5, #0]
 8006148:	2e00      	cmp	r6, #0
 800614a:	da03      	bge.n	8006154 <_printf_i+0xc8>
 800614c:	232d      	movs	r3, #45	; 0x2d
 800614e:	4276      	negs	r6, r6
 8006150:	f884 3043 	strb.w	r3, [r4, #67]	; 0x43
 8006154:	485e      	ldr	r0, [pc, #376]	; (80062d0 <_printf_i+0x244>)
 8006156:	230a      	movs	r3, #10
 8006158:	e019      	b.n	800618e <_printf_i+0x102>
 800615a:	680e      	ldr	r6, [r1, #0]
 800615c:	602b      	str	r3, [r5, #0]
 800615e:	f010 0f40 	tst.w	r0, #64	; 0x40
 8006162:	bf18      	it	ne
 8006164:	b236      	sxthne	r6, r6
 8006166:	e7ef      	b.n	8006148 <_printf_i+0xbc>
 8006168:	682b      	ldr	r3, [r5, #0]
 800616a:	6820      	ldr	r0, [r4, #0]
 800616c:	1d19      	adds	r1, r3, #4
 800616e:	6029      	str	r1, [r5, #0]
 8006170:	0601      	lsls	r1, r0, #24
 8006172:	d501      	bpl.n	8006178 <_printf_i+0xec>
 8006174:	681e      	ldr	r6, [r3, #0]
 8006176:	e002      	b.n	800617e <_printf_i+0xf2>
 8006178:	0646      	lsls	r6, r0, #25
 800617a:	d5fb      	bpl.n	8006174 <_printf_i+0xe8>
 800617c:	881e      	ldrh	r6, [r3, #0]
 800617e:	4854      	ldr	r0, [pc, #336]	; (80062d0 <_printf_i+0x244>)
 8006180:	2f6f      	cmp	r7, #111	; 0x6f
 8006182:	bf0c      	ite	eq
 8006184:	2308      	moveq	r3, #8
 8006186:	230a      	movne	r3, #10
 8006188:	2100      	movs	r1, #0
 800618a:	f884 1043 	strb.w	r1, [r4, #67]	; 0x43
 800618e:	6865      	ldr	r5, [r4, #4]
 8006190:	60a5      	str	r5, [r4, #8]
 8006192:	2d00      	cmp	r5, #0
 8006194:	bfa2      	ittt	ge
 8006196:	6821      	ldrge	r1, [r4, #0]
 8006198:	f021 0104 	bicge.w	r1, r1, #4
 800619c:	6021      	strge	r1, [r4, #0]
 800619e:	b90e      	cbnz	r6, 80061a4 <_printf_i+0x118>
 80061a0:	2d00      	cmp	r5, #0
 80061a2:	d04d      	beq.n	8006240 <_printf_i+0x1b4>
 80061a4:	4615      	mov	r5, r2
 80061a6:	fbb6 f1f3 	udiv	r1, r6, r3
 80061aa:	fb03 6711 	mls	r7, r3, r1, r6
 80061ae:	5dc7      	ldrb	r7, [r0, r7]
 80061b0:	f805 7d01 	strb.w	r7, [r5, #-1]!
 80061b4:	4637      	mov	r7, r6
 80061b6:	42bb      	cmp	r3, r7
 80061b8:	460e      	mov	r6, r1
 80061ba:	d9f4      	bls.n	80061a6 <_printf_i+0x11a>
 80061bc:	2b08      	cmp	r3, #8
 80061be:	d10b      	bne.n	80061d8 <_printf_i+0x14c>
 80061c0:	6823      	ldr	r3, [r4, #0]
 80061c2:	07de      	lsls	r6, r3, #31
 80061c4:	d508      	bpl.n	80061d8 <_printf_i+0x14c>
 80061c6:	6923      	ldr	r3, [r4, #16]
 80061c8:	6861      	ldr	r1, [r4, #4]
 80061ca:	4299      	cmp	r1, r3
 80061cc:	bfde      	ittt	le
 80061ce:	2330      	movle	r3, #48	; 0x30
 80061d0:	f805 3c01 	strble.w	r3, [r5, #-1]
 80061d4:	f105 35ff 	addle.w	r5, r5, #4294967295	; 0xffffffff
 80061d8:	1b52      	subs	r2, r2, r5
 80061da:	6122      	str	r2, [r4, #16]
 80061dc:	f8cd a000 	str.w	sl, [sp]
 80061e0:	464b      	mov	r3, r9
 80061e2:	aa03      	add	r2, sp, #12
 80061e4:	4621      	mov	r1, r4
 80061e6:	4640      	mov	r0, r8
 80061e8:	f7ff fee2 	bl	8005fb0 <_printf_common>
 80061ec:	3001      	adds	r0, #1
 80061ee:	d14c      	bne.n	800628a <_printf_i+0x1fe>
 80061f0:	f04f 30ff 	mov.w	r0, #4294967295	; 0xffffffff
 80061f4:	b004      	add	sp, #16
 80061f6:	e8bd 87f0 	ldmia.w	sp!, {r4, r5, r6, r7, r8, r9, sl, pc}
 80061fa:	4835      	ldr	r0, [pc, #212]	; (80062d0 <_printf_i+0x244>)
 80061fc:	f881 7045 	strb.w	r7, [r1, #69]	; 0x45
 8006200:	6829      	ldr	r1, [r5, #0]
 8006202:	6823      	ldr	r3, [r4, #0]
 8006204:	f851 6b04 	ldr.w	r6, [r1], #4
 8006208:	6029      	str	r1, [r5, #0]
 800620a:	061d      	lsls	r5, r3, #24
 800620c:	d514      	bpl.n	8006238 <_printf_i+0x1ac>
 800620e:	07df      	lsls	r7, r3, #31
 8006210:	bf44      	itt	mi
 8006212:	f043 0320 	orrmi.w	r3, r3, #32
 8006216:	6023      	strmi	r3, [r4, #0]
 8006218:	b91e      	cbnz	r6, 8006222 <_printf_i+0x196>
 800621a:	6823      	ldr	r3, [r4, #0]
 800621c:	f023 0320 	bic.w	r3, r3, #32
 8006220:	6023      	str	r3, [r4, #0]
 8006222:	2310      	movs	r3, #16
 8006224:	e7b0      	b.n	8006188 <_printf_i+0xfc>
 8006226:	6823      	ldr	r3, [r4, #0]
 8006228:	f043 0320 	orr.w	r3, r3, #32
 800622c:	6023      	str	r3, [r4, #0]
 800622e:	2378      	movs	r3, #120	; 0x78
 8006230:	4828      	ldr	r0, [pc, #160]	; (80062d4 <_printf_i+0x248>)
 8006232:	f884 3045 	strb.w	r3, [r4, #69]	; 0x45
 8006236:	e7e3      	b.n	8006200 <_printf_i+0x174>
 8006238:	0659      	lsls	r1, r3, #25
 800623a:	bf48      	it	mi
 800623c:	b2b6      	uxthmi	r6, r6
 800623e:	e7e6      	b.n	800620e <_printf_i+0x182>
 8006240:	4615      	mov	r5, r2
 8006242:	e7bb      	b.n	80061bc <_printf_i+0x130>
 8006244:	682b      	ldr	r3, [r5, #0]
 8006246:	6826      	ldr	r6, [r4, #0]
 8006248:	6961      	ldr	r1, [r4, #20]
 800624a:	1d18      	adds	r0, r3, #4
 800624c:	6028      	str	r0, [r5, #0]
 800624e:	0635      	lsls	r5, r6, #24
 8006250:	681b      	ldr	r3, [r3, #0]
 8006252:	d501      	bpl.n	8006258 <_printf_i+0x1cc>
 8006254:	6019      	str	r1, [r3, #0]
 8006256:	e002      	b.n	800625e <_printf_i+0x1d2>
 8006258:	0670      	lsls	r0, r6, #25
 800625a:	d5fb      	bpl.n	8006254 <_printf_i+0x1c8>
 800625c:	8019      	strh	r1, [r3, #0]
 800625e:	2300      	movs	r3, #0
 8006260:	6123      	str	r3, [r4, #16]
 8006262:	4615      	mov	r5, r2
 8006264:	e7ba      	b.n	80061dc <_printf_i+0x150>
 8006266:	682b      	ldr	r3, [r5, #0]
 8006268:	1d1a      	adds	r2, r3, #4
 800626a:	602a      	str	r2, [r5, #0]
 800626c:	681d      	ldr	r5, [r3, #0]
 800626e:	6862      	ldr	r2, [r4, #4]
 8006270:	2100      	movs	r1, #0
 8006272:	4628      	mov	r0, r5
 8006274:	f7f9 ffb4 	bl	80001e0 <memchr>
 8006278:	b108      	cbz	r0, 800627e <_printf_i+0x1f2>
 800627a:	1b40      	subs	r0, r0, r5
 800627c:	6060      	str	r0, [r4, #4]
 800627e:	6863      	ldr	r3, [r4, #4]
 8006280:	6123      	str	r3, [r4, #16]
 8006282:	2300      	movs	r3, #0
 8006284:	f884 3043 	strb.w	r3, [r4, #67]	; 0x43
 8006288:	e7a8      	b.n	80061dc <_printf_i+0x150>
 800628a:	6923      	ldr	r3, [r4, #16]
 800628c:	462a      	mov	r2, r5
 800628e:	4649      	mov	r1, r9
 8006290:	4640      	mov	r0, r8
 8006292:	47d0      	blx	sl
 8006294:	3001      	adds	r0, #1
 8006296:	d0ab      	beq.n	80061f0 <_printf_i+0x164>
 8006298:	6823      	ldr	r3, [r4, #0]
 800629a:	079b      	lsls	r3, r3, #30
 800629c:	d413      	bmi.n	80062c6 <_printf_i+0x23a>
 800629e:	68e0      	ldr	r0, [r4, #12]
 80062a0:	9b03      	ldr	r3, [sp, #12]
 80062a2:	4298      	cmp	r0, r3
 80062a4:	bfb8      	it	lt
 80062a6:	4618      	movlt	r0, r3
 80062a8:	e7a4      	b.n	80061f4 <_printf_i+0x168>
 80062aa:	2301      	movs	r3, #1
 80062ac:	4632      	mov	r2, r6
 80062ae:	4649      	mov	r1, r9
 80062b0:	4640      	mov	r0, r8
 80062b2:	47d0      	blx	sl
 80062b4:	3001      	adds	r0, #1
 80062b6:	d09b      	beq.n	80061f0 <_printf_i+0x164>
 80062b8:	3501      	adds	r5, #1
 80062ba:	68e3      	ldr	r3, [r4, #12]
 80062bc:	9903      	ldr	r1, [sp, #12]
 80062be:	1a5b      	subs	r3, r3, r1
 80062c0:	42ab      	cmp	r3, r5
 80062c2:	dcf2      	bgt.n	80062aa <_printf_i+0x21e>
 80062c4:	e7eb      	b.n	800629e <_printf_i+0x212>
 80062c6:	2500      	movs	r5, #0
 80062c8:	f104 0619 	add.w	r6, r4, #25
 80062cc:	e7f5      	b.n	80062ba <_printf_i+0x22e>
 80062ce:	bf00      	nop
 80062d0:	08006e0c 	.word	0x08006e0c
 80062d4:	08006e1d 	.word	0x08006e1d

080062d8 <__retarget_lock_acquire_recursive>:
 80062d8:	4770      	bx	lr

080062da <__retarget_lock_release_recursive>:
 80062da:	4770      	bx	lr

080062dc <memcpy>:
 80062dc:	440a      	add	r2, r1
 80062de:	4291      	cmp	r1, r2
 80062e0:	f100 33ff 	add.w	r3, r0, #4294967295	; 0xffffffff
 80062e4:	d100      	bne.n	80062e8 <memcpy+0xc>
 80062e6:	4770      	bx	lr
 80062e8:	b510      	push	{r4, lr}
 80062ea:	f811 4b01 	ldrb.w	r4, [r1], #1
 80062ee:	f803 4f01 	strb.w	r4, [r3, #1]!
 80062f2:	4291      	cmp	r1, r2
 80062f4:	d1f9      	bne.n	80062ea <memcpy+0xe>
 80062f6:	bd10      	pop	{r4, pc}

080062f8 <memmove>:
 80062f8:	4288      	cmp	r0, r1
 80062fa:	b510      	push	{r4, lr}
 80062fc:	eb01 0402 	add.w	r4, r1, r2
 8006300:	d902      	bls.n	8006308 <memmove+0x10>
 8006302:	4284      	cmp	r4, r0
 8006304:	4623      	mov	r3, r4
 8006306:	d807      	bhi.n	8006318 <memmove+0x20>
 8006308:	1e43      	subs	r3, r0, #1
 800630a:	42a1      	cmp	r1, r4
 800630c:	d008      	beq.n	8006320 <memmove+0x28>
 800630e:	f811 2b01 	ldrb.w	r2, [r1], #1
 8006312:	f803 2f01 	strb.w	r2, [r3, #1]!
 8006316:	e7f8      	b.n	800630a <memmove+0x12>
 8006318:	4402      	add	r2, r0
 800631a:	4601      	mov	r1, r0
 800631c:	428a      	cmp	r2, r1
 800631e:	d100      	bne.n	8006322 <memmove+0x2a>
 8006320:	bd10      	pop	{r4, pc}
 8006322:	f813 4d01 	ldrb.w	r4, [r3, #-1]!
 8006326:	f802 4d01 	strb.w	r4, [r2, #-1]!
 800632a:	e7f7      	b.n	800631c <memmove+0x24>

0800632c <_realloc_r>:
 800632c:	e92d 41f0 	stmdb	sp!, {r4, r5, r6, r7, r8, lr}
 8006330:	4680      	mov	r8, r0
 8006332:	4614      	mov	r4, r2
 8006334:	460e      	mov	r6, r1
 8006336:	b921      	cbnz	r1, 8006342 <_realloc_r+0x16>
 8006338:	e8bd 41f0 	ldmia.w	sp!, {r4, r5, r6, r7, r8, lr}
 800633c:	4611      	mov	r1, r2
 800633e:	f7ff bc2b 	b.w	8005b98 <_malloc_r>
 8006342:	b92a      	cbnz	r2, 8006350 <_realloc_r+0x24>
 8006344:	f7ff fbbc 	bl	8005ac0 <_free_r>
 8006348:	4625      	mov	r5, r4
 800634a:	4628      	mov	r0, r5
 800634c:	e8bd 81f0 	ldmia.w	sp!, {r4, r5, r6, r7, r8, pc}
 8006350:	f000 f81b 	bl	800638a <_malloc_usable_size_r>
 8006354:	4284      	cmp	r4, r0
 8006356:	4607      	mov	r7, r0
 8006358:	d802      	bhi.n	8006360 <_realloc_r+0x34>
 800635a:	ebb4 0f50 	cmp.w	r4, r0, lsr #1
 800635e:	d812      	bhi.n	8006386 <_realloc_r+0x5a>
 8006360:	4621      	mov	r1, r4
 8006362:	4640      	mov	r0, r8
 8006364:	f7ff fc18 	bl	8005b98 <_malloc_r>
 8006368:	4605      	mov	r5, r0
 800636a:	2800      	cmp	r0, #0
 800636c:	d0ed      	beq.n	800634a <_realloc_r+0x1e>
 800636e:	42bc      	cmp	r4, r7
 8006370:	4622      	mov	r2, r4
 8006372:	4631      	mov	r1, r6
 8006374:	bf28      	it	cs
 8006376:	463a      	movcs	r2, r7
 8006378:	f7ff ffb0 	bl	80062dc <memcpy>
 800637c:	4631      	mov	r1, r6
 800637e:	4640      	mov	r0, r8
 8006380:	f7ff fb9e 	bl	8005ac0 <_free_r>
 8006384:	e7e1      	b.n	800634a <_realloc_r+0x1e>
 8006386:	4635      	mov	r5, r6
 8006388:	e7df      	b.n	800634a <_realloc_r+0x1e>

0800638a <_malloc_usable_size_r>:
 800638a:	f851 3c04 	ldr.w	r3, [r1, #-4]
 800638e:	1f18      	subs	r0, r3, #4
 8006390:	2b00      	cmp	r3, #0
 8006392:	bfbc      	itt	lt
 8006394:	580b      	ldrlt	r3, [r1, r0]
 8006396:	18c0      	addlt	r0, r0, r3
 8006398:	4770      	bx	lr
	...

0800639c <APBAHBPrescTable>:
 800639c:	0000 0000 0201 0403 0201 0403 0706 0908     ................

080063ac <imp_0_lctrl>:
 80063ac:	0110 2000 0001 0000 0000 0000 0000 0000     ... ............
 80063bc:	0001 0000 0000 0000 0001 0000 0001 0000     ................

080063cc <imp_0_lshift>:
 80063cc:	0110 2000 0001 0000 0001 0000 0000 0000     ... ............
 80063dc:	0001 0000 0000 0000 0001 0000 0001 0000     ................

080063ec <imp_0_lalt>:
 80063ec:	0110 2000 0001 0000 0002 0000 0000 0000     ... ............
 80063fc:	0001 0000 0000 0000 0001 0000 0001 0000     ................

0800640c <imp_0_lgui>:
 800640c:	0110 2000 0001 0000 0003 0000 0000 0000     ... ............
 800641c:	0001 0000 0000 0000 0001 0000 0001 0000     ................

0800642c <imp_0_rctrl>:
 800642c:	0110 2000 0001 0000 0004 0000 0000 0000     ... ............
 800643c:	0001 0000 0000 0000 0001 0000 0001 0000     ................

0800644c <imp_0_rshift>:
 800644c:	0110 2000 0001 0000 0005 0000 0000 0000     ... ............
 800645c:	0001 0000 0000 0000 0001 0000 0001 0000     ................

0800646c <imp_0_ralt>:
 800646c:	0110 2000 0001 0000 0006 0000 0000 0000     ... ............
 800647c:	0001 0000 0000 0000 0001 0000 0001 0000     ................

0800648c <imp_0_rgui>:
 800648c:	0110 2000 0001 0000 0007 0000 0000 0000     ... ............
 800649c:	0001 0000 0000 0000 0001 0000 0001 0000     ................

080064ac <imp_0_key_array>:
 80064ac:	0112 2000 0008 0000 0600 0000 0000 0000     ... ............
 80064bc:	0065 0000 0000 0000 0065 0000 0001 0000     e.......e.......

080064cc <HID_KEYBRD_ShiftKey>:
 80064cc:	7e00 4021 2423 5e25 2a26 2928 2b5f 0000     .~!@#$%^&*()_+..
 80064dc:	5100 4557 5452 5559 4f49 7b50 7c7d 4100     .QWERTYUIOP{}|.A
 80064ec:	4453 4746 4a48 4c4b 223a 0a00 0000 585a     SDFGHJKL:"....ZX
 80064fc:	5643 4e42 3c4d 3f3e 0000 0000 0000 0000     CVBNM<>?........
	...

08006550 <HID_KEYBRD_Codes>:
 8006550:	0000 0000 321f 2130 2213 2423 2518 2726     .....20!."#$.%&'
 8006560:	3334 1a19 1411 1520 3117 2f12 2e16 0302     43.... ..1./....
 8006570:	0504 0706 0908 0b0a 6e2b 100f 0c3d 1b0d     ........+n..=...
 8006580:	1d1c 282a 0129 3635 1e37 7170 7372 7574     ..*().567.pqrstu
 8006590:	7776 7978 7b7a 7d7c 4b7e 5550 514c 5956     vwxyz{|}~KPULQVY
 80065a0:	544f 5a53 645f 6a69 5d6c 6762 615c 5b66     OTSZ_dijl]bg\af[
 80065b0:	6560 6863 812d 0000 0000 0000 0000 0000     `ech-...........
	...
 80065d4:	6b00 3800 0000 0000 0000 0000 0000 0000     .k.8............
	...
 8006630:	2c3a 7f3c 3940 803e                         :,<.@9>.

08006638 <HID_KEYBRD_Key>:
 8006638:	6000 3231 3433 3635 3837 3039 3d2d 0d00     .`1234567890-=..
 8006648:	7109 6577 7472 7579 6f69 5b70 5c5d 6100     .qwertyuiop[]\.a
 8006658:	6473 6766 6a68 6c6b 273b 0a00 0000 787a     sdfghjkl;'....zx
 8006668:	7663 6e62 2c6d 2f2e 0000 0000 2000 0000     cvbnm,./..... ..
	...
 8006688:	000d 0000 0000 0000 0000 3700 3134 2f00     ...........741./
 8006698:	3538 3032 392a 3336 2d2e 002b 000a 0000     8520*963.-+.....
	...

080066bc <prop_x>:
 80066bc:	0121 2000 0008 0000 0000 0001 0000 0000     !.. ............
 80066cc:	ffff 0000 0000 0000 ffff 0000 0001 0000     ................

080066dc <prop_y>:
 80066dc:	0122 2000 0008 0000 0000 0001 0000 0000     ".. ............
 80066ec:	ffff 0000 0000 0000 ffff 0000 0001 0000     ................

080066fc <prop_b1>:
 80066fc:	0120 2000 0001 0000 0000 0000 0000 0000      .. ............
 800670c:	0001 0000 0000 0000 0001 0000 0001 0000     ................

0800671c <prop_b2>:
 800671c:	0120 2000 0001 0000 0001 0000 0000 0000      .. ............
 800672c:	0001 0000 0000 0000 0001 0000 0001 0000     ................

0800673c <prop_b3>:
 800673c:	0120 2000 0001 0000 0002 0000 0000 0000      .. ............
 800674c:	0001 0000 0000 0000 0001 0000 0001 0000     ................
 800675c:	5355 4842 485f 4449 495f 746e 7265 6166     USBH_HID_Interfa
 800676c:	6563 6544 6e49 7469 2520 0064 5355 4842     ceDeInit %d.USBH
 800677c:	485f 4449 505f 7261 6d61 7465 7265 2d20     _HID_Parameter -
 800678c:	6420 7461 2061 6f74 206f 6d73 6c61 006c      data too small.
 800679c:	5355 4842 485f 4449 505f 7261 6d61 7465     USBH_HID_Paramet
 80067ac:	7265 2d20 4920 766e 6c61 6469 7020 7261     er - Invalid par
 80067bc:	6d61 7465 7265 0000 4e49 4554 4652 4341     ameter..INTERFAC
 80067cc:	5345 203a 6425 0000 6c43 7361 2073 2020     ES: %d..Class   
 80067dc:	3a20 2520 6878 0000 7553 4362 616c 7373      : %xh..SubClass
 80067ec:	3a20 2520 6878 0000 7250 746f 636f 6c6f      : %xh..Protocol
 80067fc:	3a20 2520 6878 0000 4948 2044 454c 204e      : %xh..HID LEN 
 800680c:	6425 2d20 2520 0064 654b 4279 616f 6472     %d - %d.KeyBoard
 800681c:	6620 756f 646e 002e 6f4d 7375 2065 6f66      found..Mouse fo
 800682c:	6e75 2e64 0000 0000 4e49 2020 6973 657a     und.....IN  size
 800683c:	253d 2c64 6e20 6d75 2520 2c64 6120 6464     =%d, num %d, add
 800684c:	2072 7830 3025 5832 202c 6f70 6c6f 2520     r 0x%02X, pool %
 800685c:	2c64 6c20 776f 7073 6565 3f64 2520 0064     d, lowspeed? %d.
 800686c:	554f 2054 6973 657a 253d 2c64 6e20 6d75     OUT size=%d, num
 800687c:	2520 2c64 6120 6464 2072 7830 3025 5832      %d, addr 0x%02X
 800688c:	202c 6f70 6c6f 2520 0064 0000 4948 0044     , pool %d...HID.
 800689c:	6425 4820 4255 5020 524f 5354 4520 414e     %d HUB PORTS ENA
 80068ac:	4c42 4445 0000 0000 3d3d 3d3d 3d3d 3d3d     BLED....========
 80068bc:	3d3d 3d3d 3d3d 3d3d 3d3d 3d3d 3d3d 3d3d     ================
 80068cc:	3d3d 3d3d 3d3d 3d3d 3d3d 3d3d 3d3d 3d3d     ================
 80068dc:	3d3d 3d3d 003d 0000 5355 4842 485f 4255     =====...USBH_HUB
 80068ec:	495f 746e 7265 6166 6563 6544 6e49 7469     _InterfaceDeInit
 80068fc:	2520 0064 6143 6e6e 746f 4620 6e69 2064      %d.Cannot Find 
 800690c:	6874 2065 6e69 6574 6672 6361 2065 6f66     the interface fo
 800691c:	2072 7325 6320 616c 7373 002e 6564 6976     r %s class..devi
 800692c:	6563 5020 4c4f 204c 6425 202c 454c 204e     ce POLL %d, LEN 
 800693c:	6425 0000 6564 6174 6863 2520 0064 0000     %d..detach %d...
 800694c:	5548 5f42 4544 5f56 5441 4154 4843 4445     HUB_DEV_ATTACHED
 800695c:	2520 2c64 6c20 776f 7073 6565 3f64 2520      %d, lowspeed? %
 800696c:	0064 0000 7461 6174 6863 2520 0064 0000     d...attach %d...
 800697c:	5441 4154 4843 4520 5252 524f 202c 4c41     ATTACH ERROR, AL
 800698c:	4552 4441 2059 5441 4154 4843 4445 0000     READY ATTACHED..
 800699c:	5548 5f42 4544 5f56 4544 4154 4843 4445     HUB_DEV_DETACHED
 80069ac:	2520 0064 5548 0042 6e49 6176 696c 2064      %d.HUB.Invalid 
 80069bc:	6f48 7473 6820 6e61 6c64 0065 614d 2078     Host handle.Max 
 80069cc:	6c43 7361 2073 754e 626d 7265 7220 6165     Class Number rea
 80069dc:	6863 6465 0000 0000 6e49 6176 696c 2064     ched....Invalid 
 80069ec:	6c43 7361 2073 6168 646e 656c 0000 0000     Class handle....
 80069fc:	7753 7469 6863 6e69 2067 6f74 4920 746e     Switching to Int
 8006a0c:	7265 6166 6563 2820 2523 2964 0000 0000     erface (#%d)....
 8006a1c:	6143 6e6e 746f 5320 6c65 6365 2074 6854     Cannot Select Th
 8006a2c:	7369 4920 746e 7265 6166 6563 002e 0000     is Interface....
 8006a3c:	5355 2042 6544 6976 6563 4120 7474 6361     USB Device Attac
 8006a4c:	6568 0064 4544 4956 4543 4420 5349 4f43     hed.DEVICE DISCO
 8006a5c:	4e4e 4345 4554 2044 5544 4952 474e 4320     NNECTED DURING C
 8006a6c:	4e4f 454e 5443 4f49 204e 4544 414c 0059     ONNECTION DELAY.
 8006a7c:	6e45 6d75 6d20 7370 203a 6425 202c 6461     Enum mps: %d, ad
 8006a8c:	7264 203a 6425 0000 4950 2044 3a20 2520     dr: %d..PID  : %
 8006a9c:	6878 0000 4956 2044 3a20 2520 6878 0000     xh..VID  : %xh..
 8006aac:	6441 7264 7365 2073 2328 6425 2029 7361     Address (#%d) as
 8006abc:	6973 6e67 6465 002e 614d 756e 6166 7463     signed..Manufact
 8006acc:	7275 7265 3a20 2520 0073 0000 614d 756e     urer : %s...Manu
 8006adc:	6166 7463 7275 7265 3a20 4e20 412f 0000     facturer : N/A..
 8006aec:	7250 646f 6375 2074 203a 7325 0000 0000     Product : %s....
 8006afc:	7250 646f 6375 2074 203a 2f4e 0041 0000     Product : N/A...
 8006b0c:	6553 6972 6c61 4e20 6d75 6562 2072 203a     Serial Number : 
 8006b1c:	7325 0000 6553 6972 6c61 4e20 6d75 6562     %s..Serial Numbe
 8006b2c:	2072 203a 2f4e 0041 6e45 6d75 7265 7461     r : N/A.Enumerat
 8006b3c:	6f69 206e 6f64 656e 002e 0000 6854 7369     ion done....This
 8006b4c:	6420 7665 6369 2065 6168 2073 6e6f 796c      device has only
 8006b5c:	3120 6320 6e6f 6966 7567 6172 6974 6e6f      1 configuration
 8006b6c:	002e 0000 6544 6166 6c75 2074 6f63 666e     ....Default conf
 8006b7c:	6769 7275 7461 6f69 206e 6573 2e74 0000     iguration set...
 8006b8c:	6f4e 4320 616c 7373 6820 7361 6220 6565     No Class has bee
 8006b9c:	206e 6572 6967 7473 7265 6465 002e 0000     n registered....
 8006bac:	7325 6320 616c 7373 7320 6174 7472 6465     %s class started
 8006bbc:	002e 0000 6544 6976 6563 6e20 746f 7320     ....Device not s
 8006bcc:	7075 6f70 7472 6e69 2067 7325 6320 616c     upporting %s cla
 8006bdc:	7373 002e 6f4e 7220 6765 7369 6574 6572     ss..No registere
 8006bec:	2064 6c63 7361 2073 6f66 2072 6874 7369     d class for this
 8006bfc:	6420 7665 6369 2e65 0000 0000 6e49 6176      device.....Inva
 8006c0c:	696c 2064 6c43 7361 2073 7244 7669 7265     lid Class Driver
 8006c1c:	002e 0000 4f48 5453 445f 5645 445f 5349     ....HOST_DEV_DIS
 8006c2c:	4f43 4e4e 4345 4554 2044 6425 0000 0000     CONNECTED %d....
 8006c3c:	550d 4253 5f48 4c4c 445f 7369 6f63 6e6e     .USBH_LL_Disconn
 8006c4c:	6365 2074 255b 5d64 0000 0000 5355 4842     ect [%d]....USBH
 8006c5c:	4c5f 5f4c 6944 6373 6e6f 656e 7463 4f20     _LL_Disconnect O
 8006c6c:	004b 0000 6f43 746e 6f72 206c 7265 6f72     K...Control erro
 8006c7c:	0072 0000 3d3d 3d3d 3d3d 203d 4146 4c49     r...======= FAIL
 8006c8c:	3d20 3d3d 3d3d 3d3d 3d3d 3d3d 0000 0000      ===========....
 8006c9c:	5355 4842 505f 7261 6573 6544 4476 7365     USBH_ParseDevDes
 8006cac:	0063 0000 5355 4842 505f 7261 6573 6643     c...USBH_ParseCf
 8006cbc:	4467 7365 2c63 6e20 6d75 6562 2072 666f     gDesc, number of
 8006ccc:	6920 746e 7265 6166 6563 3a73 2520 0064      interfaces: %d.
 8006cdc:	7469 6366 616c 7373 3020 2578 3230 0058     itfclass 0x%02X.
 8006cec:	5355 4842 505f 7261 6573 6e49 6574 6672     USBH_ParseInterf
 8006cfc:	6361 4465 7365 2c63 6920 6674 2520 2c64     aceDesc, itf %d,
 8006d0c:	6320 616c 7373 3020 2578 3230 2c58 7320      class 0x%02X, s
 8006d1c:	6275 6c63 7361 3a73 3020 2578 3230 2c58     ubclass: 0x%02X,
 8006d2c:	7020 6f72 6f74 203a 7830 3025 5832 202c      proto: 0x%02X, 
 8006d3c:	756e 656d 2070 6425 0000 0000 6461 7264     numep %d....addr
 8006d4c:	3a64 3020 2578 3230 2c58 7020 7069 3a65     d: 0x%02X, pipe:
 8006d5c:	2520 0064 6f4e 4620 4552 2045 6950 6570      %d.No FREE Pipe
 8006d6c:	2073 2121 2121 2121 0000 0000 3025 5832     s !!!!!!....%02X
 8006d7c:	0020 0000 0a0d 0000 5b1b 4a32 5b1b 0048      ........[2J.[H.
 8006d8c:	5041 2050 5552 4e4e 4e49 2e47 2e2e 0000     APP RUNNING.....
 8006d9c:	434d 2d55 4449 2520 3830 0058 5542 5454     MCU-ID %08X.BUTT
 8006dac:	4e4f 2520 3b64 5820 2520 3b64 5920 2520     ON %d; X %d; Y %
 8006dbc:	0064 0000 454b 4259 2520 0064 4148 5f4c     d...KEYB %d.HAL_
 8006dcc:	4348 5f44 734d 4970 696e 0074 5355 4842     HCD_MspInit.USBH
 8006ddc:	4c5f 5f4c 6547 5374 6570 6465 2520 2064     _LL_GetSpeed %d 
 8006dec:	4c28 574f 323d 462c 4c55 3d4c 2931 2300     (LOW=2,FULL=1).#
 8006dfc:	302d 202b 6800 4c6c 6500 6766 4645 0047     -0+ .hlL.efgEFG.
 8006e0c:	3130 3332 3534 3736 3938 4241 4443 4645     0123456789ABCDEF
 8006e1c:	3000 3231 3433 3635 3837 6139 6362 6564     .0123456789abcde
 8006e2c:	0066 0000                                   f...

08006e30 <_init>:
 8006e30:	b5f8      	push	{r3, r4, r5, r6, r7, lr}
 8006e32:	bf00      	nop
 8006e34:	bcf8      	pop	{r3, r4, r5, r6, r7}
 8006e36:	bc08      	pop	{r3}
 8006e38:	469e      	mov	lr, r3
 8006e3a:	4770      	bx	lr

08006e3c <_fini>:
 8006e3c:	b5f8      	push	{r3, r4, r5, r6, r7, lr}
 8006e3e:	bf00      	nop
 8006e40:	bcf8      	pop	{r3, r4, r5, r6, r7}
 8006e42:	bc08      	pop	{r3}
 8006e44:	469e      	mov	lr, r3
 8006e46:	4770      	bx	lr
